Archive member included because of file (symbol)

../AVR32_LIBS/UTILS/LIBS/NEWLIB_ADDONS/AT32UCR2\libnewlib_addons-at32ucr2-speed_opt.a(cpu.o)
                              AVR32_LIBS/DRIVERS/PM/pm_conf_clocks.o (set_cpu_hz)
../AVR32_LIBS/UTILS/LIBS/NEWLIB_ADDONS/AT32UCR2\libnewlib_addons-at32ucr2-speed_opt.a(syscalls.o)
                              c:/program files (x86)/atmel/avr studio 5.1/extensions/atmel/avrgcc/3.3.1.27/avrtoolchain/bin/../lib/gcc/avr32/4.4.3/../../../../avr32/lib/ucr2/crt0.o (_init_argv)
../AVR32_LIBS/UTILS/LIBS/NEWLIB_ADDONS/AT32UCR2\libnewlib_addons-at32ucr2-speed_opt.a(usart.o)
                              ../AVR32_LIBS/UTILS/LIBS/NEWLIB_ADDONS/AT32UCR2\libnewlib_addons-at32ucr2-speed_opt.a(syscalls.o) (usart_putc)
../AVR32_LIBS/UTILS/LIBS/NEWLIB_ADDONS/AT32UCR2\libnewlib_addons-at32ucr2-speed_opt.a(exception_handling.o)
                              ../AVR32_LIBS/UTILS/LIBS/NEWLIB_ADDONS/AT32UCR2\libnewlib_addons-at32ucr2-speed_opt.a(syscalls.o) (init_exceptions)
c:/program files (x86)/atmel/avr studio 5.1/extensions/atmel/avrgcc/3.3.1.27/avrtoolchain/bin/../lib/gcc/avr32/4.4.3/ucr2\libgcc.a(_avr32_f64_mul.o)
                              main_app.o (__avr32_f64_mul)
c:/program files (x86)/atmel/avr studio 5.1/extensions/atmel/avrgcc/3.3.1.27/avrtoolchain/bin/../lib/gcc/avr32/4.4.3/ucr2\libgcc.a(_avr32_f64_addsub.o)
                              main_app.o (__avr32_f64_add)
c:/program files (x86)/atmel/avr studio 5.1/extensions/atmel/avrgcc/3.3.1.27/avrtoolchain/bin/../lib/gcc/avr32/4.4.3/ucr2\libgcc.a(_avr32_f64_to_s32.o)
                              main_app.o (__avr32_f64_to_u32)
c:/program files (x86)/atmel/avr studio 5.1/extensions/atmel/avrgcc/3.3.1.27/avrtoolchain/bin/../lib/gcc/avr32/4.4.3/ucr2\libgcc.a(_avr32_s32_to_f64.o)
                              main_app.o (__avr32_u32_to_f64)
c:/program files (x86)/atmel/avr studio 5.1/extensions/atmel/avrgcc/3.3.1.27/avrtoolchain/bin/../lib/gcc/avr32/4.4.3/ucr2\libgcc.a(_avr32_f64_cmp_lt.o)
                              main_app.o (__avr32_f64_cmp_lt)
c:/program files (x86)/atmel/avr studio 5.1/extensions/atmel/avrgcc/3.3.1.27/avrtoolchain/bin/../lib/gcc/avr32/4.4.3/ucr2\libgcc.a(_avr32_f64_div.o)
                              main_app.o (__avr32_f64_div)
c:/program files (x86)/atmel/avr studio 5.1/extensions/atmel/avrgcc/3.3.1.27/avrtoolchain/bin/../lib/gcc/avr32/4.4.3/ucr2\libgcc.a(_avr32_f32_div.o)
                              main_app.o (__avr32_f32_div)
c:/program files (x86)/atmel/avr studio 5.1/extensions/atmel/avrgcc/3.3.1.27/avrtoolchain/bin/../lib/gcc/avr32/4.4.3/ucr2\libgcc.a(_avr32_f32_addsub.o)
                              terminal/usb/usb.o (__avr32_f32_add)
c:/program files (x86)/atmel/avr studio 5.1/extensions/atmel/avrgcc/3.3.1.27/avrtoolchain/bin/../lib/gcc/avr32/4.4.3/ucr2\libgcc.a(_avr32_f32_mul.o)
                              terminal/usb/usb.o (__avr32_f32_mul)
c:/program files (x86)/atmel/avr studio 5.1/extensions/atmel/avrgcc/3.3.1.27/avrtoolchain/bin/../lib/gcc/avr32/4.4.3/ucr2\libgcc.a(_avr32_s32_to_f32.o)
                              main_app.o (__avr32_s32_to_f32)
c:/program files (x86)/atmel/avr studio 5.1/extensions/atmel/avrgcc/3.3.1.27/avrtoolchain/bin/../lib/gcc/avr32/4.4.3/ucr2\libgcc.a(_avr32_u32_to_f32.o)
                              main_app.o (__avr32_u32_to_f32)
c:/program files (x86)/atmel/avr studio 5.1/extensions/atmel/avrgcc/3.3.1.27/avrtoolchain/bin/../lib/gcc/avr32/4.4.3/ucr2\libgcc.a(_avr32_f32_to_f64.o)
                              main_app.o (__avr32_f32_to_f64)
c:/program files (x86)/atmel/avr studio 5.1/extensions/atmel/avrgcc/3.3.1.27/avrtoolchain/bin/../lib/gcc/avr32/4.4.3/ucr2\libgcc.a(_udivdi3.o)
                              AVR32_LIBS/DRIVERS/WDT/wdt.o (__avr32_udiv64)
c:/program files (x86)/atmel/avr studio 5.1/extensions/atmel/avrgcc/3.3.1.27/avrtoolchain/bin/../lib/gcc/avr32/4.4.3/../../../../avr32/lib/ucr2\libc.a(lib_a-atexit.o)
                              c:/program files (x86)/atmel/avr studio 5.1/extensions/atmel/avrgcc/3.3.1.27/avrtoolchain/bin/../lib/gcc/avr32/4.4.3/../../../../avr32/lib/ucr2/crt0.o (atexit)
c:/program files (x86)/atmel/avr studio 5.1/extensions/atmel/avrgcc/3.3.1.27/avrtoolchain/bin/../lib/gcc/avr32/4.4.3/../../../../avr32/lib/ucr2\libc.a(lib_a-atoi.o)
                              terminal/usb/usb.o (atoi)
c:/program files (x86)/atmel/avr studio 5.1/extensions/atmel/avrgcc/3.3.1.27/avrtoolchain/bin/../lib/gcc/avr32/4.4.3/../../../../avr32/lib/ucr2\libc.a(lib_a-errno.o)
                              ../AVR32_LIBS/UTILS/LIBS/NEWLIB_ADDONS/AT32UCR2\libnewlib_addons-at32ucr2-speed_opt.a(syscalls.o) (__errno)
c:/program files (x86)/atmel/avr studio 5.1/extensions/atmel/avrgcc/3.3.1.27/avrtoolchain/bin/../lib/gcc/avr32/4.4.3/../../../../avr32/lib/ucr2\libc.a(lib_a-exit.o)
                              c:/program files (x86)/atmel/avr studio 5.1/extensions/atmel/avrgcc/3.3.1.27/avrtoolchain/bin/../lib/gcc/avr32/4.4.3/../../../../avr32/lib/ucr2/crt0.o (exit)
c:/program files (x86)/atmel/avr studio 5.1/extensions/atmel/avrgcc/3.3.1.27/avrtoolchain/bin/../lib/gcc/avr32/4.4.3/../../../../avr32/lib/ucr2\libc.a(lib_a-fflush.o)
                              ../AVR32_LIBS/UTILS/LIBS/NEWLIB_ADDONS/AT32UCR2\libnewlib_addons-at32ucr2-speed_opt.a(syscalls.o) (fflush)
c:/program files (x86)/atmel/avr studio 5.1/extensions/atmel/avrgcc/3.3.1.27/avrtoolchain/bin/../lib/gcc/avr32/4.4.3/../../../../avr32/lib/ucr2\libc.a(lib_a-findfp.o)
                              c:/program files (x86)/atmel/avr studio 5.1/extensions/atmel/avrgcc/3.3.1.27/avrtoolchain/bin/../lib/gcc/avr32/4.4.3/../../../../avr32/lib/ucr2\libc.a(lib_a-fflush.o) (__sinit)
c:/program files (x86)/atmel/avr studio 5.1/extensions/atmel/avrgcc/3.3.1.27/avrtoolchain/bin/../lib/gcc/avr32/4.4.3/../../../../avr32/lib/ucr2\libc.a(lib_a-fwalk.o)
                              c:/program files (x86)/atmel/avr studio 5.1/extensions/atmel/avrgcc/3.3.1.27/avrtoolchain/bin/../lib/gcc/avr32/4.4.3/../../../../avr32/lib/ucr2\libc.a(lib_a-fflush.o) (_fwalk_reent)
c:/program files (x86)/atmel/avr studio 5.1/extensions/atmel/avrgcc/3.3.1.27/avrtoolchain/bin/../lib/gcc/avr32/4.4.3/../../../../avr32/lib/ucr2\libc.a(lib_a-impure.o)
                              ../AVR32_LIBS/UTILS/LIBS/NEWLIB_ADDONS/AT32UCR2\libnewlib_addons-at32ucr2-speed_opt.a(syscalls.o) (_impure_ptr)
c:/program files (x86)/atmel/avr studio 5.1/extensions/atmel/avrgcc/3.3.1.27/avrtoolchain/bin/../lib/gcc/avr32/4.4.3/../../../../avr32/lib/ucr2\libc.a(lib_a-malloc.o)
                              AVR32_LIBS/SERVICES/FREERTOS/Source/portable/MemMang/heap_3.o (free)
c:/program files (x86)/atmel/avr studio 5.1/extensions/atmel/avrgcc/3.3.1.27/avrtoolchain/bin/../lib/gcc/avr32/4.4.3/../../../../avr32/lib/ucr2\libc.a(lib_a-mallocr.o)
                              c:/program files (x86)/atmel/avr studio 5.1/extensions/atmel/avrgcc/3.3.1.27/avrtoolchain/bin/../lib/gcc/avr32/4.4.3/../../../../avr32/lib/ucr2\libc.a(lib_a-findfp.o) (_malloc_r)
c:/program files (x86)/atmel/avr studio 5.1/extensions/atmel/avrgcc/3.3.1.27/avrtoolchain/bin/../lib/gcc/avr32/4.4.3/../../../../avr32/lib/ucr2\libc.a(lib_a-memcpy.o)
                              AVR32_LIBS/SERVICES/FREERTOS/Source/queue.o (memcpy)
c:/program files (x86)/atmel/avr studio 5.1/extensions/atmel/avrgcc/3.3.1.27/avrtoolchain/bin/../lib/gcc/avr32/4.4.3/../../../../avr32/lib/ucr2\libc.a(lib_a-memset.o)
                              AVR32_LIBS/SERVICES/FREERTOS/Source/tasks.o (memset)
c:/program files (x86)/atmel/avr studio 5.1/extensions/atmel/avrgcc/3.3.1.27/avrtoolchain/bin/../lib/gcc/avr32/4.4.3/../../../../avr32/lib/ucr2\libc.a(lib_a-printf.o)
                              ../AVR32_LIBS/UTILS/LIBS/NEWLIB_ADDONS/AT32UCR2\libnewlib_addons-at32ucr2-speed_opt.a(syscalls.o) (printf)
c:/program files (x86)/atmel/avr studio 5.1/extensions/atmel/avrgcc/3.3.1.27/avrtoolchain/bin/../lib/gcc/avr32/4.4.3/../../../../avr32/lib/ucr2\libc.a(lib_a-putchar.o)
                              terminal/printf-stdarg.o (putchar)
c:/program files (x86)/atmel/avr studio 5.1/extensions/atmel/avrgcc/3.3.1.27/avrtoolchain/bin/../lib/gcc/avr32/4.4.3/../../../../avr32/lib/ucr2\libc.a(lib_a-putc.o)
                              c:/program files (x86)/atmel/avr studio 5.1/extensions/atmel/avrgcc/3.3.1.27/avrtoolchain/bin/../lib/gcc/avr32/4.4.3/../../../../avr32/lib/ucr2\libc.a(lib_a-putchar.o) (_putc_r)
c:/program files (x86)/atmel/avr studio 5.1/extensions/atmel/avrgcc/3.3.1.27/avrtoolchain/bin/../lib/gcc/avr32/4.4.3/../../../../avr32/lib/ucr2\libc.a(lib_a-rand.o)
                              AVR32_LIBS/COMPONENTS/AT86RF231/at86rf231.o (rand)
c:/program files (x86)/atmel/avr studio 5.1/extensions/atmel/avrgcc/3.3.1.27/avrtoolchain/bin/../lib/gcc/avr32/4.4.3/../../../../avr32/lib/ucr2\libc.a(lib_a-realloc.o)
                              AVR32_LIBS/SERVICES/FREERTOS/Source/portable/GCC/AVR32_UC3/port.o (realloc)
c:/program files (x86)/atmel/avr studio 5.1/extensions/atmel/avrgcc/3.3.1.27/avrtoolchain/bin/../lib/gcc/avr32/4.4.3/../../../../avr32/lib/ucr2\libc.a(lib_a-reallocr.o)
                              c:/program files (x86)/atmel/avr studio 5.1/extensions/atmel/avrgcc/3.3.1.27/avrtoolchain/bin/../lib/gcc/avr32/4.4.3/../../../../avr32/lib/ucr2\libc.a(lib_a-realloc.o) (_realloc_r)
c:/program files (x86)/atmel/avr studio 5.1/extensions/atmel/avrgcc/3.3.1.27/avrtoolchain/bin/../lib/gcc/avr32/4.4.3/../../../../avr32/lib/ucr2\libc.a(lib_a-sbrkr.o)
                              c:/program files (x86)/atmel/avr studio 5.1/extensions/atmel/avrgcc/3.3.1.27/avrtoolchain/bin/../lib/gcc/avr32/4.4.3/../../../../avr32/lib/ucr2\libc.a(lib_a-mallocr.o) (_sbrk_r)
c:/program files (x86)/atmel/avr studio 5.1/extensions/atmel/avrgcc/3.3.1.27/avrtoolchain/bin/../lib/gcc/avr32/4.4.3/../../../../avr32/lib/ucr2\libc.a(lib_a-sprintf.o)
                              AVR32_LIBS/SERVICES/FREERTOS/Source/tasks.o (sprintf)
c:/program files (x86)/atmel/avr studio 5.1/extensions/atmel/avrgcc/3.3.1.27/avrtoolchain/bin/../lib/gcc/avr32/4.4.3/../../../../avr32/lib/ucr2\libc.a(lib_a-sscanf.o)
                              terminal/usb/usb.o (sscanf)
c:/program files (x86)/atmel/avr studio 5.1/extensions/atmel/avrgcc/3.3.1.27/avrtoolchain/bin/../lib/gcc/avr32/4.4.3/../../../../avr32/lib/ucr2\libc.a(lib_a-stdio.o)
                              c:/program files (x86)/atmel/avr studio 5.1/extensions/atmel/avrgcc/3.3.1.27/avrtoolchain/bin/../lib/gcc/avr32/4.4.3/../../../../avr32/lib/ucr2\libc.a(lib_a-findfp.o) (__sclose)
c:/program files (x86)/atmel/avr studio 5.1/extensions/atmel/avrgcc/3.3.1.27/avrtoolchain/bin/../lib/gcc/avr32/4.4.3/../../../../avr32/lib/ucr2\libc.a(lib_a-strcat.o)
                              AVR32_LIBS/SERVICES/FREERTOS/Source/tasks.o (strcat)
c:/program files (x86)/atmel/avr studio 5.1/extensions/atmel/avrgcc/3.3.1.27/avrtoolchain/bin/../lib/gcc/avr32/4.4.3/../../../../avr32/lib/ucr2\libc.a(lib_a-strlen.o)
                              AVR32_LIBS/SERVICES/FREERTOS/Source/tasks.o (strlen)
c:/program files (x86)/atmel/avr studio 5.1/extensions/atmel/avrgcc/3.3.1.27/avrtoolchain/bin/../lib/gcc/avr32/4.4.3/../../../../avr32/lib/ucr2\libc.a(lib_a-strncpy.o)
                              AVR32_LIBS/SERVICES/FREERTOS/Source/tasks.o (strncpy)
c:/program files (x86)/atmel/avr studio 5.1/extensions/atmel/avrgcc/3.3.1.27/avrtoolchain/bin/../lib/gcc/avr32/4.4.3/../../../../avr32/lib/ucr2\libc.a(lib_a-strtol.o)
                              c:/program files (x86)/atmel/avr studio 5.1/extensions/atmel/avrgcc/3.3.1.27/avrtoolchain/bin/../lib/gcc/avr32/4.4.3/../../../../avr32/lib/ucr2\libc.a(lib_a-atoi.o) (_strtol_r)
c:/program files (x86)/atmel/avr studio 5.1/extensions/atmel/avrgcc/3.3.1.27/avrtoolchain/bin/../lib/gcc/avr32/4.4.3/../../../../avr32/lib/ucr2\libc.a(lib_a-vfprintf.o)
                              c:/program files (x86)/atmel/avr studio 5.1/extensions/atmel/avrgcc/3.3.1.27/avrtoolchain/bin/../lib/gcc/avr32/4.4.3/../../../../avr32/lib/ucr2\libc.a(lib_a-printf.o) (_vfprintf_r)
c:/program files (x86)/atmel/avr studio 5.1/extensions/atmel/avrgcc/3.3.1.27/avrtoolchain/bin/../lib/gcc/avr32/4.4.3/../../../../avr32/lib/ucr2\libc.a(lib_a-vfscanf.o)
                              c:/program files (x86)/atmel/avr studio 5.1/extensions/atmel/avrgcc/3.3.1.27/avrtoolchain/bin/../lib/gcc/avr32/4.4.3/../../../../avr32/lib/ucr2\libc.a(lib_a-sscanf.o) (__svfscanf_r)
c:/program files (x86)/atmel/avr studio 5.1/extensions/atmel/avrgcc/3.3.1.27/avrtoolchain/bin/../lib/gcc/avr32/4.4.3/../../../../avr32/lib/ucr2\libc.a(lib_a-vsprintf.o)
                              terminal/usb/usb.o (vsprintf)
c:/program files (x86)/atmel/avr studio 5.1/extensions/atmel/avrgcc/3.3.1.27/avrtoolchain/bin/../lib/gcc/avr32/4.4.3/../../../../avr32/lib/ucr2\libc.a(lib_a-wbuf.o)
                              c:/program files (x86)/atmel/avr studio 5.1/extensions/atmel/avrgcc/3.3.1.27/avrtoolchain/bin/../lib/gcc/avr32/4.4.3/../../../../avr32/lib/ucr2\libc.a(lib_a-putc.o) (__swbuf_r)
c:/program files (x86)/atmel/avr studio 5.1/extensions/atmel/avrgcc/3.3.1.27/avrtoolchain/bin/../lib/gcc/avr32/4.4.3/../../../../avr32/lib/ucr2\libc.a(lib_a-writer.o)
                              c:/program files (x86)/atmel/avr studio 5.1/extensions/atmel/avrgcc/3.3.1.27/avrtoolchain/bin/../lib/gcc/avr32/4.4.3/../../../../avr32/lib/ucr2\libc.a(lib_a-stdio.o) (_write_r)
c:/program files (x86)/atmel/avr studio 5.1/extensions/atmel/avrgcc/3.3.1.27/avrtoolchain/bin/../lib/gcc/avr32/4.4.3/../../../../avr32/lib/ucr2\libc.a(lib_a-wsetup.o)
                              c:/program files (x86)/atmel/avr studio 5.1/extensions/atmel/avrgcc/3.3.1.27/avrtoolchain/bin/../lib/gcc/avr32/4.4.3/../../../../avr32/lib/ucr2\libc.a(lib_a-vfprintf.o) (__swsetup_r)
c:/program files (x86)/atmel/avr studio 5.1/extensions/atmel/avrgcc/3.3.1.27/avrtoolchain/bin/../lib/gcc/avr32/4.4.3/../../../../avr32/lib/ucr2\libc.a(lib_a-__atexit.o)
                              c:/program files (x86)/atmel/avr studio 5.1/extensions/atmel/avrgcc/3.3.1.27/avrtoolchain/bin/../lib/gcc/avr32/4.4.3/../../../../avr32/lib/ucr2\libc.a(lib_a-atexit.o) (__register_exitproc)
c:/program files (x86)/atmel/avr studio 5.1/extensions/atmel/avrgcc/3.3.1.27/avrtoolchain/bin/../lib/gcc/avr32/4.4.3/../../../../avr32/lib/ucr2\libc.a(lib_a-__call_atexit.o)
                              c:/program files (x86)/atmel/avr studio 5.1/extensions/atmel/avrgcc/3.3.1.27/avrtoolchain/bin/../lib/gcc/avr32/4.4.3/../../../../avr32/lib/ucr2\libc.a(lib_a-exit.o) (__call_exitprocs)
c:/program files (x86)/atmel/avr studio 5.1/extensions/atmel/avrgcc/3.3.1.27/avrtoolchain/bin/../lib/gcc/avr32/4.4.3/../../../../avr32/lib/ucr2\libc.a(lib_a-closer.o)
                              c:/program files (x86)/atmel/avr studio 5.1/extensions/atmel/avrgcc/3.3.1.27/avrtoolchain/bin/../lib/gcc/avr32/4.4.3/../../../../avr32/lib/ucr2\libc.a(lib_a-stdio.o) (_close_r)
c:/program files (x86)/atmel/avr studio 5.1/extensions/atmel/avrgcc/3.3.1.27/avrtoolchain/bin/../lib/gcc/avr32/4.4.3/../../../../avr32/lib/ucr2\libc.a(lib_a-ctype_.o)
                              c:/program files (x86)/atmel/avr studio 5.1/extensions/atmel/avrgcc/3.3.1.27/avrtoolchain/bin/../lib/gcc/avr32/4.4.3/../../../../avr32/lib/ucr2\libc.a(lib_a-strtol.o) (__ctype_ptr)
c:/program files (x86)/atmel/avr studio 5.1/extensions/atmel/avrgcc/3.3.1.27/avrtoolchain/bin/../lib/gcc/avr32/4.4.3/../../../../avr32/lib/ucr2\libc.a(lib_a-dtoa.o)
                              c:/program files (x86)/atmel/avr studio 5.1/extensions/atmel/avrgcc/3.3.1.27/avrtoolchain/bin/../lib/gcc/avr32/4.4.3/../../../../avr32/lib/ucr2\libc.a(lib_a-vfprintf.o) (_dtoa_r)
c:/program files (x86)/atmel/avr studio 5.1/extensions/atmel/avrgcc/3.3.1.27/avrtoolchain/bin/../lib/gcc/avr32/4.4.3/../../../../avr32/lib/ucr2\libc.a(lib_a-fclose.o)
                              c:/program files (x86)/atmel/avr studio 5.1/extensions/atmel/avrgcc/3.3.1.27/avrtoolchain/bin/../lib/gcc/avr32/4.4.3/../../../../avr32/lib/ucr2\libc.a(lib_a-findfp.o) (fclose)
c:/program files (x86)/atmel/avr studio 5.1/extensions/atmel/avrgcc/3.3.1.27/avrtoolchain/bin/../lib/gcc/avr32/4.4.3/../../../../avr32/lib/ucr2\libc.a(lib_a-fread.o)
                              c:/program files (x86)/atmel/avr studio 5.1/extensions/atmel/avrgcc/3.3.1.27/avrtoolchain/bin/../lib/gcc/avr32/4.4.3/../../../../avr32/lib/ucr2\libc.a(lib_a-vfscanf.o) (fread)
c:/program files (x86)/atmel/avr studio 5.1/extensions/atmel/avrgcc/3.3.1.27/avrtoolchain/bin/../lib/gcc/avr32/4.4.3/../../../../avr32/lib/ucr2\libc.a(lib_a-freer.o)
                              c:/program files (x86)/atmel/avr studio 5.1/extensions/atmel/avrgcc/3.3.1.27/avrtoolchain/bin/../lib/gcc/avr32/4.4.3/../../../../avr32/lib/ucr2\libc.a(lib_a-malloc.o) (_free_r)
c:/program files (x86)/atmel/avr studio 5.1/extensions/atmel/avrgcc/3.3.1.27/avrtoolchain/bin/../lib/gcc/avr32/4.4.3/../../../../avr32/lib/ucr2\libc.a(lib_a-fvwrite.o)
                              c:/program files (x86)/atmel/avr studio 5.1/extensions/atmel/avrgcc/3.3.1.27/avrtoolchain/bin/../lib/gcc/avr32/4.4.3/../../../../avr32/lib/ucr2\libc.a(lib_a-vfprintf.o) (__sfvwrite_r)
c:/program files (x86)/atmel/avr studio 5.1/extensions/atmel/avrgcc/3.3.1.27/avrtoolchain/bin/../lib/gcc/avr32/4.4.3/../../../../avr32/lib/ucr2\libc.a(lib_a-iswspace.o)
                              c:/program files (x86)/atmel/avr studio 5.1/extensions/atmel/avrgcc/3.3.1.27/avrtoolchain/bin/../lib/gcc/avr32/4.4.3/../../../../avr32/lib/ucr2\libc.a(lib_a-vfscanf.o) (iswspace)
c:/program files (x86)/atmel/avr studio 5.1/extensions/atmel/avrgcc/3.3.1.27/avrtoolchain/bin/../lib/gcc/avr32/4.4.3/../../../../avr32/lib/ucr2\libc.a(lib_a-locale.o)
                              c:/program files (x86)/atmel/avr studio 5.1/extensions/atmel/avrgcc/3.3.1.27/avrtoolchain/bin/../lib/gcc/avr32/4.4.3/../../../../avr32/lib/ucr2\libc.a(lib_a-vfprintf.o) (_localeconv_r)
c:/program files (x86)/atmel/avr studio 5.1/extensions/atmel/avrgcc/3.3.1.27/avrtoolchain/bin/../lib/gcc/avr32/4.4.3/../../../../avr32/lib/ucr2\libc.a(lib_a-lseekr.o)
                              c:/program files (x86)/atmel/avr studio 5.1/extensions/atmel/avrgcc/3.3.1.27/avrtoolchain/bin/../lib/gcc/avr32/4.4.3/../../../../avr32/lib/ucr2\libc.a(lib_a-stdio.o) (_lseek_r)
c:/program files (x86)/atmel/avr studio 5.1/extensions/atmel/avrgcc/3.3.1.27/avrtoolchain/bin/../lib/gcc/avr32/4.4.3/../../../../avr32/lib/ucr2\libc.a(lib_a-makebuf.o)
                              c:/program files (x86)/atmel/avr studio 5.1/extensions/atmel/avrgcc/3.3.1.27/avrtoolchain/bin/../lib/gcc/avr32/4.4.3/../../../../avr32/lib/ucr2\libc.a(lib_a-wsetup.o) (__smakebuf_r)
c:/program files (x86)/atmel/avr studio 5.1/extensions/atmel/avrgcc/3.3.1.27/avrtoolchain/bin/../lib/gcc/avr32/4.4.3/../../../../avr32/lib/ucr2\libc.a(lib_a-mbrtowc.o)
                              c:/program files (x86)/atmel/avr studio 5.1/extensions/atmel/avrgcc/3.3.1.27/avrtoolchain/bin/../lib/gcc/avr32/4.4.3/../../../../avr32/lib/ucr2\libc.a(lib_a-vfscanf.o) (_mbrtowc_r)
c:/program files (x86)/atmel/avr studio 5.1/extensions/atmel/avrgcc/3.3.1.27/avrtoolchain/bin/../lib/gcc/avr32/4.4.3/../../../../avr32/lib/ucr2\libc.a(lib_a-mbtowc_r.o)
                              c:/program files (x86)/atmel/avr studio 5.1/extensions/atmel/avrgcc/3.3.1.27/avrtoolchain/bin/../lib/gcc/avr32/4.4.3/../../../../avr32/lib/ucr2\libc.a(lib_a-mbrtowc.o) (_mbtowc_r)
c:/program files (x86)/atmel/avr studio 5.1/extensions/atmel/avrgcc/3.3.1.27/avrtoolchain/bin/../lib/gcc/avr32/4.4.3/../../../../avr32/lib/ucr2\libc.a(lib_a-memchr.o)
                              c:/program files (x86)/atmel/avr studio 5.1/extensions/atmel/avrgcc/3.3.1.27/avrtoolchain/bin/../lib/gcc/avr32/4.4.3/../../../../avr32/lib/ucr2\libc.a(lib_a-vfprintf.o) (memchr)
c:/program files (x86)/atmel/avr studio 5.1/extensions/atmel/avrgcc/3.3.1.27/avrtoolchain/bin/../lib/gcc/avr32/4.4.3/../../../../avr32/lib/ucr2\libc.a(lib_a-memmove.o)
                              c:/program files (x86)/atmel/avr studio 5.1/extensions/atmel/avrgcc/3.3.1.27/avrtoolchain/bin/../lib/gcc/avr32/4.4.3/../../../../avr32/lib/ucr2\libc.a(lib_a-reallocr.o) (memmove)
c:/program files (x86)/atmel/avr studio 5.1/extensions/atmel/avrgcc/3.3.1.27/avrtoolchain/bin/../lib/gcc/avr32/4.4.3/../../../../avr32/lib/ucr2\libc.a(lib_a-mprec.o)
                              c:/program files (x86)/atmel/avr studio 5.1/extensions/atmel/avrgcc/3.3.1.27/avrtoolchain/bin/../lib/gcc/avr32/4.4.3/../../../../avr32/lib/ucr2\libc.a(lib_a-dtoa.o) (__hi0bits)
c:/program files (x86)/atmel/avr studio 5.1/extensions/atmel/avrgcc/3.3.1.27/avrtoolchain/bin/../lib/gcc/avr32/4.4.3/../../../../avr32/lib/ucr2\libc.a(lib_a-readr.o)
                              c:/program files (x86)/atmel/avr studio 5.1/extensions/atmel/avrgcc/3.3.1.27/avrtoolchain/bin/../lib/gcc/avr32/4.4.3/../../../../avr32/lib/ucr2\libc.a(lib_a-stdio.o) (_read_r)
c:/program files (x86)/atmel/avr studio 5.1/extensions/atmel/avrgcc/3.3.1.27/avrtoolchain/bin/../lib/gcc/avr32/4.4.3/../../../../avr32/lib/ucr2\libc.a(lib_a-reent.o)
                              c:/program files (x86)/atmel/avr studio 5.1/extensions/atmel/avrgcc/3.3.1.27/avrtoolchain/bin/../lib/gcc/avr32/4.4.3/../../../../avr32/lib/ucr2\libc.a(lib_a-sbrkr.o) (errno)
c:/program files (x86)/atmel/avr studio 5.1/extensions/atmel/avrgcc/3.3.1.27/avrtoolchain/bin/../lib/gcc/avr32/4.4.3/../../../../avr32/lib/ucr2\libc.a(lib_a-refill.o)
                              c:/program files (x86)/atmel/avr studio 5.1/extensions/atmel/avrgcc/3.3.1.27/avrtoolchain/bin/../lib/gcc/avr32/4.4.3/../../../../avr32/lib/ucr2\libc.a(lib_a-vfscanf.o) (__srefill_r)
c:/program files (x86)/atmel/avr studio 5.1/extensions/atmel/avrgcc/3.3.1.27/avrtoolchain/bin/../lib/gcc/avr32/4.4.3/../../../../avr32/lib/ucr2\libc.a(lib_a-sccl.o)
                              c:/program files (x86)/atmel/avr studio 5.1/extensions/atmel/avrgcc/3.3.1.27/avrtoolchain/bin/../lib/gcc/avr32/4.4.3/../../../../avr32/lib/ucr2\libc.a(lib_a-vfscanf.o) (__sccl)
c:/program files (x86)/atmel/avr studio 5.1/extensions/atmel/avrgcc/3.3.1.27/avrtoolchain/bin/../lib/gcc/avr32/4.4.3/../../../../avr32/lib/ucr2\libc.a(lib_a-sf_nan.o)
                              c:/program files (x86)/atmel/avr studio 5.1/extensions/atmel/avrgcc/3.3.1.27/avrtoolchain/bin/../lib/gcc/avr32/4.4.3/../../../../avr32/lib/ucr2\libc.a(lib_a-vfscanf.o) (nanf)
c:/program files (x86)/atmel/avr studio 5.1/extensions/atmel/avrgcc/3.3.1.27/avrtoolchain/bin/../lib/gcc/avr32/4.4.3/../../../../avr32/lib/ucr2\libc.a(lib_a-s_isinfd.o)
                              c:/program files (x86)/atmel/avr studio 5.1/extensions/atmel/avrgcc/3.3.1.27/avrtoolchain/bin/../lib/gcc/avr32/4.4.3/../../../../avr32/lib/ucr2\libc.a(lib_a-vfprintf.o) (__isinfd)
c:/program files (x86)/atmel/avr studio 5.1/extensions/atmel/avrgcc/3.3.1.27/avrtoolchain/bin/../lib/gcc/avr32/4.4.3/../../../../avr32/lib/ucr2\libc.a(lib_a-s_isnand.o)
                              c:/program files (x86)/atmel/avr studio 5.1/extensions/atmel/avrgcc/3.3.1.27/avrtoolchain/bin/../lib/gcc/avr32/4.4.3/../../../../avr32/lib/ucr2\libc.a(lib_a-vfprintf.o) (__isnand)
c:/program files (x86)/atmel/avr studio 5.1/extensions/atmel/avrgcc/3.3.1.27/avrtoolchain/bin/../lib/gcc/avr32/4.4.3/../../../../avr32/lib/ucr2\libc.a(lib_a-strcmp.o)
                              c:/program files (x86)/atmel/avr studio 5.1/extensions/atmel/avrgcc/3.3.1.27/avrtoolchain/bin/../lib/gcc/avr32/4.4.3/../../../../avr32/lib/ucr2\libc.a(lib_a-locale.o) (strcmp)
c:/program files (x86)/atmel/avr studio 5.1/extensions/atmel/avrgcc/3.3.1.27/avrtoolchain/bin/../lib/gcc/avr32/4.4.3/../../../../avr32/lib/ucr2\libc.a(lib_a-strtod.o)
                              c:/program files (x86)/atmel/avr studio 5.1/extensions/atmel/avrgcc/3.3.1.27/avrtoolchain/bin/../lib/gcc/avr32/4.4.3/../../../../avr32/lib/ucr2\libc.a(lib_a-vfscanf.o) (_strtod_r)
c:/program files (x86)/atmel/avr studio 5.1/extensions/atmel/avrgcc/3.3.1.27/avrtoolchain/bin/../lib/gcc/avr32/4.4.3/../../../../avr32/lib/ucr2\libc.a(lib_a-strtoll_r.o)
                              c:/program files (x86)/atmel/avr studio 5.1/extensions/atmel/avrgcc/3.3.1.27/avrtoolchain/bin/../lib/gcc/avr32/4.4.3/../../../../avr32/lib/ucr2\libc.a(lib_a-vfscanf.o) (_strtoll_r)
c:/program files (x86)/atmel/avr studio 5.1/extensions/atmel/avrgcc/3.3.1.27/avrtoolchain/bin/../lib/gcc/avr32/4.4.3/../../../../avr32/lib/ucr2\libc.a(lib_a-strtoull_r.o)
                              c:/program files (x86)/atmel/avr studio 5.1/extensions/atmel/avrgcc/3.3.1.27/avrtoolchain/bin/../lib/gcc/avr32/4.4.3/../../../../avr32/lib/ucr2\libc.a(lib_a-vfscanf.o) (_strtoull_r)
c:/program files (x86)/atmel/avr studio 5.1/extensions/atmel/avrgcc/3.3.1.27/avrtoolchain/bin/../lib/gcc/avr32/4.4.3/../../../../avr32/lib/ucr2\libc.a(lib_a-strtoul.o)
                              c:/program files (x86)/atmel/avr studio 5.1/extensions/atmel/avrgcc/3.3.1.27/avrtoolchain/bin/../lib/gcc/avr32/4.4.3/../../../../avr32/lib/ucr2\libc.a(lib_a-vfscanf.o) (_strtoul_r)
c:/program files (x86)/atmel/avr studio 5.1/extensions/atmel/avrgcc/3.3.1.27/avrtoolchain/bin/../lib/gcc/avr32/4.4.3/../../../../avr32/lib/ucr2\libc.a(lib_a-ungetc.o)
                              c:/program files (x86)/atmel/avr studio 5.1/extensions/atmel/avrgcc/3.3.1.27/avrtoolchain/bin/../lib/gcc/avr32/4.4.3/../../../../avr32/lib/ucr2\libc.a(lib_a-vfscanf.o) (_ungetc_r)
c:/program files (x86)/atmel/avr studio 5.1/extensions/atmel/avrgcc/3.3.1.27/avrtoolchain/bin/../lib/gcc/avr32/4.4.3/../../../../avr32/lib/ucr2\libc.a(lib_a-callocr.o)
                              c:/program files (x86)/atmel/avr studio 5.1/extensions/atmel/avrgcc/3.3.1.27/avrtoolchain/bin/../lib/gcc/avr32/4.4.3/../../../../avr32/lib/ucr2\libc.a(lib_a-mprec.o) (_calloc_r)
c:/program files (x86)/atmel/avr studio 5.1/extensions/atmel/avrgcc/3.3.1.27/avrtoolchain/bin/../lib/gcc/avr32/4.4.3/../../../../avr32/lib/ucr2\libc.a(lib_a-fstatr.o)
                              c:/program files (x86)/atmel/avr studio 5.1/extensions/atmel/avrgcc/3.3.1.27/avrtoolchain/bin/../lib/gcc/avr32/4.4.3/../../../../avr32/lib/ucr2\libc.a(lib_a-makebuf.o) (_fstat_r)
c:/program files (x86)/atmel/avr studio 5.1/extensions/atmel/avrgcc/3.3.1.27/avrtoolchain/bin/../lib/gcc/avr32/4.4.3/../../../../avr32/lib/ucr2\libc.a(lib_a-gdtoa-gethex.o)
                              c:/program files (x86)/atmel/avr studio 5.1/extensions/atmel/avrgcc/3.3.1.27/avrtoolchain/bin/../lib/gcc/avr32/4.4.3/../../../../avr32/lib/ucr2\libc.a(lib_a-strtod.o) (__gethex)
c:/program files (x86)/atmel/avr studio 5.1/extensions/atmel/avrgcc/3.3.1.27/avrtoolchain/bin/../lib/gcc/avr32/4.4.3/../../../../avr32/lib/ucr2\libc.a(lib_a-gdtoa-hexnan.o)
                              c:/program files (x86)/atmel/avr studio 5.1/extensions/atmel/avrgcc/3.3.1.27/avrtoolchain/bin/../lib/gcc/avr32/4.4.3/../../../../avr32/lib/ucr2\libc.a(lib_a-strtod.o) (__hexnan)
c:/program files (x86)/atmel/avr studio 5.1/extensions/atmel/avrgcc/3.3.1.27/avrtoolchain/bin/../lib/gcc/avr32/4.4.3/ucr2\libgcc.a(_avr32_f64_cmp_eq.o)
                              c:/program files (x86)/atmel/avr studio 5.1/extensions/atmel/avrgcc/3.3.1.27/avrtoolchain/bin/../lib/gcc/avr32/4.4.3/../../../../avr32/lib/ucr2\libc.a(lib_a-vfprintf.o) (__avr32_f64_cmp_eq)
c:/program files (x86)/atmel/avr studio 5.1/extensions/atmel/avrgcc/3.3.1.27/avrtoolchain/bin/../lib/gcc/avr32/4.4.3/ucr2\libgcc.a(_avr32_f64_cmp_ge.o)
                              c:/program files (x86)/atmel/avr studio 5.1/extensions/atmel/avrgcc/3.3.1.27/avrtoolchain/bin/../lib/gcc/avr32/4.4.3/../../../../avr32/lib/ucr2\libc.a(lib_a-dtoa.o) (__avr32_f64_cmp_ge)
c:/program files (x86)/atmel/avr studio 5.1/extensions/atmel/avrgcc/3.3.1.27/avrtoolchain/bin/../lib/gcc/avr32/4.4.3/ucr2\libgcc.a(_avr32_f64_to_f32.o)
                              c:/program files (x86)/atmel/avr studio 5.1/extensions/atmel/avrgcc/3.3.1.27/avrtoolchain/bin/../lib/gcc/avr32/4.4.3/../../../../avr32/lib/ucr2\libc.a(lib_a-vfscanf.o) (__avr32_f64_to_f32)
c:/program files (x86)/atmel/avr studio 5.1/extensions/atmel/avrgcc/3.3.1.27/avrtoolchain/bin/../lib/gcc/avr32/4.4.3/ucr2\libgcc.a(_umoddi3.o)
                              c:/program files (x86)/atmel/avr studio 5.1/extensions/atmel/avrgcc/3.3.1.27/avrtoolchain/bin/../lib/gcc/avr32/4.4.3/../../../../avr32/lib/ucr2\libc.a(lib_a-vfprintf.o) (__avr32_umod64)

Allocating common symbols
Common symbol       size              file

fast_usb_string     0x4000            main_app.o
spike_payload_ptr   0x4               main_app.o
errno               0x4               c:/program files (x86)/atmel/avr studio 5.1/extensions/atmel/avrgcc/3.3.1.27/avrtoolchain/bin/../lib/gcc/avr32/4.4.3/../../../../avr32/lib/ucr2\libc.a(lib_a-reent.o)
xHandleUSB          0x4               terminal/usb/usb.o
xHandleCONTROL_tsk  0x4               main_app.o
xHandleCC2          0x4               main_app.o
__hexdig            0x100             c:/program files (x86)/atmel/avr studio 5.1/extensions/atmel/avrgcc/3.3.1.27/avrtoolchain/bin/../lib/gcc/avr32/4.4.3/../../../../avr32/lib/ucr2\libc.a(lib_a-gdtoa-gethex.o)
avg_values          0x7d0             main_app.o
line_coding         0x8               AVR32_LIBS/SERVICES/USB/CLASS/CDC/EXAMPLES/ENUM/DEVICE/usb_specific_request.o
tx_frame            0x87              AVR32_LIBS/COMPONENTS/AT86RF231/at86rf231.o
sof_cnt             0x2               terminal/usb/usb.o
retstatus           0x4               terminal/usb/usb.o
tal_rx_buffer       0x84              AVR32_LIBS/COMPONENTS/AT86RF231/at86rf231.o
xHandleTIMING_tsk   0x4               main_app.o
cChar               0x1               terminal/usb/usb.o
cock_d              0x46              main_app.o
dev_tx_cnt          0x1               AVR32_LIBS/SERVICES/USB/CLASS/CDC/EXAMPLES/uart_usb_lib.o
rx_frame            0x87              AVR32_LIBS/COMPONENTS/AT86RF231/at86rf231.o
tal_tx_buffer       0x84              AVR32_LIBS/COMPONENTS/AT86RF231/at86rf231.o
usb_connected       0x1               AVR32_LIBS/DRIVERS/USBB/ENUM/DEVICE/usb_device_task.o
tal_trx_status      0x1               AVR32_LIBS/COMPONENTS/AT86RF231/at86rf231.o
pep_fifo            0x1c              AVR32_LIBS/DRIVERS/USBB/usb_drv.o
dev_rx_cnt          0x1               AVR32_LIBS/SERVICES/USB/CLASS/CDC/EXAMPLES/uart_usb_lib.o
usb_configuration_nb
                    0x1               AVR32_LIBS/DRIVERS/USBB/ENUM/DEVICE/usb_standard_request.o
data_to_transfer    0x2               AVR32_LIBS/DRIVERS/USBB/ENUM/DEVICE/usb_standard_request.o
nmb_packets         0x1               AVR32_LIBS/SERVICES/USB/CLASS/CDC/EXAMPLES/uart_usb_lib.o
pbuffer             0x4               AVR32_LIBS/DRIVERS/USBB/ENUM/DEVICE/usb_standard_request.o
xSem_radio_receive  0x4               AVR32_LIBS/COMPONENTS/AT86RF231/at86rf231.o
hex_buffer          0x1b8             terminal/usb/usb.o
tal_state           0x1               AVR32_LIBS/COMPONENTS/AT86RF231/pal_trx_access.o
rf231_rec_info      0xb               AVR32_LIBS/COMPONENTS/AT86RF231/at86rf231.o

Discarded input sections

 .data          0x00000000        0x0 c:/program files (x86)/atmel/avr studio 5.1/extensions/atmel/avrgcc/3.3.1.27/avrtoolchain/bin/../lib/gcc/avr32/4.4.3/../../../../avr32/lib/ucr2/crt0.o
 .bss           0x00000000        0x0 c:/program files (x86)/atmel/avr studio 5.1/extensions/atmel/avrgcc/3.3.1.27/avrtoolchain/bin/../lib/gcc/avr32/4.4.3/../../../../avr32/lib/ucr2/crt0.o
 .text          0x00000000        0x0 c:/program files (x86)/atmel/avr studio 5.1/extensions/atmel/avrgcc/3.3.1.27/avrtoolchain/bin/../lib/gcc/avr32/4.4.3/ucr2/crti.o
 .data          0x00000000        0x0 c:/program files (x86)/atmel/avr studio 5.1/extensions/atmel/avrgcc/3.3.1.27/avrtoolchain/bin/../lib/gcc/avr32/4.4.3/ucr2/crti.o
 .bss           0x00000000        0x0 c:/program files (x86)/atmel/avr studio 5.1/extensions/atmel/avrgcc/3.3.1.27/avrtoolchain/bin/../lib/gcc/avr32/4.4.3/ucr2/crti.o
 .data          0x00000000        0x4 c:/program files (x86)/atmel/avr studio 5.1/extensions/atmel/avrgcc/3.3.1.27/avrtoolchain/bin/../lib/gcc/avr32/4.4.3/ucr2/crtbegin.o
 .text          0x00000000       0x18 AVR32_LIBS/COMPONENTS/AD5410/ad5410.o
 .data          0x00000000        0x0 AVR32_LIBS/COMPONENTS/AD5410/ad5410.o
 .bss           0x00000000        0x0 AVR32_LIBS/COMPONENTS/AD5410/ad5410.o
 .text.ad5410_init
                0x00000000      0x158 AVR32_LIBS/COMPONENTS/AD5410/ad5410.o
 .text.ad5410_write
                0x00000000       0x74 AVR32_LIBS/COMPONENTS/AD5410/ad5410.o
 .text.ad5410_read
                0x00000000       0xd4 AVR32_LIBS/COMPONENTS/AD5410/ad5410.o
 .text.ad5410_set_current
                0x00000000       0x60 AVR32_LIBS/COMPONENTS/AD5410/ad5410.o
 .text.ad5410_reset
                0x00000000       0x24 AVR32_LIBS/COMPONENTS/AD5410/ad5410.o
 .text.ad5410_read_status_reg
                0x00000000       0x2c AVR32_LIBS/COMPONENTS/AD5410/ad5410.o
 .text.ad5410_read_data_reg
                0x00000000       0x30 AVR32_LIBS/COMPONENTS/AD5410/ad5410.o
 .text.ad5410_read_control_reg
                0x00000000       0x2c AVR32_LIBS/COMPONENTS/AD5410/ad5410.o
 .data          0x00000000        0x0 AVR32_LIBS/COMPONENTS/AT86RF231/at86rf231.o
 .data          0x00000000        0x0 AVR32_LIBS/COMPONENTS/AT86RF231/pal_trx_access.o
 .text          0x00000000        0x0 AVR32_LIBS/DRIVERS/ADC/adc.o
 .data          0x00000000        0x0 AVR32_LIBS/DRIVERS/ADC/adc.o
 .bss           0x00000000        0x0 AVR32_LIBS/DRIVERS/ADC/adc.o
 .text.adc_configure
                0x00000000       0x36 AVR32_LIBS/DRIVERS/ADC/adc.o
 .text.adc_start
                0x00000000       0x1a AVR32_LIBS/DRIVERS/ADC/adc.o
 .text.adc_enable
                0x00000000       0x2a AVR32_LIBS/DRIVERS/ADC/adc.o
 .text.adc_disable
                0x00000000       0x50 AVR32_LIBS/DRIVERS/ADC/adc.o
 .text.adc_get_status
                0x00000000       0x30 AVR32_LIBS/DRIVERS/ADC/adc.o
 .text.adc_check_eoc
                0x00000000       0x30 AVR32_LIBS/DRIVERS/ADC/adc.o
 .text.adc_check_ovr
                0x00000000       0x32 AVR32_LIBS/DRIVERS/ADC/adc.o
 .text.adc_get_value
                0x00000000       0x4c AVR32_LIBS/DRIVERS/ADC/adc.o
 .text          0x00000000        0x0 AVR32_LIBS/DRIVERS/EIC/eic.o
 .data          0x00000000        0x0 AVR32_LIBS/DRIVERS/EIC/eic.o
 .bss           0x00000000        0x0 AVR32_LIBS/DRIVERS/EIC/eic.o
 .text.eic_enable_lines
                0x00000000       0x20 AVR32_LIBS/DRIVERS/EIC/eic.o
 .text.eic_disable_lines
                0x00000000       0x20 AVR32_LIBS/DRIVERS/EIC/eic.o
 .text.eic_disable_line
                0x00000000       0x28 AVR32_LIBS/DRIVERS/EIC/eic.o
 .text.eic_is_line_enabled
                0x00000000       0x2e AVR32_LIBS/DRIVERS/EIC/eic.o
 .text.eic_enable_interrupt_lines
                0x00000000       0x20 AVR32_LIBS/DRIVERS/EIC/eic.o
 .text.eic_disable_interrupt_lines
                0x00000000       0x50 AVR32_LIBS/DRIVERS/EIC/eic.o
 .text.eic_disable_interrupt_line
                0x00000000       0x58 AVR32_LIBS/DRIVERS/EIC/eic.o
 .text.eic_is_interrupt_line_enabled
                0x00000000       0x2e AVR32_LIBS/DRIVERS/EIC/eic.o
 .text.eic_clear_interrupt_lines
                0x00000000       0x50 AVR32_LIBS/DRIVERS/EIC/eic.o
 .text.eic_is_interrupt_line_pending
                0x00000000       0x2e AVR32_LIBS/DRIVERS/EIC/eic.o
 .text.eic_enable_interrupt_scan
                0x00000000       0x30 AVR32_LIBS/DRIVERS/EIC/eic.o
 .text.eic_disable_interrupt_scan
                0x00000000       0x1a AVR32_LIBS/DRIVERS/EIC/eic.o
 .text.eic_get_interrupt_pad_scan
                0x00000000       0x1c AVR32_LIBS/DRIVERS/EIC/eic.o
 .text.flashc_get_page_count
                0x00000000       0x18 AVR32_LIBS/DRIVERS/FLASHC/flashc.o
 .text.flashc_get_page_count_per_region
                0x00000000       0x18 AVR32_LIBS/DRIVERS/FLASHC/flashc.o
 .text.flashc_get_page_region
                0x00000000       0x3c AVR32_LIBS/DRIVERS/FLASHC/flashc.o
 .text.flashc_get_region_first_page_number
                0x00000000       0x28 AVR32_LIBS/DRIVERS/FLASHC/flashc.o
 .text.flashc_get_wait_state
                0x00000000       0x18 AVR32_LIBS/DRIVERS/FLASHC/flashc.o
 .text.flashc_is_ready_int_enabled
                0x00000000       0x18 AVR32_LIBS/DRIVERS/FLASHC/flashc.o
 .text.flashc_enable_ready_int
                0x00000000       0x4a AVR32_LIBS/DRIVERS/FLASHC/flashc.o
 .text.flashc_is_lock_error_int_enabled
                0x00000000       0x18 AVR32_LIBS/DRIVERS/FLASHC/flashc.o
 .text.flashc_enable_lock_error_int
                0x00000000       0x4a AVR32_LIBS/DRIVERS/FLASHC/flashc.o
 .text.flashc_is_prog_error_int_enabled
                0x00000000       0x18 AVR32_LIBS/DRIVERS/FLASHC/flashc.o
 .text.flashc_enable_prog_error_int
                0x00000000       0x4a AVR32_LIBS/DRIVERS/FLASHC/flashc.o
 .text.flashc_is_lock_error
                0x00000000       0x1c AVR32_LIBS/DRIVERS/FLASHC/flashc.o
 .text.flashc_is_programming_error
                0x00000000       0x1c AVR32_LIBS/DRIVERS/FLASHC/flashc.o
 .text.flashc_get_command
                0x00000000       0x16 AVR32_LIBS/DRIVERS/FLASHC/flashc.o
 .text.flashc_get_page_number
                0x00000000       0x1c AVR32_LIBS/DRIVERS/FLASHC/flashc.o
 .text.flashc_no_operation
                0x00000000       0x18 AVR32_LIBS/DRIVERS/FLASHC/flashc.o
 .text.flashc_erase_all
                0x00000000       0x18 AVR32_LIBS/DRIVERS/FLASHC/flashc.o
 .text.flashc_is_security_bit_active
                0x00000000       0x18 AVR32_LIBS/DRIVERS/FLASHC/flashc.o
 .text.flashc_activate_security_bit
                0x00000000       0x18 AVR32_LIBS/DRIVERS/FLASHC/flashc.o
 .text.flashc_get_bootloader_protected_size
                0x00000000       0x40 AVR32_LIBS/DRIVERS/FLASHC/flashc.o
 .text.flashc_set_bootloader_protected_size
                0x00000000       0x9c AVR32_LIBS/DRIVERS/FLASHC/flashc.o
 .text.flashc_is_external_privileged_fetch_locked
                0x00000000       0x24 AVR32_LIBS/DRIVERS/FLASHC/flashc.o
 .text.flashc_lock_external_privileged_fetch
                0x00000000       0x2c AVR32_LIBS/DRIVERS/FLASHC/flashc.o
 .text.flashc_is_page_region_locked
                0x00000000       0x30 AVR32_LIBS/DRIVERS/FLASHC/flashc.o
 .text.flashc_is_region_locked
                0x00000000       0x30 AVR32_LIBS/DRIVERS/FLASHC/flashc.o
 .text.flashc_lock_page_region
                0x00000000       0x38 AVR32_LIBS/DRIVERS/FLASHC/flashc.o
 .text.flashc_lock_region
                0x00000000       0x38 AVR32_LIBS/DRIVERS/FLASHC/flashc.o
 .text.flashc_lock_all_regions
                0x00000000       0x64 AVR32_LIBS/DRIVERS/FLASHC/flashc.o
 .text.flashc_read_gp_fuse_bit
                0x00000000       0x60 AVR32_LIBS/DRIVERS/FLASHC/flashc.o
 .text.flashc_read_gp_fuse_bitfield
                0x00000000       0xcc AVR32_LIBS/DRIVERS/FLASHC/flashc.o
 .text.flashc_read_gp_fuse_byte
                0x00000000       0x60 AVR32_LIBS/DRIVERS/FLASHC/flashc.o
 .text.flashc_read_all_gp_fuses
                0x00000000       0x34 AVR32_LIBS/DRIVERS/FLASHC/flashc.o
 .text.flashc_erase_gp_fuse_bit
                0x00000000       0x4c AVR32_LIBS/DRIVERS/FLASHC/flashc.o
 .text.flashc_erase_gp_fuse_bitfield
                0x00000000      0x11c AVR32_LIBS/DRIVERS/FLASHC/flashc.o
 .text.flashc_erase_gp_fuse_byte
                0x00000000       0xdc AVR32_LIBS/DRIVERS/FLASHC/flashc.o
 .text.flashc_erase_all_gp_fuses
                0x00000000       0x50 AVR32_LIBS/DRIVERS/FLASHC/flashc.o
 .text.flashc_write_gp_fuse_bit
                0x00000000       0x38 AVR32_LIBS/DRIVERS/FLASHC/flashc.o
 .text.flashc_write_gp_fuse_bitfield
                0x00000000       0xcc AVR32_LIBS/DRIVERS/FLASHC/flashc.o
 .text.flashc_write_gp_fuse_byte
                0x00000000       0x38 AVR32_LIBS/DRIVERS/FLASHC/flashc.o
 .text.flashc_write_all_gp_fuses
                0x00000000       0x80 AVR32_LIBS/DRIVERS/FLASHC/flashc.o
 .text.flashc_set_gp_fuse_bit
                0x00000000       0x44 AVR32_LIBS/DRIVERS/FLASHC/flashc.o
 .text.flashc_set_gp_fuse_bitfield
                0x00000000       0xcc AVR32_LIBS/DRIVERS/FLASHC/flashc.o
 .text.flashc_set_gp_fuse_byte
                0x00000000       0x78 AVR32_LIBS/DRIVERS/FLASHC/flashc.o
 .text.flashc_set_all_gp_fuses
                0x00000000       0x6c AVR32_LIBS/DRIVERS/FLASHC/flashc.o
 .text.flashc_erase_all_pages
                0x00000000       0x88 AVR32_LIBS/DRIVERS/FLASHC/flashc.o
 .text          0x00000000        0x0 AVR32_LIBS/DRIVERS/GPIO/gpio.o
 .data          0x00000000        0x0 AVR32_LIBS/DRIVERS/GPIO/gpio.o
 .bss           0x00000000        0x0 AVR32_LIBS/DRIVERS/GPIO/gpio.o
 .text.gpio_enable_gpio
                0x00000000       0x50 AVR32_LIBS/DRIVERS/GPIO/gpio.o
 .text.gpio_disable_pin_pull_up
                0x00000000       0x3a AVR32_LIBS/DRIVERS/GPIO/gpio.o
 .text.gpio_get_gpio_open_drain_pin_output_value
                0x00000000       0x3c AVR32_LIBS/DRIVERS/GPIO/gpio.o
 .text.gpio_tgl_gpio_pin
                0x00000000       0x68 AVR32_LIBS/DRIVERS/GPIO/gpio.o
 .text.gpio_set_gpio_open_drain_pin
                0x00000000       0x50 AVR32_LIBS/DRIVERS/GPIO/gpio.o
 .text.gpio_clr_gpio_open_drain_pin
                0x00000000       0x68 AVR32_LIBS/DRIVERS/GPIO/gpio.o
 .text.gpio_tgl_gpio_open_drain_pin
                0x00000000       0x68 AVR32_LIBS/DRIVERS/GPIO/gpio.o
 .text.gpio_disable_pin_glitch_filter
                0x00000000       0x3a AVR32_LIBS/DRIVERS/GPIO/gpio.o
 .text.gpio_enable_pin_interrupt
                0x00000000      0x104 AVR32_LIBS/DRIVERS/GPIO/gpio.o
 .text.gpio_disable_pin_interrupt
                0x00000000       0x3a AVR32_LIBS/DRIVERS/GPIO/gpio.o
 .text.gpio_get_pin_interrupt_flag
                0x00000000       0x3c AVR32_LIBS/DRIVERS/GPIO/gpio.o
 .text.gpio_clear_pin_interrupt_flag
                0x00000000       0x3a AVR32_LIBS/DRIVERS/GPIO/gpio.o
 .data          0x00000000        0x0 AVR32_LIBS/DRIVERS/INTC/intc.o
 .text          0x00000000        0x0 AVR32_LIBS/DRIVERS/PDCA/pdca.o
 .data          0x00000000        0x0 AVR32_LIBS/DRIVERS/PDCA/pdca.o
 .bss           0x00000000        0x0 AVR32_LIBS/DRIVERS/PDCA/pdca.o
 .text.pdca_get_handler
                0x00000000       0x34 AVR32_LIBS/DRIVERS/PDCA/pdca.o
 .text.pdca_init_channel
                0x00000000       0xcc AVR32_LIBS/DRIVERS/PDCA/pdca.o
 .text.pdca_get_channel_status
                0x00000000       0x30 AVR32_LIBS/DRIVERS/PDCA/pdca.o
 .text.pdca_disable
                0x00000000       0x2c AVR32_LIBS/DRIVERS/PDCA/pdca.o
 .text.pdca_enable
                0x00000000       0x2c AVR32_LIBS/DRIVERS/PDCA/pdca.o
 .text.pdca_get_load_size
                0x00000000       0x2c AVR32_LIBS/DRIVERS/PDCA/pdca.o
 .text.pdca_load_channel
                0x00000000       0x7c AVR32_LIBS/DRIVERS/PDCA/pdca.o
 .text.pdca_get_reload_size
                0x00000000       0x2c AVR32_LIBS/DRIVERS/PDCA/pdca.o
 .text.pdca_reload_channel
                0x00000000       0x7c AVR32_LIBS/DRIVERS/PDCA/pdca.o
 .text.pdca_set_peripheral_select
                0x00000000       0x34 AVR32_LIBS/DRIVERS/PDCA/pdca.o
 .text.pdca_set_transfer_size
                0x00000000       0x40 AVR32_LIBS/DRIVERS/PDCA/pdca.o
 .text.pdca_disable_interrupt_transfer_error
                0x00000000       0x5c AVR32_LIBS/DRIVERS/PDCA/pdca.o
 .text.pdca_enable_interrupt_transfer_error
                0x00000000       0x2c AVR32_LIBS/DRIVERS/PDCA/pdca.o
 .text.pdca_disable_interrupt_transfer_complete
                0x00000000       0x5c AVR32_LIBS/DRIVERS/PDCA/pdca.o
 .text.pdca_enable_interrupt_transfer_complete
                0x00000000       0x2c AVR32_LIBS/DRIVERS/PDCA/pdca.o
 .text.pdca_disable_interrupt_reload_counter_zero
                0x00000000       0x5c AVR32_LIBS/DRIVERS/PDCA/pdca.o
 .text.pdca_enable_interrupt_reload_counter_zero
                0x00000000       0x2c AVR32_LIBS/DRIVERS/PDCA/pdca.o
 .text.pdca_get_transfer_status
                0x00000000       0x2c AVR32_LIBS/DRIVERS/PDCA/pdca.o
 .text          0x00000000        0x0 AVR32_LIBS/DRIVERS/PM/pm.o
 .data          0x00000000        0x0 AVR32_LIBS/DRIVERS/PM/pm.o
 .bss           0x00000000        0x0 AVR32_LIBS/DRIVERS/PM/pm.o
 .text.pm_enable_osc0_ext_clock
                0x00000000       0x20 AVR32_LIBS/DRIVERS/PM/pm.o
 .text.pm_disable_clk0
                0x00000000       0x22 AVR32_LIBS/DRIVERS/PM/pm.o
 .text.pm_set_osc1_mode
                0x00000000       0x4a AVR32_LIBS/DRIVERS/PM/pm.o
 .text.pm_enable_osc1_ext_clock
                0x00000000       0x20 AVR32_LIBS/DRIVERS/PM/pm.o
 .text.pm_enable_osc1_crystal
                0x00000000       0x64 AVR32_LIBS/DRIVERS/PM/pm.o
 .text.pm_enable_clk1
                0x00000000       0x34 AVR32_LIBS/DRIVERS/PM/pm.o
 .text.pm_disable_clk1
                0x00000000       0x22 AVR32_LIBS/DRIVERS/PM/pm.o
 .text.pm_enable_clk1_no_wait
                0x00000000       0x5a AVR32_LIBS/DRIVERS/PM/pm.o
 .text.pm_wait_for_clk1_ready
                0x00000000       0x1e AVR32_LIBS/DRIVERS/PM/pm.o
 .text.pm_enable_osc32_ext_clock
                0x00000000       0x20 AVR32_LIBS/DRIVERS/PM/pm.o
 .text.pm_enable_clk32
                0x00000000       0x34 AVR32_LIBS/DRIVERS/PM/pm.o
 .text.pm_disable_clk32
                0x00000000       0x22 AVR32_LIBS/DRIVERS/PM/pm.o
 .text.pm_wait_for_clk32_ready
                0x00000000       0x1e AVR32_LIBS/DRIVERS/PM/pm.o
 .text.pm_gc_disable
                0x00000000       0x36 AVR32_LIBS/DRIVERS/PM/pm.o
 .text.pm_pll_get_option
                0x00000000       0x2c AVR32_LIBS/DRIVERS/PM/pm.o
 .text.pm_pll_disable
                0x00000000       0x36 AVR32_LIBS/DRIVERS/PM/pm.o
 .text.pm_bod_enable_irq
                0x00000000       0x1e AVR32_LIBS/DRIVERS/PM/pm.o
 .text.pm_bod_disable_irq
                0x00000000       0x4e AVR32_LIBS/DRIVERS/PM/pm.o
 .text.pm_bod_clear_irq
                0x00000000       0x1e AVR32_LIBS/DRIVERS/PM/pm.o
 .text.pm_bod_get_irq_status
                0x00000000       0x20 AVR32_LIBS/DRIVERS/PM/pm.o
 .text.pm_bod_get_irq_enable_bit
                0x00000000       0x20 AVR32_LIBS/DRIVERS/PM/pm.o
 .text.pm_bod_get_level
                0x00000000       0x20 AVR32_LIBS/DRIVERS/PM/pm.o
 .text.pm_read_gplp
                0x00000000       0x26 AVR32_LIBS/DRIVERS/PM/pm.o
 .text.pm_write_gplp
                0x00000000       0x2c AVR32_LIBS/DRIVERS/PM/pm.o
 .text          0x00000000        0x0 AVR32_LIBS/DRIVERS/PM/pm_conf_clocks.o
 .data          0x00000000        0x0 AVR32_LIBS/DRIVERS/PM/pm_conf_clocks.o
 .bss           0x00000000        0x0 AVR32_LIBS/DRIVERS/PM/pm_conf_clocks.o
 .text.pm_configure_clocks
                0x00000000      0x32c AVR32_LIBS/DRIVERS/PM/pm_conf_clocks.o
 .text          0x00000000        0x0 AVR32_LIBS/DRIVERS/PWM/pwm.o
 .data          0x00000000        0x0 AVR32_LIBS/DRIVERS/PWM/pwm.o
 .bss           0x00000000        0x0 AVR32_LIBS/DRIVERS/PWM/pwm.o
 .text.pwm_sync_update_channel
                0x00000000       0x7e AVR32_LIBS/DRIVERS/PWM/pwm.o
 .text.pwm_async_update_channel
                0x00000000       0x62 AVR32_LIBS/DRIVERS/PWM/pwm.o
 .text          0x00000000        0x0 AVR32_LIBS/DRIVERS/RTC/rtc.o
 .data          0x00000000        0x0 AVR32_LIBS/DRIVERS/RTC/rtc.o
 .bss           0x00000000        0x0 AVR32_LIBS/DRIVERS/RTC/rtc.o
 .text.rtc_get_value
                0x00000000       0x1a AVR32_LIBS/DRIVERS/RTC/rtc.o
 .text.rtc_enable_wake_up
                0x00000000       0x44 AVR32_LIBS/DRIVERS/RTC/rtc.o
 .text.rtc_disable_wake_up
                0x00000000       0x44 AVR32_LIBS/DRIVERS/RTC/rtc.o
 .text.rtc_disable
                0x00000000       0x44 AVR32_LIBS/DRIVERS/RTC/rtc.o
 .text.rtc_enable_interrupt
                0x00000000       0x1a AVR32_LIBS/DRIVERS/RTC/rtc.o
 .text.rtc_disable_interrupt
                0x00000000       0x4a AVR32_LIBS/DRIVERS/RTC/rtc.o
 .text.rtc_clear_interrupt
                0x00000000       0x4a AVR32_LIBS/DRIVERS/RTC/rtc.o
 .text.rtc_get_top_value
                0x00000000       0x1a AVR32_LIBS/DRIVERS/RTC/rtc.o
 .text.rtc_interrupt_enabled
                0x00000000       0x1e AVR32_LIBS/DRIVERS/RTC/rtc.o
 .text.rtc_is_interrupt
                0x00000000       0x1e AVR32_LIBS/DRIVERS/RTC/rtc.o
 .text          0x00000000        0x0 AVR32_LIBS/DRIVERS/SPI/spi.o
 .data          0x00000000        0x0 AVR32_LIBS/DRIVERS/SPI/spi.o
 .text.spi_initSlave
                0x00000000       0x8a AVR32_LIBS/DRIVERS/SPI/spi.o
 .text.spi_initTest
                0x00000000       0x32 AVR32_LIBS/DRIVERS/SPI/spi.o
 .text.spi_disable
                0x00000000       0x1a AVR32_LIBS/DRIVERS/SPI/spi.o
 .text.spi_is_enabled
                0x00000000       0x20 AVR32_LIBS/DRIVERS/SPI/spi.o
 .text.spi_writeRegisterEmptyCheck
                0x00000000       0x20 AVR32_LIBS/DRIVERS/SPI/spi.o
 .text.spi_variableSlaveWrite
                0x00000000       0x98 AVR32_LIBS/DRIVERS/SPI/spi.o
 .text.spi_writeEndCheck
                0x00000000       0x20 AVR32_LIBS/DRIVERS/SPI/spi.o
 .text.spi_readRegisterFullCheck
                0x00000000       0x20 AVR32_LIBS/DRIVERS/SPI/spi.o
 .text.spi_getStatus
                0x00000000       0x68 AVR32_LIBS/DRIVERS/SPI/spi.o
 .text          0x00000000        0x0 AVR32_LIBS/DRIVERS/TWI/twi.o
 .text.twi_slave_inst1_interrupt_handler
                0x00000000      0x124 AVR32_LIBS/DRIVERS/TWI/twi.o
 .text.twi_slave_init
                0x00000000       0xe4 AVR32_LIBS/DRIVERS/TWI/twi.o
 .text.twi_master_read
                0x00000000       0xdc AVR32_LIBS/DRIVERS/TWI/twi.o
 .text          0x00000000        0xc AVR32_LIBS/DRIVERS/USART/usart.o
 .data          0x00000000        0x0 AVR32_LIBS/DRIVERS/USART/usart.o
 .bss           0x00000000        0x0 AVR32_LIBS/DRIVERS/USART/usart.o
 .text.usart_mode_is_multidrop
                0x00000000       0x24 AVR32_LIBS/DRIVERS/USART/usart.o
 .text.usart_set_sync_master_baudrate
                0x00000000       0x70 AVR32_LIBS/DRIVERS/USART/usart.o
 .text.usart_set_sync_slave_baudrate
                0x00000000       0x28 AVR32_LIBS/DRIVERS/USART/usart.o
 .text.usart_set_iso7816_clock
                0x00000000       0x72 AVR32_LIBS/DRIVERS/USART/usart.o
 .text.usart_set_spi_master_baudrate
                0x00000000       0x70 AVR32_LIBS/DRIVERS/USART/usart.o
 .text.usart_set_spi_slave_baudrate
                0x00000000       0x28 AVR32_LIBS/DRIVERS/USART/usart.o
 .text.usart_init_rs232_tx_only
                0x00000000      0x17c AVR32_LIBS/DRIVERS/USART/usart.o
 .text.usart_init_hw_handshaking
                0x00000000       0x50 AVR32_LIBS/DRIVERS/USART/usart.o
 .text.usart_init_modem
                0x00000000       0x54 AVR32_LIBS/DRIVERS/USART/usart.o
 .text.usart_init_sync_master
                0x00000000      0x184 AVR32_LIBS/DRIVERS/USART/usart.o
 .text.usart_init_sync_slave
                0x00000000      0x170 AVR32_LIBS/DRIVERS/USART/usart.o
 .text.usart_init_rs485
                0x00000000       0x50 AVR32_LIBS/DRIVERS/USART/usart.o
 .text.usart_init_IrDA
                0x00000000       0x6c AVR32_LIBS/DRIVERS/USART/usart.o
 .text.usart_init_iso7816
                0x00000000      0x118 AVR32_LIBS/DRIVERS/USART/usart.o
 .text.usart_init_lin_master
                0x00000000       0x64 AVR32_LIBS/DRIVERS/USART/usart.o
 .text.usart_init_lin_slave
                0x00000000       0x64 AVR32_LIBS/DRIVERS/USART/usart.o
 .text.usart_init_spi_master
                0x00000000      0x11c AVR32_LIBS/DRIVERS/USART/usart.o
 .text.usart_init_spi_slave
                0x00000000      0x108 AVR32_LIBS/DRIVERS/USART/usart.o
 .text.usart_spi_selectChip
                0x00000000       0x20 AVR32_LIBS/DRIVERS/USART/usart.o
 .text.usart_spi_unselectChip
                0x00000000       0x58 AVR32_LIBS/DRIVERS/USART/usart.o
 .text.usart_send_address
                0x00000000       0x54 AVR32_LIBS/DRIVERS/USART/usart.o
 .text.usart_write_char
                0x00000000       0x40 AVR32_LIBS/DRIVERS/USART/usart.o
 .text.usart_putchar
                0x00000000       0x90 AVR32_LIBS/DRIVERS/USART/usart.o
 .text.usart_read_char
                0x00000000       0x50 AVR32_LIBS/DRIVERS/USART/usart.o
 .text.usart_getchar
                0x00000000       0x44 AVR32_LIBS/DRIVERS/USART/usart.o
 .text.usart_write_line
                0x00000000       0x40 AVR32_LIBS/DRIVERS/USART/usart.o
 .text.usart_get_echo_line
                0x00000000       0x84 AVR32_LIBS/DRIVERS/USART/usart.o
 .data          0x00000000        0x0 AVR32_LIBS/DRIVERS/USBB/ENUM/DEVICE/usb_device_task.o
 .data          0x00000000        0x0 AVR32_LIBS/DRIVERS/USBB/ENUM/DEVICE/usb_standard_request.o
 .data          0x00000000        0x0 AVR32_LIBS/DRIVERS/USBB/ENUM/usb_task.o
 .text.usb_suspend_action
                0x00000000       0x3e AVR32_LIBS/DRIVERS/USBB/ENUM/usb_task.o
 .text          0x00000000        0x0 AVR32_LIBS/DRIVERS/USBB/usb_drv.o
 .data          0x00000000        0x0 AVR32_LIBS/DRIVERS/USBB/usb_drv.o
 .bss           0x00000000        0x0 AVR32_LIBS/DRIVERS/USBB/usb_drv.o
 .text.usb_set_ep_txpacket
                0x00000000      0x1f4 AVR32_LIBS/DRIVERS/USBB/usb_drv.o
 .text.usb_read_ep_rxpacket
                0x00000000      0x230 AVR32_LIBS/DRIVERS/USBB/usb_drv.o
 .text          0x00000000        0x0 AVR32_LIBS/DRIVERS/WDT/wdt.o
 .data          0x00000000        0x0 AVR32_LIBS/DRIVERS/WDT/wdt.o
 .bss           0x00000000        0x0 AVR32_LIBS/DRIVERS/WDT/wdt.o
 .text.wdt_reenable
                0x00000000       0x1c AVR32_LIBS/DRIVERS/WDT/wdt.o
 .text.wdt_reset_mcu
                0x00000000       0x18 AVR32_LIBS/DRIVERS/WDT/wdt.o
 .text          0x00000000        0x0 AVR32_LIBS/SERVICES/DELAY/delay.o
 .data          0x00000000        0x0 AVR32_LIBS/SERVICES/DELAY/delay.o
 .bss           0x00000000        0x0 AVR32_LIBS/SERVICES/DELAY/delay.o
 .text.delay_init
                0x00000000       0x12 AVR32_LIBS/SERVICES/DELAY/delay.o
 .text.delay_ms
                0x00000000       0x20 AVR32_LIBS/SERVICES/DELAY/delay.o
 .text          0x00000000        0x0 AVR32_LIBS/SERVICES/FREERTOS/Source/croutine.o
 .data          0x00000000        0x0 AVR32_LIBS/SERVICES/FREERTOS/Source/croutine.o
 .bss           0x00000000       0x58 AVR32_LIBS/SERVICES/FREERTOS/Source/croutine.o
 .text.xCoRoutineCreate
                0x00000000      0x11c AVR32_LIBS/SERVICES/FREERTOS/Source/croutine.o
 .text.vCoRoutineAddToDelayedList
                0x00000000       0xa4 AVR32_LIBS/SERVICES/FREERTOS/Source/croutine.o
 .text.prvCheckPendingReadyList
                0x00000000       0xa0 AVR32_LIBS/SERVICES/FREERTOS/Source/croutine.o
 .text.prvCheckDelayedList
                0x00000000      0x134 AVR32_LIBS/SERVICES/FREERTOS/Source/croutine.o
 .text.vCoRoutineSchedule
                0x00000000       0xc8 AVR32_LIBS/SERVICES/FREERTOS/Source/croutine.o
 .text.prvInitialiseCoRoutineLists
                0x00000000       0x4c AVR32_LIBS/SERVICES/FREERTOS/Source/croutine.o
 .text.xCoRoutineRemoveFromEventList
                0x00000000       0x7c AVR32_LIBS/SERVICES/FREERTOS/Source/croutine.o
 .text          0x00000000        0x0 AVR32_LIBS/SERVICES/FREERTOS/Source/list.o
 .data          0x00000000        0x0 AVR32_LIBS/SERVICES/FREERTOS/Source/list.o
 .bss           0x00000000        0x0 AVR32_LIBS/SERVICES/FREERTOS/Source/list.o
 .text          0x00000000        0x0 AVR32_LIBS/SERVICES/FREERTOS/Source/portable/GCC/AVR32_UC3/exception.o
 .data          0x00000000        0x0 AVR32_LIBS/SERVICES/FREERTOS/Source/portable/GCC/AVR32_UC3/exception.o
 .bss           0x00000000        0x0 AVR32_LIBS/SERVICES/FREERTOS/Source/portable/GCC/AVR32_UC3/exception.o
 .text          0x00000000        0x0 AVR32_LIBS/SERVICES/FREERTOS/Source/portable/GCC/AVR32_UC3/port.o
 .bss           0x00000000        0x0 AVR32_LIBS/SERVICES/FREERTOS/Source/portable/GCC/AVR32_UC3/port.o
 .text.pvPortRealloc
                0x00000000       0x44 AVR32_LIBS/SERVICES/FREERTOS/Source/portable/GCC/AVR32_UC3/port.o
 .text.vPortEndScheduler
                0x00000000        0xa AVR32_LIBS/SERVICES/FREERTOS/Source/portable/GCC/AVR32_UC3/port.o
 .text          0x00000000        0x0 AVR32_LIBS/SERVICES/FREERTOS/Source/portable/MemMang/heap_3.o
 .data          0x00000000        0x0 AVR32_LIBS/SERVICES/FREERTOS/Source/portable/MemMang/heap_3.o
 .bss           0x00000000        0x0 AVR32_LIBS/SERVICES/FREERTOS/Source/portable/MemMang/heap_3.o
 .text          0x00000000        0x0 AVR32_LIBS/SERVICES/FREERTOS/Source/queue.o
 .data          0x00000000        0x0 AVR32_LIBS/SERVICES/FREERTOS/Source/queue.o
 .bss           0x00000000        0x0 AVR32_LIBS/SERVICES/FREERTOS/Source/queue.o
 .text.xQueueReceiveFromISR
                0x00000000       0xac AVR32_LIBS/SERVICES/FREERTOS/Source/queue.o
 .text.uxQueueMessagesWaiting
                0x00000000       0x34 AVR32_LIBS/SERVICES/FREERTOS/Source/queue.o
 .text.uxQueueMessagesWaitingFromISR
                0x00000000       0x22 AVR32_LIBS/SERVICES/FREERTOS/Source/queue.o
 .text.vQueueDelete
                0x00000000       0x2c AVR32_LIBS/SERVICES/FREERTOS/Source/queue.o
 .text.xQueueIsQueueEmptyFromISR
                0x00000000       0x26 AVR32_LIBS/SERVICES/FREERTOS/Source/queue.o
 .text.xQueueIsQueueFullFromISR
                0x00000000       0x2c AVR32_LIBS/SERVICES/FREERTOS/Source/queue.o
 .text.uxTaskPriorityGet
                0x00000000       0x4c AVR32_LIBS/SERVICES/FREERTOS/Source/tasks.o
 .text.vTaskPrioritySet
                0x00000000      0x168 AVR32_LIBS/SERVICES/FREERTOS/Source/tasks.o
 .text.xTaskResumeFromISR
                0x00000000       0xcc AVR32_LIBS/SERVICES/FREERTOS/Source/tasks.o
 .text.vTaskEndScheduler
                0x00000000       0x20 AVR32_LIBS/SERVICES/FREERTOS/Source/tasks.o
 .text.uxTaskGetNumberOfTasks
                0x00000000       0x30 AVR32_LIBS/SERVICES/FREERTOS/Source/tasks.o
 .text.vTaskStartTrace
                0x00000000       0x5c AVR32_LIBS/SERVICES/FREERTOS/Source/tasks.o
 .text.ulTaskEndTrace
                0x00000000       0x48 AVR32_LIBS/SERVICES/FREERTOS/Source/tasks.o
 .text.xTaskGetSchedulerState
                0x00000000       0x44 AVR32_LIBS/SERVICES/FREERTOS/Source/tasks.o
 .data          0x00000000        0x0 AVR32_LIBS/SERVICES/USB/CLASS/CDC/EXAMPLES/ENUM/DEVICE/usb_descriptors.o
 .bss           0x00000000        0x0 AVR32_LIBS/SERVICES/USB/CLASS/CDC/EXAMPLES/ENUM/DEVICE/usb_descriptors.o
 .text          0x00000000        0x0 AVR32_LIBS/SERVICES/USB/CLASS/CDC/EXAMPLES/ENUM/DEVICE/usb_specific_request.o
 .data          0x00000000        0x0 AVR32_LIBS/SERVICES/USB/CLASS/CDC/EXAMPLES/ENUM/DEVICE/usb_specific_request.o
 .text          0x00000000        0x0 AVR32_LIBS/SERVICES/USB/CLASS/CDC/EXAMPLES/uart_usb_lib.o
 .data          0x00000000        0x0 AVR32_LIBS/SERVICES/USB/CLASS/CDC/EXAMPLES/uart_usb_lib.o
 .text          0x00000000        0x0 AVR32_LIBS/SERVICES/USB/CLASS/DFU/EXAMPLES/ISP/BOOT/trampoline.o
 .data          0x00000000        0x0 AVR32_LIBS/SERVICES/USB/CLASS/DFU/EXAMPLES/ISP/BOOT/trampoline.o
 .bss           0x00000000        0x0 AVR32_LIBS/SERVICES/USB/CLASS/DFU/EXAMPLES/ISP/BOOT/trampoline.o
 .reset         0x00000000     0x2008 AVR32_LIBS/SERVICES/USB/CLASS/DFU/EXAMPLES/ISP/BOOT/trampoline.o
 .text.get_prog_code_via_usb
                0x00000000      0x30c spike_fw_update.o
 .text          0x00000000        0x0 main.o
 .data          0x00000000        0x0 main.o
 .bss           0x00000000        0x0 main.o
 .text.reset_eth
                0x00000000       0x40 main.o
 .data          0x00000000        0x0 security_task.o
 .bss           0x00000000        0x0 security_task.o
 .text          0x00000000        0x8 terminal/printf-stdarg.o
 .data          0x00000000        0x0 terminal/printf-stdarg.o
 .bss           0x00000000        0x0 terminal/printf-stdarg.o
 .text.printchar
                0x00000000       0x4c terminal/printf-stdarg.o
 .text.prints   0x00000000       0xe8 terminal/printf-stdarg.o
 .text.printi   0x00000000      0x10c terminal/printf-stdarg.o
 .text.fprintf  0x00000000       0x1a terminal/printf-stdarg.o
 .text.print    0x00000000      0x288 terminal/printf-stdarg.o
 .text.printk   0x00000000       0x34 terminal/printf-stdarg.o
 .text.sprintff
                0x00000000       0x3c terminal/printf-stdarg.o
 .text.usb_uart_printf_fast
                0x00000000       0x98 terminal/usb/usb.o
 .text.usb_get_word
                0x00000000       0x5c terminal/usb/usb.o
 .text          0x00000000        0x0 ../AVR32_LIBS/UTILS/LIBS/NEWLIB_ADDONS/AT32UCR2\libnewlib_addons-at32ucr2-speed_opt.a(cpu.o)
 .data          0x00000000        0x0 ../AVR32_LIBS/UTILS/LIBS/NEWLIB_ADDONS/AT32UCR2\libnewlib_addons-at32ucr2-speed_opt.a(cpu.o)
 .bss           0x00000000        0x0 ../AVR32_LIBS/UTILS/LIBS/NEWLIB_ADDONS/AT32UCR2\libnewlib_addons-at32ucr2-speed_opt.a(cpu.o)
 .text.get_cpu_hz
                0x00000000        0xc ../AVR32_LIBS/UTILS/LIBS/NEWLIB_ADDONS/AT32UCR2\libnewlib_addons-at32ucr2-speed_opt.a(cpu.o)
 .text.udelay   0x00000000       0x48 ../AVR32_LIBS/UTILS/LIBS/NEWLIB_ADDONS/AT32UCR2\libnewlib_addons-at32ucr2-speed_opt.a(cpu.o)
 .text          0x00000000        0x0 ../AVR32_LIBS/UTILS/LIBS/NEWLIB_ADDONS/AT32UCR2\libnewlib_addons-at32ucr2-speed_opt.a(syscalls.o)
 .data          0x00000000        0x0 ../AVR32_LIBS/UTILS/LIBS/NEWLIB_ADDONS/AT32UCR2\libnewlib_addons-at32ucr2-speed_opt.a(syscalls.o)
 .bss           0x00000000        0x0 ../AVR32_LIBS/UTILS/LIBS/NEWLIB_ADDONS/AT32UCR2\libnewlib_addons-at32ucr2-speed_opt.a(syscalls.o)
 .text._stat    0x00000000        0x2 ../AVR32_LIBS/UTILS/LIBS/NEWLIB_ADDONS/AT32UCR2\libnewlib_addons-at32ucr2-speed_opt.a(syscalls.o)
 .text._fcntl   0x00000000       0x14 ../AVR32_LIBS/UTILS/LIBS/NEWLIB_ADDONS/AT32UCR2\libnewlib_addons-at32ucr2-speed_opt.a(syscalls.o)
 .text._link    0x00000000       0x14 ../AVR32_LIBS/UTILS/LIBS/NEWLIB_ADDONS/AT32UCR2\libnewlib_addons-at32ucr2-speed_opt.a(syscalls.o)
 .text._kill    0x00000000       0x14 ../AVR32_LIBS/UTILS/LIBS/NEWLIB_ADDONS/AT32UCR2\libnewlib_addons-at32ucr2-speed_opt.a(syscalls.o)
 .text._getpid  0x00000000       0x14 ../AVR32_LIBS/UTILS/LIBS/NEWLIB_ADDONS/AT32UCR2\libnewlib_addons-at32ucr2-speed_opt.a(syscalls.o)
 .text._gettimeofday
                0x00000000       0x14 ../AVR32_LIBS/UTILS/LIBS/NEWLIB_ADDONS/AT32UCR2\libnewlib_addons-at32ucr2-speed_opt.a(syscalls.o)
 .text._unlink  0x00000000       0x14 ../AVR32_LIBS/UTILS/LIBS/NEWLIB_ADDONS/AT32UCR2\libnewlib_addons-at32ucr2-speed_opt.a(syscalls.o)
 .text._execve  0x00000000       0x14 ../AVR32_LIBS/UTILS/LIBS/NEWLIB_ADDONS/AT32UCR2\libnewlib_addons-at32ucr2-speed_opt.a(syscalls.o)
 .text._fork    0x00000000       0x14 ../AVR32_LIBS/UTILS/LIBS/NEWLIB_ADDONS/AT32UCR2\libnewlib_addons-at32ucr2-speed_opt.a(syscalls.o)
 .text._wait    0x00000000       0x14 ../AVR32_LIBS/UTILS/LIBS/NEWLIB_ADDONS/AT32UCR2\libnewlib_addons-at32ucr2-speed_opt.a(syscalls.o)
 .text.sigfillset
                0x00000000       0x14 ../AVR32_LIBS/UTILS/LIBS/NEWLIB_ADDONS/AT32UCR2\libnewlib_addons-at32ucr2-speed_opt.a(syscalls.o)
 .text.sigprocmask
                0x00000000       0x14 ../AVR32_LIBS/UTILS/LIBS/NEWLIB_ADDONS/AT32UCR2\libnewlib_addons-at32ucr2-speed_opt.a(syscalls.o)
 .text._open    0x00000000       0x14 ../AVR32_LIBS/UTILS/LIBS/NEWLIB_ADDONS/AT32UCR2\libnewlib_addons-at32ucr2-speed_opt.a(syscalls.o)
 .text._times   0x00000000       0x12 ../AVR32_LIBS/UTILS/LIBS/NEWLIB_ADDONS/AT32UCR2\libnewlib_addons-at32ucr2-speed_opt.a(syscalls.o)
 .text._init_startup
                0x00000000       0x24 ../AVR32_LIBS/UTILS/LIBS/NEWLIB_ADDONS/AT32UCR2\libnewlib_addons-at32ucr2-speed_opt.a(syscalls.o)
 .text          0x00000000        0x0 ../AVR32_LIBS/UTILS/LIBS/NEWLIB_ADDONS/AT32UCR2\libnewlib_addons-at32ucr2-speed_opt.a(usart.o)
 .data          0x00000000        0x0 ../AVR32_LIBS/UTILS/LIBS/NEWLIB_ADDONS/AT32UCR2\libnewlib_addons-at32ucr2-speed_opt.a(usart.o)
 .bss           0x00000000        0x0 ../AVR32_LIBS/UTILS/LIBS/NEWLIB_ADDONS/AT32UCR2\libnewlib_addons-at32ucr2-speed_opt.a(usart.o)
 .text.usart_setbrg
                0x00000000       0x64 ../AVR32_LIBS/UTILS/LIBS/NEWLIB_ADDONS/AT32UCR2\libnewlib_addons-at32ucr2-speed_opt.a(usart.o)
 .text.set_usart_base
                0x00000000        0xc ../AVR32_LIBS/UTILS/LIBS/NEWLIB_ADDONS/AT32UCR2\libnewlib_addons-at32ucr2-speed_opt.a(usart.o)
 .text.usart_tstc
                0x00000000       0x14 ../AVR32_LIBS/UTILS/LIBS/NEWLIB_ADDONS/AT32UCR2\libnewlib_addons-at32ucr2-speed_opt.a(usart.o)
 .text.usart_puts
                0x00000000       0x28 ../AVR32_LIBS/UTILS/LIBS/NEWLIB_ADDONS/AT32UCR2\libnewlib_addons-at32ucr2-speed_opt.a(usart.o)
 .text.usart_init
                0x00000000       0x8c ../AVR32_LIBS/UTILS/LIBS/NEWLIB_ADDONS/AT32UCR2\libnewlib_addons-at32ucr2-speed_opt.a(usart.o)
 .text          0x00000000        0x0 ../AVR32_LIBS/UTILS/LIBS/NEWLIB_ADDONS/AT32UCR2\libnewlib_addons-at32ucr2-speed_opt.a(exception_handling.o)
 .data          0x00000000        0x0 ../AVR32_LIBS/UTILS/LIBS/NEWLIB_ADDONS/AT32UCR2\libnewlib_addons-at32ucr2-speed_opt.a(exception_handling.o)
 .bss           0x00000000        0x0 ../AVR32_LIBS/UTILS/LIBS/NEWLIB_ADDONS/AT32UCR2\libnewlib_addons-at32ucr2-speed_opt.a(exception_handling.o)
 .text._register_exception_handler
                0x00000000       0x18 ../AVR32_LIBS/UTILS/LIBS/NEWLIB_ADDONS/AT32UCR2\libnewlib_addons-at32ucr2-speed_opt.a(exception_handling.o)
 .text._register_scall_handler
                0x00000000       0x10 ../AVR32_LIBS/UTILS/LIBS/NEWLIB_ADDONS/AT32UCR2\libnewlib_addons-at32ucr2-speed_opt.a(exception_handling.o)
 .text.handle_scall
                0x00000000       0x18 ../AVR32_LIBS/UTILS/LIBS/NEWLIB_ADDONS/AT32UCR2\libnewlib_addons-at32ucr2-speed_opt.a(exception_handling.o)
 .text.unhandled_exception
                0x00000000        0x2 ../AVR32_LIBS/UTILS/LIBS/NEWLIB_ADDONS/AT32UCR2\libnewlib_addons-at32ucr2-speed_opt.a(exception_handling.o)
 .text.init_exceptions
                0x00000000       0x34 ../AVR32_LIBS/UTILS/LIBS/NEWLIB_ADDONS/AT32UCR2\libnewlib_addons-at32ucr2-speed_opt.a(exception_handling.o)
 .bss.handler_table
                0x00000000        0x4 ../AVR32_LIBS/UTILS/LIBS/NEWLIB_ADDONS/AT32UCR2\libnewlib_addons-at32ucr2-speed_opt.a(exception_handling.o)
 .data          0x00000000        0x0 c:/program files (x86)/atmel/avr studio 5.1/extensions/atmel/avrgcc/3.3.1.27/avrtoolchain/bin/../lib/gcc/avr32/4.4.3/ucr2\libgcc.a(_avr32_f64_mul.o)
 .bss           0x00000000        0x0 c:/program files (x86)/atmel/avr studio 5.1/extensions/atmel/avrgcc/3.3.1.27/avrtoolchain/bin/../lib/gcc/avr32/4.4.3/ucr2\libgcc.a(_avr32_f64_mul.o)
 .data          0x00000000        0x0 c:/program files (x86)/atmel/avr studio 5.1/extensions/atmel/avrgcc/3.3.1.27/avrtoolchain/bin/../lib/gcc/avr32/4.4.3/ucr2\libgcc.a(_avr32_f64_addsub.o)
 .bss           0x00000000        0x0 c:/program files (x86)/atmel/avr studio 5.1/extensions/atmel/avrgcc/3.3.1.27/avrtoolchain/bin/../lib/gcc/avr32/4.4.3/ucr2\libgcc.a(_avr32_f64_addsub.o)
 .data          0x00000000        0x0 c:/program files (x86)/atmel/avr studio 5.1/extensions/atmel/avrgcc/3.3.1.27/avrtoolchain/bin/../lib/gcc/avr32/4.4.3/ucr2\libgcc.a(_avr32_f64_to_s32.o)
 .bss           0x00000000        0x0 c:/program files (x86)/atmel/avr studio 5.1/extensions/atmel/avrgcc/3.3.1.27/avrtoolchain/bin/../lib/gcc/avr32/4.4.3/ucr2\libgcc.a(_avr32_f64_to_s32.o)
 .data          0x00000000        0x0 c:/program files (x86)/atmel/avr studio 5.1/extensions/atmel/avrgcc/3.3.1.27/avrtoolchain/bin/../lib/gcc/avr32/4.4.3/ucr2\libgcc.a(_avr32_s32_to_f64.o)
 .bss           0x00000000        0x0 c:/program files (x86)/atmel/avr studio 5.1/extensions/atmel/avrgcc/3.3.1.27/avrtoolchain/bin/../lib/gcc/avr32/4.4.3/ucr2\libgcc.a(_avr32_s32_to_f64.o)
 .data          0x00000000        0x0 c:/program files (x86)/atmel/avr studio 5.1/extensions/atmel/avrgcc/3.3.1.27/avrtoolchain/bin/../lib/gcc/avr32/4.4.3/ucr2\libgcc.a(_avr32_f64_cmp_lt.o)
 .bss           0x00000000        0x0 c:/program files (x86)/atmel/avr studio 5.1/extensions/atmel/avrgcc/3.3.1.27/avrtoolchain/bin/../lib/gcc/avr32/4.4.3/ucr2\libgcc.a(_avr32_f64_cmp_lt.o)
 .data          0x00000000        0x0 c:/program files (x86)/atmel/avr studio 5.1/extensions/atmel/avrgcc/3.3.1.27/avrtoolchain/bin/../lib/gcc/avr32/4.4.3/ucr2\libgcc.a(_avr32_f64_div.o)
 .bss           0x00000000        0x0 c:/program files (x86)/atmel/avr studio 5.1/extensions/atmel/avrgcc/3.3.1.27/avrtoolchain/bin/../lib/gcc/avr32/4.4.3/ucr2\libgcc.a(_avr32_f64_div.o)
 .data          0x00000000        0x0 c:/program files (x86)/atmel/avr studio 5.1/extensions/atmel/avrgcc/3.3.1.27/avrtoolchain/bin/../lib/gcc/avr32/4.4.3/ucr2\libgcc.a(_avr32_f32_div.o)
 .bss           0x00000000        0x0 c:/program files (x86)/atmel/avr studio 5.1/extensions/atmel/avrgcc/3.3.1.27/avrtoolchain/bin/../lib/gcc/avr32/4.4.3/ucr2\libgcc.a(_avr32_f32_div.o)
 .data          0x00000000        0x0 c:/program files (x86)/atmel/avr studio 5.1/extensions/atmel/avrgcc/3.3.1.27/avrtoolchain/bin/../lib/gcc/avr32/4.4.3/ucr2\libgcc.a(_avr32_f32_addsub.o)
 .bss           0x00000000        0x0 c:/program files (x86)/atmel/avr studio 5.1/extensions/atmel/avrgcc/3.3.1.27/avrtoolchain/bin/../lib/gcc/avr32/4.4.3/ucr2\libgcc.a(_avr32_f32_addsub.o)
 .data          0x00000000        0x0 c:/program files (x86)/atmel/avr studio 5.1/extensions/atmel/avrgcc/3.3.1.27/avrtoolchain/bin/../lib/gcc/avr32/4.4.3/ucr2\libgcc.a(_avr32_f32_mul.o)
 .bss           0x00000000        0x0 c:/program files (x86)/atmel/avr studio 5.1/extensions/atmel/avrgcc/3.3.1.27/avrtoolchain/bin/../lib/gcc/avr32/4.4.3/ucr2\libgcc.a(_avr32_f32_mul.o)
 .data          0x00000000        0x0 c:/program files (x86)/atmel/avr studio 5.1/extensions/atmel/avrgcc/3.3.1.27/avrtoolchain/bin/../lib/gcc/avr32/4.4.3/ucr2\libgcc.a(_avr32_s32_to_f32.o)
 .bss           0x00000000        0x0 c:/program files (x86)/atmel/avr studio 5.1/extensions/atmel/avrgcc/3.3.1.27/avrtoolchain/bin/../lib/gcc/avr32/4.4.3/ucr2\libgcc.a(_avr32_s32_to_f32.o)
 .data          0x00000000        0x0 c:/program files (x86)/atmel/avr studio 5.1/extensions/atmel/avrgcc/3.3.1.27/avrtoolchain/bin/../lib/gcc/avr32/4.4.3/ucr2\libgcc.a(_avr32_u32_to_f32.o)
 .bss           0x00000000        0x0 c:/program files (x86)/atmel/avr studio 5.1/extensions/atmel/avrgcc/3.3.1.27/avrtoolchain/bin/../lib/gcc/avr32/4.4.3/ucr2\libgcc.a(_avr32_u32_to_f32.o)
 .data          0x00000000        0x0 c:/program files (x86)/atmel/avr studio 5.1/extensions/atmel/avrgcc/3.3.1.27/avrtoolchain/bin/../lib/gcc/avr32/4.4.3/ucr2\libgcc.a(_avr32_f32_to_f64.o)
 .bss           0x00000000        0x0 c:/program files (x86)/atmel/avr studio 5.1/extensions/atmel/avrgcc/3.3.1.27/avrtoolchain/bin/../lib/gcc/avr32/4.4.3/ucr2\libgcc.a(_avr32_f32_to_f64.o)
 .data          0x00000000        0x0 c:/program files (x86)/atmel/avr studio 5.1/extensions/atmel/avrgcc/3.3.1.27/avrtoolchain/bin/../lib/gcc/avr32/4.4.3/ucr2\libgcc.a(_udivdi3.o)
 .bss           0x00000000        0x0 c:/program files (x86)/atmel/avr studio 5.1/extensions/atmel/avrgcc/3.3.1.27/avrtoolchain/bin/../lib/gcc/avr32/4.4.3/ucr2\libgcc.a(_udivdi3.o)
 .text          0x00000000        0x0 c:/program files (x86)/atmel/avr studio 5.1/extensions/atmel/avrgcc/3.3.1.27/avrtoolchain/bin/../lib/gcc/avr32/4.4.3/../../../../avr32/lib/ucr2\libc.a(lib_a-atexit.o)
 .data          0x00000000        0x0 c:/program files (x86)/atmel/avr studio 5.1/extensions/atmel/avrgcc/3.3.1.27/avrtoolchain/bin/../lib/gcc/avr32/4.4.3/../../../../avr32/lib/ucr2\libc.a(lib_a-atexit.o)
 .bss           0x00000000        0x0 c:/program files (x86)/atmel/avr studio 5.1/extensions/atmel/avrgcc/3.3.1.27/avrtoolchain/bin/../lib/gcc/avr32/4.4.3/../../../../avr32/lib/ucr2\libc.a(lib_a-atexit.o)
 .text          0x00000000        0x0 c:/program files (x86)/atmel/avr studio 5.1/extensions/atmel/avrgcc/3.3.1.27/avrtoolchain/bin/../lib/gcc/avr32/4.4.3/../../../../avr32/lib/ucr2\libc.a(lib_a-atoi.o)
 .data          0x00000000        0x0 c:/program files (x86)/atmel/avr studio 5.1/extensions/atmel/avrgcc/3.3.1.27/avrtoolchain/bin/../lib/gcc/avr32/4.4.3/../../../../avr32/lib/ucr2\libc.a(lib_a-atoi.o)
 .bss           0x00000000        0x0 c:/program files (x86)/atmel/avr studio 5.1/extensions/atmel/avrgcc/3.3.1.27/avrtoolchain/bin/../lib/gcc/avr32/4.4.3/../../../../avr32/lib/ucr2\libc.a(lib_a-atoi.o)
 .text._atoi_r  0x00000000       0x10 c:/program files (x86)/atmel/avr studio 5.1/extensions/atmel/avrgcc/3.3.1.27/avrtoolchain/bin/../lib/gcc/avr32/4.4.3/../../../../avr32/lib/ucr2\libc.a(lib_a-atoi.o)
 .text          0x00000000        0x0 c:/program files (x86)/atmel/avr studio 5.1/extensions/atmel/avrgcc/3.3.1.27/avrtoolchain/bin/../lib/gcc/avr32/4.4.3/../../../../avr32/lib/ucr2\libc.a(lib_a-errno.o)
 .data          0x00000000        0x0 c:/program files (x86)/atmel/avr studio 5.1/extensions/atmel/avrgcc/3.3.1.27/avrtoolchain/bin/../lib/gcc/avr32/4.4.3/../../../../avr32/lib/ucr2\libc.a(lib_a-errno.o)
 .bss           0x00000000        0x0 c:/program files (x86)/atmel/avr studio 5.1/extensions/atmel/avrgcc/3.3.1.27/avrtoolchain/bin/../lib/gcc/avr32/4.4.3/../../../../avr32/lib/ucr2\libc.a(lib_a-errno.o)
 .text          0x00000000        0x0 c:/program files (x86)/atmel/avr studio 5.1/extensions/atmel/avrgcc/3.3.1.27/avrtoolchain/bin/../lib/gcc/avr32/4.4.3/../../../../avr32/lib/ucr2\libc.a(lib_a-exit.o)
 .data          0x00000000        0x0 c:/program files (x86)/atmel/avr studio 5.1/extensions/atmel/avrgcc/3.3.1.27/avrtoolchain/bin/../lib/gcc/avr32/4.4.3/../../../../avr32/lib/ucr2\libc.a(lib_a-exit.o)
 .bss           0x00000000        0x0 c:/program files (x86)/atmel/avr studio 5.1/extensions/atmel/avrgcc/3.3.1.27/avrtoolchain/bin/../lib/gcc/avr32/4.4.3/../../../../avr32/lib/ucr2\libc.a(lib_a-exit.o)
 .text          0x00000000        0x0 c:/program files (x86)/atmel/avr studio 5.1/extensions/atmel/avrgcc/3.3.1.27/avrtoolchain/bin/../lib/gcc/avr32/4.4.3/../../../../avr32/lib/ucr2\libc.a(lib_a-fflush.o)
 .data          0x00000000        0x0 c:/program files (x86)/atmel/avr studio 5.1/extensions/atmel/avrgcc/3.3.1.27/avrtoolchain/bin/../lib/gcc/avr32/4.4.3/../../../../avr32/lib/ucr2\libc.a(lib_a-fflush.o)
 .bss           0x00000000        0x0 c:/program files (x86)/atmel/avr studio 5.1/extensions/atmel/avrgcc/3.3.1.27/avrtoolchain/bin/../lib/gcc/avr32/4.4.3/../../../../avr32/lib/ucr2\libc.a(lib_a-fflush.o)
 .text          0x00000000        0x0 c:/program files (x86)/atmel/avr studio 5.1/extensions/atmel/avrgcc/3.3.1.27/avrtoolchain/bin/../lib/gcc/avr32/4.4.3/../../../../avr32/lib/ucr2\libc.a(lib_a-findfp.o)
 .data          0x00000000        0x0 c:/program files (x86)/atmel/avr studio 5.1/extensions/atmel/avrgcc/3.3.1.27/avrtoolchain/bin/../lib/gcc/avr32/4.4.3/../../../../avr32/lib/ucr2\libc.a(lib_a-findfp.o)
 .bss           0x00000000        0x0 c:/program files (x86)/atmel/avr studio 5.1/extensions/atmel/avrgcc/3.3.1.27/avrtoolchain/bin/../lib/gcc/avr32/4.4.3/../../../../avr32/lib/ucr2\libc.a(lib_a-findfp.o)
 .text.__sinit_lock_acquire
                0x00000000        0x2 c:/program files (x86)/atmel/avr studio 5.1/extensions/atmel/avrgcc/3.3.1.27/avrtoolchain/bin/../lib/gcc/avr32/4.4.3/../../../../avr32/lib/ucr2\libc.a(lib_a-findfp.o)
 .text.__sinit_lock_release
                0x00000000        0x2 c:/program files (x86)/atmel/avr studio 5.1/extensions/atmel/avrgcc/3.3.1.27/avrtoolchain/bin/../lib/gcc/avr32/4.4.3/../../../../avr32/lib/ucr2\libc.a(lib_a-findfp.o)
 .text.__fp_lock
                0x00000000        0x2 c:/program files (x86)/atmel/avr studio 5.1/extensions/atmel/avrgcc/3.3.1.27/avrtoolchain/bin/../lib/gcc/avr32/4.4.3/../../../../avr32/lib/ucr2\libc.a(lib_a-findfp.o)
 .text.__fp_unlock
                0x00000000        0x2 c:/program files (x86)/atmel/avr studio 5.1/extensions/atmel/avrgcc/3.3.1.27/avrtoolchain/bin/../lib/gcc/avr32/4.4.3/../../../../avr32/lib/ucr2\libc.a(lib_a-findfp.o)
 .text.__fp_unlock_all
                0x00000000       0x1c c:/program files (x86)/atmel/avr studio 5.1/extensions/atmel/avrgcc/3.3.1.27/avrtoolchain/bin/../lib/gcc/avr32/4.4.3/../../../../avr32/lib/ucr2\libc.a(lib_a-findfp.o)
 .text.__fp_lock_all
                0x00000000       0x1c c:/program files (x86)/atmel/avr studio 5.1/extensions/atmel/avrgcc/3.3.1.27/avrtoolchain/bin/../lib/gcc/avr32/4.4.3/../../../../avr32/lib/ucr2\libc.a(lib_a-findfp.o)
 .text._cleanup
                0x00000000       0x14 c:/program files (x86)/atmel/avr studio 5.1/extensions/atmel/avrgcc/3.3.1.27/avrtoolchain/bin/../lib/gcc/avr32/4.4.3/../../../../avr32/lib/ucr2\libc.a(lib_a-findfp.o)
 .text          0x00000000        0x0 c:/program files (x86)/atmel/avr studio 5.1/extensions/atmel/avrgcc/3.3.1.27/avrtoolchain/bin/../lib/gcc/avr32/4.4.3/../../../../avr32/lib/ucr2\libc.a(lib_a-fwalk.o)
 .data          0x00000000        0x0 c:/program files (x86)/atmel/avr studio 5.1/extensions/atmel/avrgcc/3.3.1.27/avrtoolchain/bin/../lib/gcc/avr32/4.4.3/../../../../avr32/lib/ucr2\libc.a(lib_a-fwalk.o)
 .bss           0x00000000        0x0 c:/program files (x86)/atmel/avr studio 5.1/extensions/atmel/avrgcc/3.3.1.27/avrtoolchain/bin/../lib/gcc/avr32/4.4.3/../../../../avr32/lib/ucr2\libc.a(lib_a-fwalk.o)
 .text          0x00000000        0x0 c:/program files (x86)/atmel/avr studio 5.1/extensions/atmel/avrgcc/3.3.1.27/avrtoolchain/bin/../lib/gcc/avr32/4.4.3/../../../../avr32/lib/ucr2\libc.a(lib_a-impure.o)
 .data          0x00000000        0x0 c:/program files (x86)/atmel/avr studio 5.1/extensions/atmel/avrgcc/3.3.1.27/avrtoolchain/bin/../lib/gcc/avr32/4.4.3/../../../../avr32/lib/ucr2\libc.a(lib_a-impure.o)
 .bss           0x00000000        0x0 c:/program files (x86)/atmel/avr studio 5.1/extensions/atmel/avrgcc/3.3.1.27/avrtoolchain/bin/../lib/gcc/avr32/4.4.3/../../../../avr32/lib/ucr2\libc.a(lib_a-impure.o)
 .text          0x00000000        0x0 c:/program files (x86)/atmel/avr studio 5.1/extensions/atmel/avrgcc/3.3.1.27/avrtoolchain/bin/../lib/gcc/avr32/4.4.3/../../../../avr32/lib/ucr2\libc.a(lib_a-malloc.o)
 .data          0x00000000        0x0 c:/program files (x86)/atmel/avr studio 5.1/extensions/atmel/avrgcc/3.3.1.27/avrtoolchain/bin/../lib/gcc/avr32/4.4.3/../../../../avr32/lib/ucr2\libc.a(lib_a-malloc.o)
 .bss           0x00000000        0x0 c:/program files (x86)/atmel/avr studio 5.1/extensions/atmel/avrgcc/3.3.1.27/avrtoolchain/bin/../lib/gcc/avr32/4.4.3/../../../../avr32/lib/ucr2\libc.a(lib_a-malloc.o)
 .text          0x00000000        0x0 c:/program files (x86)/atmel/avr studio 5.1/extensions/atmel/avrgcc/3.3.1.27/avrtoolchain/bin/../lib/gcc/avr32/4.4.3/../../../../avr32/lib/ucr2\libc.a(lib_a-mallocr.o)
 .data          0x00000000        0x0 c:/program files (x86)/atmel/avr studio 5.1/extensions/atmel/avrgcc/3.3.1.27/avrtoolchain/bin/../lib/gcc/avr32/4.4.3/../../../../avr32/lib/ucr2\libc.a(lib_a-mallocr.o)
 .bss           0x00000000        0x0 c:/program files (x86)/atmel/avr studio 5.1/extensions/atmel/avrgcc/3.3.1.27/avrtoolchain/bin/../lib/gcc/avr32/4.4.3/../../../../avr32/lib/ucr2\libc.a(lib_a-mallocr.o)
 .data          0x00000000        0x0 c:/program files (x86)/atmel/avr studio 5.1/extensions/atmel/avrgcc/3.3.1.27/avrtoolchain/bin/../lib/gcc/avr32/4.4.3/../../../../avr32/lib/ucr2\libc.a(lib_a-memcpy.o)
 .bss           0x00000000        0x0 c:/program files (x86)/atmel/avr studio 5.1/extensions/atmel/avrgcc/3.3.1.27/avrtoolchain/bin/../lib/gcc/avr32/4.4.3/../../../../avr32/lib/ucr2\libc.a(lib_a-memcpy.o)
 .text          0x00000000        0x0 c:/program files (x86)/atmel/avr studio 5.1/extensions/atmel/avrgcc/3.3.1.27/avrtoolchain/bin/../lib/gcc/avr32/4.4.3/../../../../avr32/lib/ucr2\libc.a(lib_a-memset.o)
 .data          0x00000000        0x0 c:/program files (x86)/atmel/avr studio 5.1/extensions/atmel/avrgcc/3.3.1.27/avrtoolchain/bin/../lib/gcc/avr32/4.4.3/../../../../avr32/lib/ucr2\libc.a(lib_a-memset.o)
 .bss           0x00000000        0x0 c:/program files (x86)/atmel/avr studio 5.1/extensions/atmel/avrgcc/3.3.1.27/avrtoolchain/bin/../lib/gcc/avr32/4.4.3/../../../../avr32/lib/ucr2\libc.a(lib_a-memset.o)
 .text          0x00000000        0x0 c:/program files (x86)/atmel/avr studio 5.1/extensions/atmel/avrgcc/3.3.1.27/avrtoolchain/bin/../lib/gcc/avr32/4.4.3/../../../../avr32/lib/ucr2\libc.a(lib_a-printf.o)
 .data          0x00000000        0x0 c:/program files (x86)/atmel/avr studio 5.1/extensions/atmel/avrgcc/3.3.1.27/avrtoolchain/bin/../lib/gcc/avr32/4.4.3/../../../../avr32/lib/ucr2\libc.a(lib_a-printf.o)
 .bss           0x00000000        0x0 c:/program files (x86)/atmel/avr studio 5.1/extensions/atmel/avrgcc/3.3.1.27/avrtoolchain/bin/../lib/gcc/avr32/4.4.3/../../../../avr32/lib/ucr2\libc.a(lib_a-printf.o)
 .text._printf_r
                0x00000000       0x30 c:/program files (x86)/atmel/avr studio 5.1/extensions/atmel/avrgcc/3.3.1.27/avrtoolchain/bin/../lib/gcc/avr32/4.4.3/../../../../avr32/lib/ucr2\libc.a(lib_a-printf.o)
 .text          0x00000000        0x0 c:/program files (x86)/atmel/avr studio 5.1/extensions/atmel/avrgcc/3.3.1.27/avrtoolchain/bin/../lib/gcc/avr32/4.4.3/../../../../avr32/lib/ucr2\libc.a(lib_a-putchar.o)
 .data          0x00000000        0x0 c:/program files (x86)/atmel/avr studio 5.1/extensions/atmel/avrgcc/3.3.1.27/avrtoolchain/bin/../lib/gcc/avr32/4.4.3/../../../../avr32/lib/ucr2\libc.a(lib_a-putchar.o)
 .bss           0x00000000        0x0 c:/program files (x86)/atmel/avr studio 5.1/extensions/atmel/avrgcc/3.3.1.27/avrtoolchain/bin/../lib/gcc/avr32/4.4.3/../../../../avr32/lib/ucr2\libc.a(lib_a-putchar.o)
 .text.putchar  0x00000000       0x34 c:/program files (x86)/atmel/avr studio 5.1/extensions/atmel/avrgcc/3.3.1.27/avrtoolchain/bin/../lib/gcc/avr32/4.4.3/../../../../avr32/lib/ucr2\libc.a(lib_a-putchar.o)
 .text._putchar_r
                0x00000000       0x2c c:/program files (x86)/atmel/avr studio 5.1/extensions/atmel/avrgcc/3.3.1.27/avrtoolchain/bin/../lib/gcc/avr32/4.4.3/../../../../avr32/lib/ucr2\libc.a(lib_a-putchar.o)
 .text          0x00000000        0x0 c:/program files (x86)/atmel/avr studio 5.1/extensions/atmel/avrgcc/3.3.1.27/avrtoolchain/bin/../lib/gcc/avr32/4.4.3/../../../../avr32/lib/ucr2\libc.a(lib_a-putc.o)
 .data          0x00000000        0x0 c:/program files (x86)/atmel/avr studio 5.1/extensions/atmel/avrgcc/3.3.1.27/avrtoolchain/bin/../lib/gcc/avr32/4.4.3/../../../../avr32/lib/ucr2\libc.a(lib_a-putc.o)
 .bss           0x00000000        0x0 c:/program files (x86)/atmel/avr studio 5.1/extensions/atmel/avrgcc/3.3.1.27/avrtoolchain/bin/../lib/gcc/avr32/4.4.3/../../../../avr32/lib/ucr2\libc.a(lib_a-putc.o)
 .text._putc_r  0x00000000       0x8c c:/program files (x86)/atmel/avr studio 5.1/extensions/atmel/avrgcc/3.3.1.27/avrtoolchain/bin/../lib/gcc/avr32/4.4.3/../../../../avr32/lib/ucr2\libc.a(lib_a-putc.o)
 .text.putc     0x00000000       0x18 c:/program files (x86)/atmel/avr studio 5.1/extensions/atmel/avrgcc/3.3.1.27/avrtoolchain/bin/../lib/gcc/avr32/4.4.3/../../../../avr32/lib/ucr2\libc.a(lib_a-putc.o)
 .text          0x00000000        0x0 c:/program files (x86)/atmel/avr studio 5.1/extensions/atmel/avrgcc/3.3.1.27/avrtoolchain/bin/../lib/gcc/avr32/4.4.3/../../../../avr32/lib/ucr2\libc.a(lib_a-rand.o)
 .data          0x00000000        0x0 c:/program files (x86)/atmel/avr studio 5.1/extensions/atmel/avrgcc/3.3.1.27/avrtoolchain/bin/../lib/gcc/avr32/4.4.3/../../../../avr32/lib/ucr2\libc.a(lib_a-rand.o)
 .bss           0x00000000        0x0 c:/program files (x86)/atmel/avr studio 5.1/extensions/atmel/avrgcc/3.3.1.27/avrtoolchain/bin/../lib/gcc/avr32/4.4.3/../../../../avr32/lib/ucr2\libc.a(lib_a-rand.o)
 .text.srand    0x00000000       0x58 c:/program files (x86)/atmel/avr studio 5.1/extensions/atmel/avrgcc/3.3.1.27/avrtoolchain/bin/../lib/gcc/avr32/4.4.3/../../../../avr32/lib/ucr2\libc.a(lib_a-rand.o)
 .text          0x00000000        0x0 c:/program files (x86)/atmel/avr studio 5.1/extensions/atmel/avrgcc/3.3.1.27/avrtoolchain/bin/../lib/gcc/avr32/4.4.3/../../../../avr32/lib/ucr2\libc.a(lib_a-realloc.o)
 .data          0x00000000        0x0 c:/program files (x86)/atmel/avr studio 5.1/extensions/atmel/avrgcc/3.3.1.27/avrtoolchain/bin/../lib/gcc/avr32/4.4.3/../../../../avr32/lib/ucr2\libc.a(lib_a-realloc.o)
 .bss           0x00000000        0x0 c:/program files (x86)/atmel/avr studio 5.1/extensions/atmel/avrgcc/3.3.1.27/avrtoolchain/bin/../lib/gcc/avr32/4.4.3/../../../../avr32/lib/ucr2\libc.a(lib_a-realloc.o)
 .text.realloc  0x00000000       0x18 c:/program files (x86)/atmel/avr studio 5.1/extensions/atmel/avrgcc/3.3.1.27/avrtoolchain/bin/../lib/gcc/avr32/4.4.3/../../../../avr32/lib/ucr2\libc.a(lib_a-realloc.o)
 .text          0x00000000        0x0 c:/program files (x86)/atmel/avr studio 5.1/extensions/atmel/avrgcc/3.3.1.27/avrtoolchain/bin/../lib/gcc/avr32/4.4.3/../../../../avr32/lib/ucr2\libc.a(lib_a-reallocr.o)
 .data          0x00000000        0x0 c:/program files (x86)/atmel/avr studio 5.1/extensions/atmel/avrgcc/3.3.1.27/avrtoolchain/bin/../lib/gcc/avr32/4.4.3/../../../../avr32/lib/ucr2\libc.a(lib_a-reallocr.o)
 .bss           0x00000000        0x0 c:/program files (x86)/atmel/avr studio 5.1/extensions/atmel/avrgcc/3.3.1.27/avrtoolchain/bin/../lib/gcc/avr32/4.4.3/../../../../avr32/lib/ucr2\libc.a(lib_a-reallocr.o)
 .text          0x00000000        0x0 c:/program files (x86)/atmel/avr studio 5.1/extensions/atmel/avrgcc/3.3.1.27/avrtoolchain/bin/../lib/gcc/avr32/4.4.3/../../../../avr32/lib/ucr2\libc.a(lib_a-sbrkr.o)
 .data          0x00000000        0x0 c:/program files (x86)/atmel/avr studio 5.1/extensions/atmel/avrgcc/3.3.1.27/avrtoolchain/bin/../lib/gcc/avr32/4.4.3/../../../../avr32/lib/ucr2\libc.a(lib_a-sbrkr.o)
 .bss           0x00000000        0x0 c:/program files (x86)/atmel/avr studio 5.1/extensions/atmel/avrgcc/3.3.1.27/avrtoolchain/bin/../lib/gcc/avr32/4.4.3/../../../../avr32/lib/ucr2\libc.a(lib_a-sbrkr.o)
 .text          0x00000000        0x0 c:/program files (x86)/atmel/avr studio 5.1/extensions/atmel/avrgcc/3.3.1.27/avrtoolchain/bin/../lib/gcc/avr32/4.4.3/../../../../avr32/lib/ucr2\libc.a(lib_a-sprintf.o)
 .data          0x00000000        0x0 c:/program files (x86)/atmel/avr studio 5.1/extensions/atmel/avrgcc/3.3.1.27/avrtoolchain/bin/../lib/gcc/avr32/4.4.3/../../../../avr32/lib/ucr2\libc.a(lib_a-sprintf.o)
 .bss           0x00000000        0x0 c:/program files (x86)/atmel/avr studio 5.1/extensions/atmel/avrgcc/3.3.1.27/avrtoolchain/bin/../lib/gcc/avr32/4.4.3/../../../../avr32/lib/ucr2\libc.a(lib_a-sprintf.o)
 .text._sprintf_r
                0x00000000       0x38 c:/program files (x86)/atmel/avr studio 5.1/extensions/atmel/avrgcc/3.3.1.27/avrtoolchain/bin/../lib/gcc/avr32/4.4.3/../../../../avr32/lib/ucr2\libc.a(lib_a-sprintf.o)
 .text          0x00000000        0x0 c:/program files (x86)/atmel/avr studio 5.1/extensions/atmel/avrgcc/3.3.1.27/avrtoolchain/bin/../lib/gcc/avr32/4.4.3/../../../../avr32/lib/ucr2\libc.a(lib_a-sscanf.o)
 .data          0x00000000        0x0 c:/program files (x86)/atmel/avr studio 5.1/extensions/atmel/avrgcc/3.3.1.27/avrtoolchain/bin/../lib/gcc/avr32/4.4.3/../../../../avr32/lib/ucr2\libc.a(lib_a-sscanf.o)
 .bss           0x00000000        0x0 c:/program files (x86)/atmel/avr studio 5.1/extensions/atmel/avrgcc/3.3.1.27/avrtoolchain/bin/../lib/gcc/avr32/4.4.3/../../../../avr32/lib/ucr2\libc.a(lib_a-sscanf.o)
 .text._sscanf_r
                0x00000000       0x50 c:/program files (x86)/atmel/avr studio 5.1/extensions/atmel/avrgcc/3.3.1.27/avrtoolchain/bin/../lib/gcc/avr32/4.4.3/../../../../avr32/lib/ucr2\libc.a(lib_a-sscanf.o)
 .text          0x00000000        0x0 c:/program files (x86)/atmel/avr studio 5.1/extensions/atmel/avrgcc/3.3.1.27/avrtoolchain/bin/../lib/gcc/avr32/4.4.3/../../../../avr32/lib/ucr2\libc.a(lib_a-stdio.o)
 .data          0x00000000        0x0 c:/program files (x86)/atmel/avr studio 5.1/extensions/atmel/avrgcc/3.3.1.27/avrtoolchain/bin/../lib/gcc/avr32/4.4.3/../../../../avr32/lib/ucr2\libc.a(lib_a-stdio.o)
 .bss           0x00000000        0x0 c:/program files (x86)/atmel/avr studio 5.1/extensions/atmel/avrgcc/3.3.1.27/avrtoolchain/bin/../lib/gcc/avr32/4.4.3/../../../../avr32/lib/ucr2\libc.a(lib_a-stdio.o)
 .text          0x00000000        0x0 c:/program files (x86)/atmel/avr studio 5.1/extensions/atmel/avrgcc/3.3.1.27/avrtoolchain/bin/../lib/gcc/avr32/4.4.3/../../../../avr32/lib/ucr2\libc.a(lib_a-strcat.o)
 .data          0x00000000        0x0 c:/program files (x86)/atmel/avr studio 5.1/extensions/atmel/avrgcc/3.3.1.27/avrtoolchain/bin/../lib/gcc/avr32/4.4.3/../../../../avr32/lib/ucr2\libc.a(lib_a-strcat.o)
 .bss           0x00000000        0x0 c:/program files (x86)/atmel/avr studio 5.1/extensions/atmel/avrgcc/3.3.1.27/avrtoolchain/bin/../lib/gcc/avr32/4.4.3/../../../../avr32/lib/ucr2\libc.a(lib_a-strcat.o)
 .text          0x00000000        0x0 c:/program files (x86)/atmel/avr studio 5.1/extensions/atmel/avrgcc/3.3.1.27/avrtoolchain/bin/../lib/gcc/avr32/4.4.3/../../../../avr32/lib/ucr2\libc.a(lib_a-strlen.o)
 .data          0x00000000        0x0 c:/program files (x86)/atmel/avr studio 5.1/extensions/atmel/avrgcc/3.3.1.27/avrtoolchain/bin/../lib/gcc/avr32/4.4.3/../../../../avr32/lib/ucr2\libc.a(lib_a-strlen.o)
 .bss           0x00000000        0x0 c:/program files (x86)/atmel/avr studio 5.1/extensions/atmel/avrgcc/3.3.1.27/avrtoolchain/bin/../lib/gcc/avr32/4.4.3/../../../../avr32/lib/ucr2\libc.a(lib_a-strlen.o)
 .data          0x00000000        0x0 c:/program files (x86)/atmel/avr studio 5.1/extensions/atmel/avrgcc/3.3.1.27/avrtoolchain/bin/../lib/gcc/avr32/4.4.3/../../../../avr32/lib/ucr2\libc.a(lib_a-strncpy.o)
 .bss           0x00000000        0x0 c:/program files (x86)/atmel/avr studio 5.1/extensions/atmel/avrgcc/3.3.1.27/avrtoolchain/bin/../lib/gcc/avr32/4.4.3/../../../../avr32/lib/ucr2\libc.a(lib_a-strncpy.o)
 .text          0x00000000        0x0 c:/program files (x86)/atmel/avr studio 5.1/extensions/atmel/avrgcc/3.3.1.27/avrtoolchain/bin/../lib/gcc/avr32/4.4.3/../../../../avr32/lib/ucr2\libc.a(lib_a-strtol.o)
 .data          0x00000000        0x0 c:/program files (x86)/atmel/avr studio 5.1/extensions/atmel/avrgcc/3.3.1.27/avrtoolchain/bin/../lib/gcc/avr32/4.4.3/../../../../avr32/lib/ucr2\libc.a(lib_a-strtol.o)
 .bss           0x00000000        0x0 c:/program files (x86)/atmel/avr studio 5.1/extensions/atmel/avrgcc/3.3.1.27/avrtoolchain/bin/../lib/gcc/avr32/4.4.3/../../../../avr32/lib/ucr2\libc.a(lib_a-strtol.o)
 .text          0x00000000        0x0 c:/program files (x86)/atmel/avr studio 5.1/extensions/atmel/avrgcc/3.3.1.27/avrtoolchain/bin/../lib/gcc/avr32/4.4.3/../../../../avr32/lib/ucr2\libc.a(lib_a-vfprintf.o)
 .data          0x00000000        0x0 c:/program files (x86)/atmel/avr studio 5.1/extensions/atmel/avrgcc/3.3.1.27/avrtoolchain/bin/../lib/gcc/avr32/4.4.3/../../../../avr32/lib/ucr2\libc.a(lib_a-vfprintf.o)
 .bss           0x00000000        0x0 c:/program files (x86)/atmel/avr studio 5.1/extensions/atmel/avrgcc/3.3.1.27/avrtoolchain/bin/../lib/gcc/avr32/4.4.3/../../../../avr32/lib/ucr2\libc.a(lib_a-vfprintf.o)
 .text.vfprintf
                0x00000000       0x1c c:/program files (x86)/atmel/avr studio 5.1/extensions/atmel/avrgcc/3.3.1.27/avrtoolchain/bin/../lib/gcc/avr32/4.4.3/../../../../avr32/lib/ucr2\libc.a(lib_a-vfprintf.o)
 .text          0x00000000        0x0 c:/program files (x86)/atmel/avr studio 5.1/extensions/atmel/avrgcc/3.3.1.27/avrtoolchain/bin/../lib/gcc/avr32/4.4.3/../../../../avr32/lib/ucr2\libc.a(lib_a-vfscanf.o)
 .data          0x00000000        0x0 c:/program files (x86)/atmel/avr studio 5.1/extensions/atmel/avrgcc/3.3.1.27/avrtoolchain/bin/../lib/gcc/avr32/4.4.3/../../../../avr32/lib/ucr2\libc.a(lib_a-vfscanf.o)
 .bss           0x00000000        0x0 c:/program files (x86)/atmel/avr studio 5.1/extensions/atmel/avrgcc/3.3.1.27/avrtoolchain/bin/../lib/gcc/avr32/4.4.3/../../../../avr32/lib/ucr2\libc.a(lib_a-vfscanf.o)
 .text.__svfscanf
                0x00000000       0x1c c:/program files (x86)/atmel/avr studio 5.1/extensions/atmel/avrgcc/3.3.1.27/avrtoolchain/bin/../lib/gcc/avr32/4.4.3/../../../../avr32/lib/ucr2\libc.a(lib_a-vfscanf.o)
 .text._vfscanf_r
                0x00000000       0x5c c:/program files (x86)/atmel/avr studio 5.1/extensions/atmel/avrgcc/3.3.1.27/avrtoolchain/bin/../lib/gcc/avr32/4.4.3/../../../../avr32/lib/ucr2\libc.a(lib_a-vfscanf.o)
 .text.vfscanf  0x00000000       0x6c c:/program files (x86)/atmel/avr studio 5.1/extensions/atmel/avrgcc/3.3.1.27/avrtoolchain/bin/../lib/gcc/avr32/4.4.3/../../../../avr32/lib/ucr2\libc.a(lib_a-vfscanf.o)
 .text          0x00000000        0x0 c:/program files (x86)/atmel/avr studio 5.1/extensions/atmel/avrgcc/3.3.1.27/avrtoolchain/bin/../lib/gcc/avr32/4.4.3/../../../../avr32/lib/ucr2\libc.a(lib_a-vsprintf.o)
 .data          0x00000000        0x0 c:/program files (x86)/atmel/avr studio 5.1/extensions/atmel/avrgcc/3.3.1.27/avrtoolchain/bin/../lib/gcc/avr32/4.4.3/../../../../avr32/lib/ucr2\libc.a(lib_a-vsprintf.o)
 .bss           0x00000000        0x0 c:/program files (x86)/atmel/avr studio 5.1/extensions/atmel/avrgcc/3.3.1.27/avrtoolchain/bin/../lib/gcc/avr32/4.4.3/../../../../avr32/lib/ucr2\libc.a(lib_a-vsprintf.o)
 .text          0x00000000        0x0 c:/program files (x86)/atmel/avr studio 5.1/extensions/atmel/avrgcc/3.3.1.27/avrtoolchain/bin/../lib/gcc/avr32/4.4.3/../../../../avr32/lib/ucr2\libc.a(lib_a-wbuf.o)
 .data          0x00000000        0x0 c:/program files (x86)/atmel/avr studio 5.1/extensions/atmel/avrgcc/3.3.1.27/avrtoolchain/bin/../lib/gcc/avr32/4.4.3/../../../../avr32/lib/ucr2\libc.a(lib_a-wbuf.o)
 .bss           0x00000000        0x0 c:/program files (x86)/atmel/avr studio 5.1/extensions/atmel/avrgcc/3.3.1.27/avrtoolchain/bin/../lib/gcc/avr32/4.4.3/../../../../avr32/lib/ucr2\libc.a(lib_a-wbuf.o)
 .text.__swbuf_r
                0x00000000       0xbc c:/program files (x86)/atmel/avr studio 5.1/extensions/atmel/avrgcc/3.3.1.27/avrtoolchain/bin/../lib/gcc/avr32/4.4.3/../../../../avr32/lib/ucr2\libc.a(lib_a-wbuf.o)
 .text.__swbuf  0x00000000       0x18 c:/program files (x86)/atmel/avr studio 5.1/extensions/atmel/avrgcc/3.3.1.27/avrtoolchain/bin/../lib/gcc/avr32/4.4.3/../../../../avr32/lib/ucr2\libc.a(lib_a-wbuf.o)
 .text          0x00000000        0x0 c:/program files (x86)/atmel/avr studio 5.1/extensions/atmel/avrgcc/3.3.1.27/avrtoolchain/bin/../lib/gcc/avr32/4.4.3/../../../../avr32/lib/ucr2\libc.a(lib_a-writer.o)
 .data          0x00000000        0x0 c:/program files (x86)/atmel/avr studio 5.1/extensions/atmel/avrgcc/3.3.1.27/avrtoolchain/bin/../lib/gcc/avr32/4.4.3/../../../../avr32/lib/ucr2\libc.a(lib_a-writer.o)
 .bss           0x00000000        0x0 c:/program files (x86)/atmel/avr studio 5.1/extensions/atmel/avrgcc/3.3.1.27/avrtoolchain/bin/../lib/gcc/avr32/4.4.3/../../../../avr32/lib/ucr2\libc.a(lib_a-writer.o)
 .text          0x00000000        0x0 c:/program files (x86)/atmel/avr studio 5.1/extensions/atmel/avrgcc/3.3.1.27/avrtoolchain/bin/../lib/gcc/avr32/4.4.3/../../../../avr32/lib/ucr2\libc.a(lib_a-wsetup.o)
 .data          0x00000000        0x0 c:/program files (x86)/atmel/avr studio 5.1/extensions/atmel/avrgcc/3.3.1.27/avrtoolchain/bin/../lib/gcc/avr32/4.4.3/../../../../avr32/lib/ucr2\libc.a(lib_a-wsetup.o)
 .bss           0x00000000        0x0 c:/program files (x86)/atmel/avr studio 5.1/extensions/atmel/avrgcc/3.3.1.27/avrtoolchain/bin/../lib/gcc/avr32/4.4.3/../../../../avr32/lib/ucr2\libc.a(lib_a-wsetup.o)
 .text          0x00000000        0x0 c:/program files (x86)/atmel/avr studio 5.1/extensions/atmel/avrgcc/3.3.1.27/avrtoolchain/bin/../lib/gcc/avr32/4.4.3/../../../../avr32/lib/ucr2\libc.a(lib_a-__atexit.o)
 .data          0x00000000        0x0 c:/program files (x86)/atmel/avr studio 5.1/extensions/atmel/avrgcc/3.3.1.27/avrtoolchain/bin/../lib/gcc/avr32/4.4.3/../../../../avr32/lib/ucr2\libc.a(lib_a-__atexit.o)
 .bss           0x00000000        0x0 c:/program files (x86)/atmel/avr studio 5.1/extensions/atmel/avrgcc/3.3.1.27/avrtoolchain/bin/../lib/gcc/avr32/4.4.3/../../../../avr32/lib/ucr2\libc.a(lib_a-__atexit.o)
 .text          0x00000000        0x0 c:/program files (x86)/atmel/avr studio 5.1/extensions/atmel/avrgcc/3.3.1.27/avrtoolchain/bin/../lib/gcc/avr32/4.4.3/../../../../avr32/lib/ucr2\libc.a(lib_a-__call_atexit.o)
 .data          0x00000000        0x0 c:/program files (x86)/atmel/avr studio 5.1/extensions/atmel/avrgcc/3.3.1.27/avrtoolchain/bin/../lib/gcc/avr32/4.4.3/../../../../avr32/lib/ucr2\libc.a(lib_a-__call_atexit.o)
 .bss           0x00000000        0x0 c:/program files (x86)/atmel/avr studio 5.1/extensions/atmel/avrgcc/3.3.1.27/avrtoolchain/bin/../lib/gcc/avr32/4.4.3/../../../../avr32/lib/ucr2\libc.a(lib_a-__call_atexit.o)
 .text          0x00000000        0x0 c:/program files (x86)/atmel/avr studio 5.1/extensions/atmel/avrgcc/3.3.1.27/avrtoolchain/bin/../lib/gcc/avr32/4.4.3/../../../../avr32/lib/ucr2\libc.a(lib_a-closer.o)
 .data          0x00000000        0x0 c:/program files (x86)/atmel/avr studio 5.1/extensions/atmel/avrgcc/3.3.1.27/avrtoolchain/bin/../lib/gcc/avr32/4.4.3/../../../../avr32/lib/ucr2\libc.a(lib_a-closer.o)
 .bss           0x00000000        0x0 c:/program files (x86)/atmel/avr studio 5.1/extensions/atmel/avrgcc/3.3.1.27/avrtoolchain/bin/../lib/gcc/avr32/4.4.3/../../../../avr32/lib/ucr2\libc.a(lib_a-closer.o)
 .text          0x00000000        0x0 c:/program files (x86)/atmel/avr studio 5.1/extensions/atmel/avrgcc/3.3.1.27/avrtoolchain/bin/../lib/gcc/avr32/4.4.3/../../../../avr32/lib/ucr2\libc.a(lib_a-ctype_.o)
 .data          0x00000000        0x0 c:/program files (x86)/atmel/avr studio 5.1/extensions/atmel/avrgcc/3.3.1.27/avrtoolchain/bin/../lib/gcc/avr32/4.4.3/../../../../avr32/lib/ucr2\libc.a(lib_a-ctype_.o)
 .bss           0x00000000        0x0 c:/program files (x86)/atmel/avr studio 5.1/extensions/atmel/avrgcc/3.3.1.27/avrtoolchain/bin/../lib/gcc/avr32/4.4.3/../../../../avr32/lib/ucr2\libc.a(lib_a-ctype_.o)
 .text          0x00000000        0x0 c:/program files (x86)/atmel/avr studio 5.1/extensions/atmel/avrgcc/3.3.1.27/avrtoolchain/bin/../lib/gcc/avr32/4.4.3/../../../../avr32/lib/ucr2\libc.a(lib_a-dtoa.o)
 .data          0x00000000        0x0 c:/program files (x86)/atmel/avr studio 5.1/extensions/atmel/avrgcc/3.3.1.27/avrtoolchain/bin/../lib/gcc/avr32/4.4.3/../../../../avr32/lib/ucr2\libc.a(lib_a-dtoa.o)
 .bss           0x00000000        0x0 c:/program files (x86)/atmel/avr studio 5.1/extensions/atmel/avrgcc/3.3.1.27/avrtoolchain/bin/../lib/gcc/avr32/4.4.3/../../../../avr32/lib/ucr2\libc.a(lib_a-dtoa.o)
 .text          0x00000000        0x0 c:/program files (x86)/atmel/avr studio 5.1/extensions/atmel/avrgcc/3.3.1.27/avrtoolchain/bin/../lib/gcc/avr32/4.4.3/../../../../avr32/lib/ucr2\libc.a(lib_a-fclose.o)
 .data          0x00000000        0x0 c:/program files (x86)/atmel/avr studio 5.1/extensions/atmel/avrgcc/3.3.1.27/avrtoolchain/bin/../lib/gcc/avr32/4.4.3/../../../../avr32/lib/ucr2\libc.a(lib_a-fclose.o)
 .bss           0x00000000        0x0 c:/program files (x86)/atmel/avr studio 5.1/extensions/atmel/avrgcc/3.3.1.27/avrtoolchain/bin/../lib/gcc/avr32/4.4.3/../../../../avr32/lib/ucr2\libc.a(lib_a-fclose.o)
 .text          0x00000000        0x0 c:/program files (x86)/atmel/avr studio 5.1/extensions/atmel/avrgcc/3.3.1.27/avrtoolchain/bin/../lib/gcc/avr32/4.4.3/../../../../avr32/lib/ucr2\libc.a(lib_a-fread.o)
 .data          0x00000000        0x0 c:/program files (x86)/atmel/avr studio 5.1/extensions/atmel/avrgcc/3.3.1.27/avrtoolchain/bin/../lib/gcc/avr32/4.4.3/../../../../avr32/lib/ucr2\libc.a(lib_a-fread.o)
 .bss           0x00000000        0x0 c:/program files (x86)/atmel/avr studio 5.1/extensions/atmel/avrgcc/3.3.1.27/avrtoolchain/bin/../lib/gcc/avr32/4.4.3/../../../../avr32/lib/ucr2\libc.a(lib_a-fread.o)
 .text          0x00000000        0x0 c:/program files (x86)/atmel/avr studio 5.1/extensions/atmel/avrgcc/3.3.1.27/avrtoolchain/bin/../lib/gcc/avr32/4.4.3/../../../../avr32/lib/ucr2\libc.a(lib_a-freer.o)
 .data          0x00000000        0x0 c:/program files (x86)/atmel/avr studio 5.1/extensions/atmel/avrgcc/3.3.1.27/avrtoolchain/bin/../lib/gcc/avr32/4.4.3/../../../../avr32/lib/ucr2\libc.a(lib_a-freer.o)
 .bss           0x00000000        0x0 c:/program files (x86)/atmel/avr studio 5.1/extensions/atmel/avrgcc/3.3.1.27/avrtoolchain/bin/../lib/gcc/avr32/4.4.3/../../../../avr32/lib/ucr2\libc.a(lib_a-freer.o)
 .text          0x00000000        0x0 c:/program files (x86)/atmel/avr studio 5.1/extensions/atmel/avrgcc/3.3.1.27/avrtoolchain/bin/../lib/gcc/avr32/4.4.3/../../../../avr32/lib/ucr2\libc.a(lib_a-fvwrite.o)
 .data          0x00000000        0x0 c:/program files (x86)/atmel/avr studio 5.1/extensions/atmel/avrgcc/3.3.1.27/avrtoolchain/bin/../lib/gcc/avr32/4.4.3/../../../../avr32/lib/ucr2\libc.a(lib_a-fvwrite.o)
 .bss           0x00000000        0x0 c:/program files (x86)/atmel/avr studio 5.1/extensions/atmel/avrgcc/3.3.1.27/avrtoolchain/bin/../lib/gcc/avr32/4.4.3/../../../../avr32/lib/ucr2\libc.a(lib_a-fvwrite.o)
 .text          0x00000000        0x0 c:/program files (x86)/atmel/avr studio 5.1/extensions/atmel/avrgcc/3.3.1.27/avrtoolchain/bin/../lib/gcc/avr32/4.4.3/../../../../avr32/lib/ucr2\libc.a(lib_a-iswspace.o)
 .data          0x00000000        0x0 c:/program files (x86)/atmel/avr studio 5.1/extensions/atmel/avrgcc/3.3.1.27/avrtoolchain/bin/../lib/gcc/avr32/4.4.3/../../../../avr32/lib/ucr2\libc.a(lib_a-iswspace.o)
 .bss           0x00000000        0x0 c:/program files (x86)/atmel/avr studio 5.1/extensions/atmel/avrgcc/3.3.1.27/avrtoolchain/bin/../lib/gcc/avr32/4.4.3/../../../../avr32/lib/ucr2\libc.a(lib_a-iswspace.o)
 .text          0x00000000        0x0 c:/program files (x86)/atmel/avr studio 5.1/extensions/atmel/avrgcc/3.3.1.27/avrtoolchain/bin/../lib/gcc/avr32/4.4.3/../../../../avr32/lib/ucr2\libc.a(lib_a-locale.o)
 .data          0x00000000        0x0 c:/program files (x86)/atmel/avr studio 5.1/extensions/atmel/avrgcc/3.3.1.27/avrtoolchain/bin/../lib/gcc/avr32/4.4.3/../../../../avr32/lib/ucr2\libc.a(lib_a-locale.o)
 .bss           0x00000000        0x0 c:/program files (x86)/atmel/avr studio 5.1/extensions/atmel/avrgcc/3.3.1.27/avrtoolchain/bin/../lib/gcc/avr32/4.4.3/../../../../avr32/lib/ucr2\libc.a(lib_a-locale.o)
 .text.__locale_charset
                0x00000000        0xc c:/program files (x86)/atmel/avr studio 5.1/extensions/atmel/avrgcc/3.3.1.27/avrtoolchain/bin/../lib/gcc/avr32/4.4.3/../../../../avr32/lib/ucr2\libc.a(lib_a-locale.o)
 .text.localeconv
                0x00000000        0x8 c:/program files (x86)/atmel/avr studio 5.1/extensions/atmel/avrgcc/3.3.1.27/avrtoolchain/bin/../lib/gcc/avr32/4.4.3/../../../../avr32/lib/ucr2\libc.a(lib_a-locale.o)
 .text._setlocale_r
                0x00000000       0x3c c:/program files (x86)/atmel/avr studio 5.1/extensions/atmel/avrgcc/3.3.1.27/avrtoolchain/bin/../lib/gcc/avr32/4.4.3/../../../../avr32/lib/ucr2\libc.a(lib_a-locale.o)
 .text.setlocale
                0x00000000       0x18 c:/program files (x86)/atmel/avr studio 5.1/extensions/atmel/avrgcc/3.3.1.27/avrtoolchain/bin/../lib/gcc/avr32/4.4.3/../../../../avr32/lib/ucr2\libc.a(lib_a-locale.o)
 .rodata.charset
                0x00000000        0x4 c:/program files (x86)/atmel/avr studio 5.1/extensions/atmel/avrgcc/3.3.1.27/avrtoolchain/bin/../lib/gcc/avr32/4.4.3/../../../../avr32/lib/ucr2\libc.a(lib_a-locale.o)
 .bss.__nlocale_changed
                0x00000000        0x4 c:/program files (x86)/atmel/avr studio 5.1/extensions/atmel/avrgcc/3.3.1.27/avrtoolchain/bin/../lib/gcc/avr32/4.4.3/../../../../avr32/lib/ucr2\libc.a(lib_a-locale.o)
 .bss.__mlocale_changed
                0x00000000        0x4 c:/program files (x86)/atmel/avr studio 5.1/extensions/atmel/avrgcc/3.3.1.27/avrtoolchain/bin/../lib/gcc/avr32/4.4.3/../../../../avr32/lib/ucr2\libc.a(lib_a-locale.o)
 .bss._PathLocale
                0x00000000        0x4 c:/program files (x86)/atmel/avr studio 5.1/extensions/atmel/avrgcc/3.3.1.27/avrtoolchain/bin/../lib/gcc/avr32/4.4.3/../../../../avr32/lib/ucr2\libc.a(lib_a-locale.o)
 .data.__lc_ctype
                0x00000000        0xc c:/program files (x86)/atmel/avr studio 5.1/extensions/atmel/avrgcc/3.3.1.27/avrtoolchain/bin/../lib/gcc/avr32/4.4.3/../../../../avr32/lib/ucr2\libc.a(lib_a-locale.o)
 .text          0x00000000        0x0 c:/program files (x86)/atmel/avr studio 5.1/extensions/atmel/avrgcc/3.3.1.27/avrtoolchain/bin/../lib/gcc/avr32/4.4.3/../../../../avr32/lib/ucr2\libc.a(lib_a-lseekr.o)
 .data          0x00000000        0x0 c:/program files (x86)/atmel/avr studio 5.1/extensions/atmel/avrgcc/3.3.1.27/avrtoolchain/bin/../lib/gcc/avr32/4.4.3/../../../../avr32/lib/ucr2\libc.a(lib_a-lseekr.o)
 .bss           0x00000000        0x0 c:/program files (x86)/atmel/avr studio 5.1/extensions/atmel/avrgcc/3.3.1.27/avrtoolchain/bin/../lib/gcc/avr32/4.4.3/../../../../avr32/lib/ucr2\libc.a(lib_a-lseekr.o)
 .text          0x00000000        0x0 c:/program files (x86)/atmel/avr studio 5.1/extensions/atmel/avrgcc/3.3.1.27/avrtoolchain/bin/../lib/gcc/avr32/4.4.3/../../../../avr32/lib/ucr2\libc.a(lib_a-makebuf.o)
 .data          0x00000000        0x0 c:/program files (x86)/atmel/avr studio 5.1/extensions/atmel/avrgcc/3.3.1.27/avrtoolchain/bin/../lib/gcc/avr32/4.4.3/../../../../avr32/lib/ucr2\libc.a(lib_a-makebuf.o)
 .bss           0x00000000        0x0 c:/program files (x86)/atmel/avr studio 5.1/extensions/atmel/avrgcc/3.3.1.27/avrtoolchain/bin/../lib/gcc/avr32/4.4.3/../../../../avr32/lib/ucr2\libc.a(lib_a-makebuf.o)
 .text          0x00000000        0x0 c:/program files (x86)/atmel/avr studio 5.1/extensions/atmel/avrgcc/3.3.1.27/avrtoolchain/bin/../lib/gcc/avr32/4.4.3/../../../../avr32/lib/ucr2\libc.a(lib_a-mbrtowc.o)
 .data          0x00000000        0x0 c:/program files (x86)/atmel/avr studio 5.1/extensions/atmel/avrgcc/3.3.1.27/avrtoolchain/bin/../lib/gcc/avr32/4.4.3/../../../../avr32/lib/ucr2\libc.a(lib_a-mbrtowc.o)
 .bss           0x00000000        0x0 c:/program files (x86)/atmel/avr studio 5.1/extensions/atmel/avrgcc/3.3.1.27/avrtoolchain/bin/../lib/gcc/avr32/4.4.3/../../../../avr32/lib/ucr2\libc.a(lib_a-mbrtowc.o)
 .text.mbrtowc  0x00000000       0x1c c:/program files (x86)/atmel/avr studio 5.1/extensions/atmel/avrgcc/3.3.1.27/avrtoolchain/bin/../lib/gcc/avr32/4.4.3/../../../../avr32/lib/ucr2\libc.a(lib_a-mbrtowc.o)
 .text          0x00000000        0x0 c:/program files (x86)/atmel/avr studio 5.1/extensions/atmel/avrgcc/3.3.1.27/avrtoolchain/bin/../lib/gcc/avr32/4.4.3/../../../../avr32/lib/ucr2\libc.a(lib_a-mbtowc_r.o)
 .data          0x00000000        0x0 c:/program files (x86)/atmel/avr studio 5.1/extensions/atmel/avrgcc/3.3.1.27/avrtoolchain/bin/../lib/gcc/avr32/4.4.3/../../../../avr32/lib/ucr2\libc.a(lib_a-mbtowc_r.o)
 .bss           0x00000000        0x0 c:/program files (x86)/atmel/avr studio 5.1/extensions/atmel/avrgcc/3.3.1.27/avrtoolchain/bin/../lib/gcc/avr32/4.4.3/../../../../avr32/lib/ucr2\libc.a(lib_a-mbtowc_r.o)
 .text          0x00000000        0x0 c:/program files (x86)/atmel/avr studio 5.1/extensions/atmel/avrgcc/3.3.1.27/avrtoolchain/bin/../lib/gcc/avr32/4.4.3/../../../../avr32/lib/ucr2\libc.a(lib_a-memchr.o)
 .data          0x00000000        0x0 c:/program files (x86)/atmel/avr studio 5.1/extensions/atmel/avrgcc/3.3.1.27/avrtoolchain/bin/../lib/gcc/avr32/4.4.3/../../../../avr32/lib/ucr2\libc.a(lib_a-memchr.o)
 .bss           0x00000000        0x0 c:/program files (x86)/atmel/avr studio 5.1/extensions/atmel/avrgcc/3.3.1.27/avrtoolchain/bin/../lib/gcc/avr32/4.4.3/../../../../avr32/lib/ucr2\libc.a(lib_a-memchr.o)
 .text          0x00000000        0x0 c:/program files (x86)/atmel/avr studio 5.1/extensions/atmel/avrgcc/3.3.1.27/avrtoolchain/bin/../lib/gcc/avr32/4.4.3/../../../../avr32/lib/ucr2\libc.a(lib_a-memmove.o)
 .data          0x00000000        0x0 c:/program files (x86)/atmel/avr studio 5.1/extensions/atmel/avrgcc/3.3.1.27/avrtoolchain/bin/../lib/gcc/avr32/4.4.3/../../../../avr32/lib/ucr2\libc.a(lib_a-memmove.o)
 .bss           0x00000000        0x0 c:/program files (x86)/atmel/avr studio 5.1/extensions/atmel/avrgcc/3.3.1.27/avrtoolchain/bin/../lib/gcc/avr32/4.4.3/../../../../avr32/lib/ucr2\libc.a(lib_a-memmove.o)
 .text          0x00000000        0x0 c:/program files (x86)/atmel/avr studio 5.1/extensions/atmel/avrgcc/3.3.1.27/avrtoolchain/bin/../lib/gcc/avr32/4.4.3/../../../../avr32/lib/ucr2\libc.a(lib_a-mprec.o)
 .data          0x00000000        0x0 c:/program files (x86)/atmel/avr studio 5.1/extensions/atmel/avrgcc/3.3.1.27/avrtoolchain/bin/../lib/gcc/avr32/4.4.3/../../../../avr32/lib/ucr2\libc.a(lib_a-mprec.o)
 .bss           0x00000000        0x0 c:/program files (x86)/atmel/avr studio 5.1/extensions/atmel/avrgcc/3.3.1.27/avrtoolchain/bin/../lib/gcc/avr32/4.4.3/../../../../avr32/lib/ucr2\libc.a(lib_a-mprec.o)
 .text._mprec_log10
                0x00000000       0x34 c:/program files (x86)/atmel/avr studio 5.1/extensions/atmel/avrgcc/3.3.1.27/avrtoolchain/bin/../lib/gcc/avr32/4.4.3/../../../../avr32/lib/ucr2\libc.a(lib_a-mprec.o)
 .rodata.__mprec_tinytens
                0x00000000       0x28 c:/program files (x86)/atmel/avr studio 5.1/extensions/atmel/avrgcc/3.3.1.27/avrtoolchain/bin/../lib/gcc/avr32/4.4.3/../../../../avr32/lib/ucr2\libc.a(lib_a-mprec.o)
 .text          0x00000000        0x0 c:/program files (x86)/atmel/avr studio 5.1/extensions/atmel/avrgcc/3.3.1.27/avrtoolchain/bin/../lib/gcc/avr32/4.4.3/../../../../avr32/lib/ucr2\libc.a(lib_a-readr.o)
 .data          0x00000000        0x0 c:/program files (x86)/atmel/avr studio 5.1/extensions/atmel/avrgcc/3.3.1.27/avrtoolchain/bin/../lib/gcc/avr32/4.4.3/../../../../avr32/lib/ucr2\libc.a(lib_a-readr.o)
 .bss           0x00000000        0x0 c:/program files (x86)/atmel/avr studio 5.1/extensions/atmel/avrgcc/3.3.1.27/avrtoolchain/bin/../lib/gcc/avr32/4.4.3/../../../../avr32/lib/ucr2\libc.a(lib_a-readr.o)
 .text          0x00000000        0x0 c:/program files (x86)/atmel/avr studio 5.1/extensions/atmel/avrgcc/3.3.1.27/avrtoolchain/bin/../lib/gcc/avr32/4.4.3/../../../../avr32/lib/ucr2\libc.a(lib_a-reent.o)
 .data          0x00000000        0x0 c:/program files (x86)/atmel/avr studio 5.1/extensions/atmel/avrgcc/3.3.1.27/avrtoolchain/bin/../lib/gcc/avr32/4.4.3/../../../../avr32/lib/ucr2\libc.a(lib_a-reent.o)
 .bss           0x00000000        0x0 c:/program files (x86)/atmel/avr studio 5.1/extensions/atmel/avrgcc/3.3.1.27/avrtoolchain/bin/../lib/gcc/avr32/4.4.3/../../../../avr32/lib/ucr2\libc.a(lib_a-reent.o)
 .text._wrapup_reent
                0x00000000       0x3c c:/program files (x86)/atmel/avr studio 5.1/extensions/atmel/avrgcc/3.3.1.27/avrtoolchain/bin/../lib/gcc/avr32/4.4.3/../../../../avr32/lib/ucr2\libc.a(lib_a-reent.o)
 .text.cleanup_glue
                0x00000000       0x24 c:/program files (x86)/atmel/avr studio 5.1/extensions/atmel/avrgcc/3.3.1.27/avrtoolchain/bin/../lib/gcc/avr32/4.4.3/../../../../avr32/lib/ucr2\libc.a(lib_a-reent.o)
 .text._reclaim_reent
                0x00000000       0xd4 c:/program files (x86)/atmel/avr studio 5.1/extensions/atmel/avrgcc/3.3.1.27/avrtoolchain/bin/../lib/gcc/avr32/4.4.3/../../../../avr32/lib/ucr2\libc.a(lib_a-reent.o)
 .text          0x00000000        0x0 c:/program files (x86)/atmel/avr studio 5.1/extensions/atmel/avrgcc/3.3.1.27/avrtoolchain/bin/../lib/gcc/avr32/4.4.3/../../../../avr32/lib/ucr2\libc.a(lib_a-refill.o)
 .data          0x00000000        0x0 c:/program files (x86)/atmel/avr studio 5.1/extensions/atmel/avrgcc/3.3.1.27/avrtoolchain/bin/../lib/gcc/avr32/4.4.3/../../../../avr32/lib/ucr2\libc.a(lib_a-refill.o)
 .bss           0x00000000        0x0 c:/program files (x86)/atmel/avr studio 5.1/extensions/atmel/avrgcc/3.3.1.27/avrtoolchain/bin/../lib/gcc/avr32/4.4.3/../../../../avr32/lib/ucr2\libc.a(lib_a-refill.o)
 .text          0x00000000        0x0 c:/program files (x86)/atmel/avr studio 5.1/extensions/atmel/avrgcc/3.3.1.27/avrtoolchain/bin/../lib/gcc/avr32/4.4.3/../../../../avr32/lib/ucr2\libc.a(lib_a-sccl.o)
 .data          0x00000000        0x0 c:/program files (x86)/atmel/avr studio 5.1/extensions/atmel/avrgcc/3.3.1.27/avrtoolchain/bin/../lib/gcc/avr32/4.4.3/../../../../avr32/lib/ucr2\libc.a(lib_a-sccl.o)
 .bss           0x00000000        0x0 c:/program files (x86)/atmel/avr studio 5.1/extensions/atmel/avrgcc/3.3.1.27/avrtoolchain/bin/../lib/gcc/avr32/4.4.3/../../../../avr32/lib/ucr2\libc.a(lib_a-sccl.o)
 .text          0x00000000        0x0 c:/program files (x86)/atmel/avr studio 5.1/extensions/atmel/avrgcc/3.3.1.27/avrtoolchain/bin/../lib/gcc/avr32/4.4.3/../../../../avr32/lib/ucr2\libc.a(lib_a-sf_nan.o)
 .data          0x00000000        0x0 c:/program files (x86)/atmel/avr studio 5.1/extensions/atmel/avrgcc/3.3.1.27/avrtoolchain/bin/../lib/gcc/avr32/4.4.3/../../../../avr32/lib/ucr2\libc.a(lib_a-sf_nan.o)
 .bss           0x00000000        0x0 c:/program files (x86)/atmel/avr studio 5.1/extensions/atmel/avrgcc/3.3.1.27/avrtoolchain/bin/../lib/gcc/avr32/4.4.3/../../../../avr32/lib/ucr2\libc.a(lib_a-sf_nan.o)
 .text          0x00000000        0x0 c:/program files (x86)/atmel/avr studio 5.1/extensions/atmel/avrgcc/3.3.1.27/avrtoolchain/bin/../lib/gcc/avr32/4.4.3/../../../../avr32/lib/ucr2\libc.a(lib_a-s_isinfd.o)
 .data          0x00000000        0x0 c:/program files (x86)/atmel/avr studio 5.1/extensions/atmel/avrgcc/3.3.1.27/avrtoolchain/bin/../lib/gcc/avr32/4.4.3/../../../../avr32/lib/ucr2\libc.a(lib_a-s_isinfd.o)
 .bss           0x00000000        0x0 c:/program files (x86)/atmel/avr studio 5.1/extensions/atmel/avrgcc/3.3.1.27/avrtoolchain/bin/../lib/gcc/avr32/4.4.3/../../../../avr32/lib/ucr2\libc.a(lib_a-s_isinfd.o)
 .text          0x00000000        0x0 c:/program files (x86)/atmel/avr studio 5.1/extensions/atmel/avrgcc/3.3.1.27/avrtoolchain/bin/../lib/gcc/avr32/4.4.3/../../../../avr32/lib/ucr2\libc.a(lib_a-s_isnand.o)
 .data          0x00000000        0x0 c:/program files (x86)/atmel/avr studio 5.1/extensions/atmel/avrgcc/3.3.1.27/avrtoolchain/bin/../lib/gcc/avr32/4.4.3/../../../../avr32/lib/ucr2\libc.a(lib_a-s_isnand.o)
 .bss           0x00000000        0x0 c:/program files (x86)/atmel/avr studio 5.1/extensions/atmel/avrgcc/3.3.1.27/avrtoolchain/bin/../lib/gcc/avr32/4.4.3/../../../../avr32/lib/ucr2\libc.a(lib_a-s_isnand.o)
 .text          0x00000000       0xa8 c:/program files (x86)/atmel/avr studio 5.1/extensions/atmel/avrgcc/3.3.1.27/avrtoolchain/bin/../lib/gcc/avr32/4.4.3/../../../../avr32/lib/ucr2\libc.a(lib_a-strcmp.o)
 .data          0x00000000        0x0 c:/program files (x86)/atmel/avr studio 5.1/extensions/atmel/avrgcc/3.3.1.27/avrtoolchain/bin/../lib/gcc/avr32/4.4.3/../../../../avr32/lib/ucr2\libc.a(lib_a-strcmp.o)
 .bss           0x00000000        0x0 c:/program files (x86)/atmel/avr studio 5.1/extensions/atmel/avrgcc/3.3.1.27/avrtoolchain/bin/../lib/gcc/avr32/4.4.3/../../../../avr32/lib/ucr2\libc.a(lib_a-strcmp.o)
 .text          0x00000000        0x0 c:/program files (x86)/atmel/avr studio 5.1/extensions/atmel/avrgcc/3.3.1.27/avrtoolchain/bin/../lib/gcc/avr32/4.4.3/../../../../avr32/lib/ucr2\libc.a(lib_a-strtod.o)
 .data          0x00000000        0x0 c:/program files (x86)/atmel/avr studio 5.1/extensions/atmel/avrgcc/3.3.1.27/avrtoolchain/bin/../lib/gcc/avr32/4.4.3/../../../../avr32/lib/ucr2\libc.a(lib_a-strtod.o)
 .bss           0x00000000        0x0 c:/program files (x86)/atmel/avr studio 5.1/extensions/atmel/avrgcc/3.3.1.27/avrtoolchain/bin/../lib/gcc/avr32/4.4.3/../../../../avr32/lib/ucr2\libc.a(lib_a-strtod.o)
 .text.strtof   0x00000000       0x40 c:/program files (x86)/atmel/avr studio 5.1/extensions/atmel/avrgcc/3.3.1.27/avrtoolchain/bin/../lib/gcc/avr32/4.4.3/../../../../avr32/lib/ucr2\libc.a(lib_a-strtod.o)
 .text.strtod   0x00000000       0x18 c:/program files (x86)/atmel/avr studio 5.1/extensions/atmel/avrgcc/3.3.1.27/avrtoolchain/bin/../lib/gcc/avr32/4.4.3/../../../../avr32/lib/ucr2\libc.a(lib_a-strtod.o)
 .text          0x00000000        0x0 c:/program files (x86)/atmel/avr studio 5.1/extensions/atmel/avrgcc/3.3.1.27/avrtoolchain/bin/../lib/gcc/avr32/4.4.3/../../../../avr32/lib/ucr2\libc.a(lib_a-strtoll_r.o)
 .data          0x00000000        0x0 c:/program files (x86)/atmel/avr studio 5.1/extensions/atmel/avrgcc/3.3.1.27/avrtoolchain/bin/../lib/gcc/avr32/4.4.3/../../../../avr32/lib/ucr2\libc.a(lib_a-strtoll_r.o)
 .bss           0x00000000        0x0 c:/program files (x86)/atmel/avr studio 5.1/extensions/atmel/avrgcc/3.3.1.27/avrtoolchain/bin/../lib/gcc/avr32/4.4.3/../../../../avr32/lib/ucr2\libc.a(lib_a-strtoll_r.o)
 .text          0x00000000        0x0 c:/program files (x86)/atmel/avr studio 5.1/extensions/atmel/avrgcc/3.3.1.27/avrtoolchain/bin/../lib/gcc/avr32/4.4.3/../../../../avr32/lib/ucr2\libc.a(lib_a-strtoull_r.o)
 .data          0x00000000        0x0 c:/program files (x86)/atmel/avr studio 5.1/extensions/atmel/avrgcc/3.3.1.27/avrtoolchain/bin/../lib/gcc/avr32/4.4.3/../../../../avr32/lib/ucr2\libc.a(lib_a-strtoull_r.o)
 .bss           0x00000000        0x0 c:/program files (x86)/atmel/avr studio 5.1/extensions/atmel/avrgcc/3.3.1.27/avrtoolchain/bin/../lib/gcc/avr32/4.4.3/../../../../avr32/lib/ucr2\libc.a(lib_a-strtoull_r.o)
 .text          0x00000000        0x0 c:/program files (x86)/atmel/avr studio 5.1/extensions/atmel/avrgcc/3.3.1.27/avrtoolchain/bin/../lib/gcc/avr32/4.4.3/../../../../avr32/lib/ucr2\libc.a(lib_a-strtoul.o)
 .data          0x00000000        0x0 c:/program files (x86)/atmel/avr studio 5.1/extensions/atmel/avrgcc/3.3.1.27/avrtoolchain/bin/../lib/gcc/avr32/4.4.3/../../../../avr32/lib/ucr2\libc.a(lib_a-strtoul.o)
 .bss           0x00000000        0x0 c:/program files (x86)/atmel/avr studio 5.1/extensions/atmel/avrgcc/3.3.1.27/avrtoolchain/bin/../lib/gcc/avr32/4.4.3/../../../../avr32/lib/ucr2\libc.a(lib_a-strtoul.o)
 .text.strtoul  0x00000000       0x1c c:/program files (x86)/atmel/avr studio 5.1/extensions/atmel/avrgcc/3.3.1.27/avrtoolchain/bin/../lib/gcc/avr32/4.4.3/../../../../avr32/lib/ucr2\libc.a(lib_a-strtoul.o)
 .text          0x00000000        0x0 c:/program files (x86)/atmel/avr studio 5.1/extensions/atmel/avrgcc/3.3.1.27/avrtoolchain/bin/../lib/gcc/avr32/4.4.3/../../../../avr32/lib/ucr2\libc.a(lib_a-ungetc.o)
 .data          0x00000000        0x0 c:/program files (x86)/atmel/avr studio 5.1/extensions/atmel/avrgcc/3.3.1.27/avrtoolchain/bin/../lib/gcc/avr32/4.4.3/../../../../avr32/lib/ucr2\libc.a(lib_a-ungetc.o)
 .bss           0x00000000        0x0 c:/program files (x86)/atmel/avr studio 5.1/extensions/atmel/avrgcc/3.3.1.27/avrtoolchain/bin/../lib/gcc/avr32/4.4.3/../../../../avr32/lib/ucr2\libc.a(lib_a-ungetc.o)
 .text.ungetc   0x00000000       0x18 c:/program files (x86)/atmel/avr studio 5.1/extensions/atmel/avrgcc/3.3.1.27/avrtoolchain/bin/../lib/gcc/avr32/4.4.3/../../../../avr32/lib/ucr2\libc.a(lib_a-ungetc.o)
 .text          0x00000000        0x0 c:/program files (x86)/atmel/avr studio 5.1/extensions/atmel/avrgcc/3.3.1.27/avrtoolchain/bin/../lib/gcc/avr32/4.4.3/../../../../avr32/lib/ucr2\libc.a(lib_a-callocr.o)
 .data          0x00000000        0x0 c:/program files (x86)/atmel/avr studio 5.1/extensions/atmel/avrgcc/3.3.1.27/avrtoolchain/bin/../lib/gcc/avr32/4.4.3/../../../../avr32/lib/ucr2\libc.a(lib_a-callocr.o)
 .bss           0x00000000        0x0 c:/program files (x86)/atmel/avr studio 5.1/extensions/atmel/avrgcc/3.3.1.27/avrtoolchain/bin/../lib/gcc/avr32/4.4.3/../../../../avr32/lib/ucr2\libc.a(lib_a-callocr.o)
 .text          0x00000000        0x0 c:/program files (x86)/atmel/avr studio 5.1/extensions/atmel/avrgcc/3.3.1.27/avrtoolchain/bin/../lib/gcc/avr32/4.4.3/../../../../avr32/lib/ucr2\libc.a(lib_a-fstatr.o)
 .data          0x00000000        0x0 c:/program files (x86)/atmel/avr studio 5.1/extensions/atmel/avrgcc/3.3.1.27/avrtoolchain/bin/../lib/gcc/avr32/4.4.3/../../../../avr32/lib/ucr2\libc.a(lib_a-fstatr.o)
 .bss           0x00000000        0x0 c:/program files (x86)/atmel/avr studio 5.1/extensions/atmel/avrgcc/3.3.1.27/avrtoolchain/bin/../lib/gcc/avr32/4.4.3/../../../../avr32/lib/ucr2\libc.a(lib_a-fstatr.o)
 .text          0x00000000        0x0 c:/program files (x86)/atmel/avr studio 5.1/extensions/atmel/avrgcc/3.3.1.27/avrtoolchain/bin/../lib/gcc/avr32/4.4.3/../../../../avr32/lib/ucr2\libc.a(lib_a-gdtoa-gethex.o)
 .data          0x00000000        0x0 c:/program files (x86)/atmel/avr studio 5.1/extensions/atmel/avrgcc/3.3.1.27/avrtoolchain/bin/../lib/gcc/avr32/4.4.3/../../../../avr32/lib/ucr2\libc.a(lib_a-gdtoa-gethex.o)
 .bss           0x00000000        0x0 c:/program files (x86)/atmel/avr studio 5.1/extensions/atmel/avrgcc/3.3.1.27/avrtoolchain/bin/../lib/gcc/avr32/4.4.3/../../../../avr32/lib/ucr2\libc.a(lib_a-gdtoa-gethex.o)
 .text          0x00000000        0x0 c:/program files (x86)/atmel/avr studio 5.1/extensions/atmel/avrgcc/3.3.1.27/avrtoolchain/bin/../lib/gcc/avr32/4.4.3/../../../../avr32/lib/ucr2\libc.a(lib_a-gdtoa-hexnan.o)
 .data          0x00000000        0x0 c:/program files (x86)/atmel/avr studio 5.1/extensions/atmel/avrgcc/3.3.1.27/avrtoolchain/bin/../lib/gcc/avr32/4.4.3/../../../../avr32/lib/ucr2\libc.a(lib_a-gdtoa-hexnan.o)
 .bss           0x00000000        0x0 c:/program files (x86)/atmel/avr studio 5.1/extensions/atmel/avrgcc/3.3.1.27/avrtoolchain/bin/../lib/gcc/avr32/4.4.3/../../../../avr32/lib/ucr2\libc.a(lib_a-gdtoa-hexnan.o)
 .data          0x00000000        0x0 c:/program files (x86)/atmel/avr studio 5.1/extensions/atmel/avrgcc/3.3.1.27/avrtoolchain/bin/../lib/gcc/avr32/4.4.3/ucr2\libgcc.a(_avr32_f64_cmp_eq.o)
 .bss           0x00000000        0x0 c:/program files (x86)/atmel/avr studio 5.1/extensions/atmel/avrgcc/3.3.1.27/avrtoolchain/bin/../lib/gcc/avr32/4.4.3/ucr2\libgcc.a(_avr32_f64_cmp_eq.o)
 .data          0x00000000        0x0 c:/program files (x86)/atmel/avr studio 5.1/extensions/atmel/avrgcc/3.3.1.27/avrtoolchain/bin/../lib/gcc/avr32/4.4.3/ucr2\libgcc.a(_avr32_f64_cmp_ge.o)
 .bss           0x00000000        0x0 c:/program files (x86)/atmel/avr studio 5.1/extensions/atmel/avrgcc/3.3.1.27/avrtoolchain/bin/../lib/gcc/avr32/4.4.3/ucr2\libgcc.a(_avr32_f64_cmp_ge.o)
 .data          0x00000000        0x0 c:/program files (x86)/atmel/avr studio 5.1/extensions/atmel/avrgcc/3.3.1.27/avrtoolchain/bin/../lib/gcc/avr32/4.4.3/ucr2\libgcc.a(_avr32_f64_to_f32.o)
 .bss           0x00000000        0x0 c:/program files (x86)/atmel/avr studio 5.1/extensions/atmel/avrgcc/3.3.1.27/avrtoolchain/bin/../lib/gcc/avr32/4.4.3/ucr2\libgcc.a(_avr32_f64_to_f32.o)
 .data          0x00000000        0x0 c:/program files (x86)/atmel/avr studio 5.1/extensions/atmel/avrgcc/3.3.1.27/avrtoolchain/bin/../lib/gcc/avr32/4.4.3/ucr2\libgcc.a(_umoddi3.o)
 .bss           0x00000000        0x0 c:/program files (x86)/atmel/avr studio 5.1/extensions/atmel/avrgcc/3.3.1.27/avrtoolchain/bin/../lib/gcc/avr32/4.4.3/ucr2\libgcc.a(_umoddi3.o)
 .data          0x00000000        0x0 c:/program files (x86)/atmel/avr studio 5.1/extensions/atmel/avrgcc/3.3.1.27/avrtoolchain/bin/../lib/gcc/avr32/4.4.3/ucr2/crtend.o
 .bss           0x00000000        0x0 c:/program files (x86)/atmel/avr studio 5.1/extensions/atmel/avrgcc/3.3.1.27/avrtoolchain/bin/../lib/gcc/avr32/4.4.3/ucr2/crtend.o
 .text          0x00000000        0x0 c:/program files (x86)/atmel/avr studio 5.1/extensions/atmel/avrgcc/3.3.1.27/avrtoolchain/bin/../lib/gcc/avr32/4.4.3/ucr2/crtn.o
 .data          0x00000000        0x0 c:/program files (x86)/atmel/avr studio 5.1/extensions/atmel/avrgcc/3.3.1.27/avrtoolchain/bin/../lib/gcc/avr32/4.4.3/ucr2/crtn.o
 .bss           0x00000000        0x0 c:/program files (x86)/atmel/avr studio 5.1/extensions/atmel/avrgcc/3.3.1.27/avrtoolchain/bin/../lib/gcc/avr32/4.4.3/ucr2/crtn.o

Memory Configuration

Name             Origin             Length             Attributes
FLASH            0x80000000         0x00040000         axrl !w
CPUSRAM          0x00000004         0x0000fffc         axw !rl
USERPAGE         0x80800000         0x00000200
FACTORYPAGE      0x80800200         0x00000200
*default*        0x00000000         0xffffffff

Linker script and memory map

                0x00001000                _stack_size = 0x1000
LOAD c:/program files (x86)/atmel/avr studio 5.1/extensions/atmel/avrgcc/3.3.1.27/avrtoolchain/bin/../lib/gcc/avr32/4.4.3/../../../../avr32/lib/ucr2/crt0.o
LOAD c:/program files (x86)/atmel/avr studio 5.1/extensions/atmel/avrgcc/3.3.1.27/avrtoolchain/bin/../lib/gcc/avr32/4.4.3/ucr2/crti.o
LOAD c:/program files (x86)/atmel/avr studio 5.1/extensions/atmel/avrgcc/3.3.1.27/avrtoolchain/bin/../lib/gcc/avr32/4.4.3/ucr2/crtbegin.o
LOAD AVR32_LIBS/COMPONENTS/AD5410/ad5410.o
LOAD AVR32_LIBS/COMPONENTS/AT86RF231/at86rf231.o
LOAD AVR32_LIBS/COMPONENTS/AT86RF231/pal_trx_access.o
LOAD AVR32_LIBS/COMPONENTS/TCA6424/tca6424.o
LOAD AVR32_LIBS/DRIVERS/ADC/adc.o
LOAD AVR32_LIBS/DRIVERS/EIC/eic.o
LOAD AVR32_LIBS/DRIVERS/FLASHC/flashc.o
LOAD AVR32_LIBS/DRIVERS/GPIO/gpio.o
LOAD AVR32_LIBS/DRIVERS/INTC/intc.o
LOAD AVR32_LIBS/DRIVERS/PDCA/pdca.o
LOAD AVR32_LIBS/DRIVERS/PM/pm.o
LOAD AVR32_LIBS/DRIVERS/PM/pm_conf_clocks.o
LOAD AVR32_LIBS/DRIVERS/PWM/pwm.o
LOAD AVR32_LIBS/DRIVERS/RTC/rtc.o
LOAD AVR32_LIBS/DRIVERS/SPI/spi.o
LOAD AVR32_LIBS/DRIVERS/TWI/twi.o
LOAD AVR32_LIBS/DRIVERS/USART/usart.o
LOAD AVR32_LIBS/DRIVERS/USBB/ENUM/DEVICE/usb_device_task.o
LOAD AVR32_LIBS/DRIVERS/USBB/ENUM/DEVICE/usb_standard_request.o
LOAD AVR32_LIBS/DRIVERS/USBB/ENUM/usb_task.o
LOAD AVR32_LIBS/DRIVERS/USBB/usb_drv.o
LOAD AVR32_LIBS/DRIVERS/WDT/wdt.o
LOAD AVR32_LIBS/SERVICES/DELAY/delay.o
LOAD AVR32_LIBS/SERVICES/FREERTOS/Source/croutine.o
LOAD AVR32_LIBS/SERVICES/FREERTOS/Source/list.o
LOAD AVR32_LIBS/SERVICES/FREERTOS/Source/portable/GCC/AVR32_UC3/exception.o
LOAD AVR32_LIBS/SERVICES/FREERTOS/Source/portable/GCC/AVR32_UC3/port.o
LOAD AVR32_LIBS/SERVICES/FREERTOS/Source/portable/MemMang/heap_3.o
LOAD AVR32_LIBS/SERVICES/FREERTOS/Source/queue.o
LOAD AVR32_LIBS/SERVICES/FREERTOS/Source/tasks.o
LOAD AVR32_LIBS/SERVICES/USB/CLASS/CDC/EXAMPLES/ENUM/DEVICE/usb_descriptors.o
LOAD AVR32_LIBS/SERVICES/USB/CLASS/CDC/EXAMPLES/ENUM/DEVICE/usb_specific_request.o
LOAD AVR32_LIBS/SERVICES/USB/CLASS/CDC/EXAMPLES/uart_usb_lib.o
LOAD AVR32_LIBS/SERVICES/USB/CLASS/DFU/EXAMPLES/ISP/BOOT/trampoline.o
LOAD spike_fw_update.o
LOAD main.o
LOAD main_app.o
LOAD security_task.o
LOAD terminal/printf-stdarg.o
LOAD terminal/usb/usb.o
LOAD ../AVR32_LIBS/UTILS/LIBS/NEWLIB_ADDONS/AT32UCR2\libnewlib_addons-at32ucr2-speed_opt.a
LOAD c:/program files (x86)/atmel/avr studio 5.1/extensions/atmel/avrgcc/3.3.1.27/avrtoolchain/bin/../lib/gcc/avr32/4.4.3/ucr2\libgcc.a
LOAD c:/program files (x86)/atmel/avr studio 5.1/extensions/atmel/avrgcc/3.3.1.27/avrtoolchain/bin/../lib/gcc/avr32/4.4.3/../../../../avr32/lib/ucr2\libc.a
LOAD c:/program files (x86)/atmel/avr studio 5.1/extensions/atmel/avrgcc/3.3.1.27/avrtoolchain/bin/../lib/gcc/avr32/4.4.3/ucr2\libgcc.a
LOAD c:/program files (x86)/atmel/avr studio 5.1/extensions/atmel/avrgcc/3.3.1.27/avrtoolchain/bin/../lib/gcc/avr32/4.4.3/ucr2/crtend.o
LOAD c:/program files (x86)/atmel/avr studio 5.1/extensions/atmel/avrgcc/3.3.1.27/avrtoolchain/bin/../lib/gcc/avr32/4.4.3/ucr2/crtn.o
                0x80000000                PROVIDE (__executable_start, 0x80000000)
                0x80000000                . = 0x80000000

.interp
 *(.interp)

.reset          0x80000000        0x8
 *(.reset)
 .reset         0x80000000        0x8 c:/program files (x86)/atmel/avr studio 5.1/extensions/atmel/avrgcc/3.3.1.27/avrtoolchain/bin/../lib/gcc/avr32/4.4.3/../../../../avr32/lib/ucr2/crt0.o
                0x80000000                _start

.hash
 *(.hash)

.dynsym
 *(.dynsym)

.dynstr
 *(.dynstr)

.gnu.version
 *(.gnu.version)

.gnu.version_d
 *(.gnu.version_d)

.gnu.version_r
 *(.gnu.version_r)

.rel.init
 *(.rel.init)

.rela.init
 *(.rela.init)

.rel.text
 *(.rel.text .rel.text.* .rel.gnu.linkonce.t.*)

.rela.text
 *(.rela.text .rela.text.* .rela.gnu.linkonce.t.*)

.rel.fini
 *(.rel.fini)

.rela.fini
 *(.rela.fini)

.rel.rodata
 *(.rel.rodata .rel.rodata.* .rel.gnu.linkonce.r.*)

.rela.rodata
 *(.rela.rodata .rela.rodata.* .rela.gnu.linkonce.r.*)

.rel.data.rel.ro
 *(.rel.data.rel.ro*)

.rela.data.rel.ro
 *(.rel.data.rel.ro*)

.rel.data
 *(.rel.data .rel.data.* .rel.gnu.linkonce.d.*)

.rela.data
 *(.rela.data .rela.data.* .rela.gnu.linkonce.d.*)

.rel.tdata
 *(.rel.tdata .rel.tdata.* .rel.gnu.linkonce.td.*)

.rela.tdata
 *(.rela.tdata .rela.tdata.* .rela.gnu.linkonce.td.*)

.rel.tbss
 *(.rel.tbss .rel.tbss.* .rel.gnu.linkonce.tb.*)

.rela.tbss
 *(.rela.tbss .rela.tbss.* .rela.gnu.linkonce.tb.*)

.rel.ctors
 *(.rel.ctors)

.rela.ctors
 *(.rela.ctors)

.rel.dtors
 *(.rel.dtors)

.rela.dtors
 *(.rela.dtors)

.rel.got
 *(.rel.got)

.rela.got       0x80000008        0x0
 *(.rela.got)
 .rela.got      0x80000008        0x0 c:/program files (x86)/atmel/avr studio 5.1/extensions/atmel/avrgcc/3.3.1.27/avrtoolchain/bin/../lib/gcc/avr32/4.4.3/../../../../avr32/lib/ucr2/crt0.o

.rel.bss
 *(.rel.bss .rel.bss.* .rel.gnu.linkonce.b.*)

.rela.bss
 *(.rela.bss .rela.bss.* .rela.gnu.linkonce.b.*)

.rel.plt
 *(.rel.plt)

.rela.plt
 *(.rela.plt)

.init           0x80000008       0x1c
 *(.init)
 .init          0x80000008       0x10 c:/program files (x86)/atmel/avr studio 5.1/extensions/atmel/avrgcc/3.3.1.27/avrtoolchain/bin/../lib/gcc/avr32/4.4.3/ucr2/crti.o
                0x80000008                _init
 .init          0x80000018        0x4 c:/program files (x86)/atmel/avr studio 5.1/extensions/atmel/avrgcc/3.3.1.27/avrtoolchain/bin/../lib/gcc/avr32/4.4.3/ucr2/crtbegin.o
 .init          0x8000001c        0x4 c:/program files (x86)/atmel/avr studio 5.1/extensions/atmel/avrgcc/3.3.1.27/avrtoolchain/bin/../lib/gcc/avr32/4.4.3/ucr2/crtend.o
 .init          0x80000020        0x4 c:/program files (x86)/atmel/avr studio 5.1/extensions/atmel/avrgcc/3.3.1.27/avrtoolchain/bin/../lib/gcc/avr32/4.4.3/ucr2/crtn.o

.plt
 *(.plt)

.text           0x80000024    0x1fd44
 *(.text .stub .text.* .gnu.linkonce.t.*)
 .text          0x80000024       0x84 c:/program files (x86)/atmel/avr studio 5.1/extensions/atmel/avrgcc/3.3.1.27/avrtoolchain/bin/../lib/gcc/avr32/4.4.3/../../../../avr32/lib/ucr2/crt0.o
                0x80000024                _stext
 .text          0x800000a8       0x64 c:/program files (x86)/atmel/avr studio 5.1/extensions/atmel/avrgcc/3.3.1.27/avrtoolchain/bin/../lib/gcc/avr32/4.4.3/ucr2/crtbegin.o
 .text          0x8000010c       0x5c AVR32_LIBS/COMPONENTS/AT86RF231/at86rf231.o
 .text.bswap_16
                0x80000168       0x30 AVR32_LIBS/COMPONENTS/AT86RF231/at86rf231.o
 .text.init_at86rf231
                0x80000198      0x230 AVR32_LIBS/COMPONENTS/AT86RF231/at86rf231.o
                0x80000198                init_at86rf231
 .text.send_frame
                0x800003c8      0x100 AVR32_LIBS/COMPONENTS/AT86RF231/at86rf231.o
                0x800003c8                send_frame
 .text.handle_tx_end_irq
                0x800004c8       0x24 AVR32_LIBS/COMPONENTS/AT86RF231/at86rf231.o
                0x800004c8                handle_tx_end_irq
 .text.handle_received_frame_irq
                0x800004ec      0x1b4 AVR32_LIBS/COMPONENTS/AT86RF231/at86rf231.o
                0x800004ec                handle_received_frame_irq
 .text.set_trx_state
                0x800006a0      0x318 AVR32_LIBS/COMPONENTS/AT86RF231/at86rf231.o
                0x800006a0                set_trx_state
 .text.switch_pll_on
                0x800009b8       0x60 AVR32_LIBS/COMPONENTS/AT86RF231/at86rf231.o
                0x800009b8                switch_pll_on
 .text.apply_channel_page_configuration
                0x80000a18       0xd4 AVR32_LIBS/COMPONENTS/AT86RF231/at86rf231.o
                0x80000a18                apply_channel_page_configuration
 .text.at86rf231_rx_with_auto_ack
                0x80000aec       0x30 AVR32_LIBS/COMPONENTS/AT86RF231/at86rf231.o
                0x80000aec                at86rf231_rx_with_auto_ack
 .text.trx_config_csma
                0x80000b1c       0x3c AVR32_LIBS/COMPONENTS/AT86RF231/at86rf231.o
                0x80000b1c                trx_config_csma
 .text.at86rf231_change_channel
                0x80000b58       0x84 AVR32_LIBS/COMPONENTS/AT86RF231/at86rf231.o
                0x80000b58                at86rf231_change_channel
 .text          0x80000bdc       0x1c AVR32_LIBS/COMPONENTS/AT86RF231/pal_trx_access.o
 .text.trx_interface_init
                0x80000bf8      0x130 AVR32_LIBS/COMPONENTS/AT86RF231/pal_trx_access.o
                0x80000bf8                trx_interface_init
 .text.pal_trx_irq_init
                0x80000d28       0x24 AVR32_LIBS/COMPONENTS/AT86RF231/pal_trx_access.o
                0x80000d28                pal_trx_irq_init
 .text.pal_trx_reg_write
                0x80000d4c       0x78 AVR32_LIBS/COMPONENTS/AT86RF231/pal_trx_access.o
                0x80000d4c                pal_trx_reg_write
 .text.pal_trx_reg_read
                0x80000dc4       0x80 AVR32_LIBS/COMPONENTS/AT86RF231/pal_trx_access.o
                0x80000dc4                pal_trx_reg_read
 .text.pal_trx_frame_read
                0x80000e44       0xb0 AVR32_LIBS/COMPONENTS/AT86RF231/pal_trx_access.o
                0x80000e44                pal_trx_frame_read
 .text.pal_trx_frame_write
                0x80000ef4       0x84 AVR32_LIBS/COMPONENTS/AT86RF231/pal_trx_access.o
                0x80000ef4                pal_trx_frame_write
 .text.pal_trx_bit_read
                0x80000f78       0x5c AVR32_LIBS/COMPONENTS/AT86RF231/pal_trx_access.o
                0x80000f78                pal_trx_bit_read
 .text.pal_trx_bit_write
                0x80000fd4       0x98 AVR32_LIBS/COMPONENTS/AT86RF231/pal_trx_access.o
                0x80000fd4                pal_trx_bit_write
 .text.eic_rf230_isr
                0x8000106c       0x78 AVR32_LIBS/COMPONENTS/AT86RF231/pal_trx_access.o
                0x8000106c                eic_rf230_isr
 .text.eic_rf230_isr_NonNakedBehaviour
                0x800010e4       0x3c AVR32_LIBS/COMPONENTS/AT86RF231/pal_trx_access.o
                0x800010e4                eic_rf230_isr_NonNakedBehaviour
 .text.trx_irq_handler_cb
                0x80001120       0x68 AVR32_LIBS/COMPONENTS/AT86RF231/pal_trx_access.o
                0x80001120                trx_irq_handler_cb
 .text.delay_us
                0x80001188       0x58 AVR32_LIBS/COMPONENTS/AT86RF231/pal_trx_access.o
                0x80001188                delay_us
 .text          0x800011e0        0x4 AVR32_LIBS/COMPONENTS/TCA6424/tca6424.o
 .text.tca6424_output
                0x800011e4       0x74 AVR32_LIBS/COMPONENTS/TCA6424/tca6424.o
                0x800011e4                tca6424_output
 .text.tca6424_init
                0x80001258       0x34 AVR32_LIBS/COMPONENTS/TCA6424/tca6424.o
                0x80001258                tca6424_init
 .text.LED_on   0x8000128c       0x24 AVR32_LIBS/COMPONENTS/TCA6424/tca6424.o
                0x8000128c                LED_on
 .text.LED_off  0x800012b0       0x28 AVR32_LIBS/COMPONENTS/TCA6424/tca6424.o
                0x800012b0                LED_off
 .text.tca6424_write_data
                0x800012d8       0xd8 AVR32_LIBS/COMPONENTS/TCA6424/tca6424.o
                0x800012d8                tca6424_write_data
 .text.eic_init
                0x800013b0      0x35a AVR32_LIBS/DRIVERS/EIC/eic.o
                0x800013b0                eic_init
 .text.eic_enable_line
                0x8000170a       0x28 AVR32_LIBS/DRIVERS/EIC/eic.o
                0x8000170a                eic_enable_line
 .text.eic_enable_interrupt_line
                0x80001732       0x28 AVR32_LIBS/DRIVERS/EIC/eic.o
                0x80001732                eic_enable_interrupt_line
 .text.eic_clear_interrupt_line
                0x8000175a       0x58 AVR32_LIBS/DRIVERS/EIC/eic.o
                0x8000175a                eic_clear_interrupt_line
 *fill*         0x800017b2        0x2 d703d703
 .text          0x800017b4       0x20 AVR32_LIBS/DRIVERS/FLASHC/flashc.o
 .text.flashc_get_flash_size
                0x800017d4       0x24 AVR32_LIBS/DRIVERS/FLASHC/flashc.o
                0x800017d4                flashc_get_flash_size
 .text.flashc_set_wait_state
                0x800017f8       0x46 AVR32_LIBS/DRIVERS/FLASHC/flashc.o
                0x800017f8                flashc_set_wait_state
 .text.flashc_is_ready
                0x8000183e       0x18 AVR32_LIBS/DRIVERS/FLASHC/flashc.o
                0x8000183e                flashc_is_ready
 *fill*         0x80001856        0x2 d703d703
 .text.flashc_default_wait_until_ready
                0x80001858       0x18 AVR32_LIBS/DRIVERS/FLASHC/flashc.o
                0x80001858                flashc_default_wait_until_ready
 .text.flashc_get_error_status
                0x80001870       0x16 AVR32_LIBS/DRIVERS/FLASHC/flashc.o
 *fill*         0x80001886        0x2 d703d703
 .text.flashc_issue_command
                0x80001888       0x88 AVR32_LIBS/DRIVERS/FLASHC/flashc.o
                0x80001888                flashc_issue_command
 .text.flashc_clear_page_buffer
                0x80001910       0x18 AVR32_LIBS/DRIVERS/FLASHC/flashc.o
                0x80001910                flashc_clear_page_buffer
 .text.flashc_is_page_erased
                0x80001928       0x18 AVR32_LIBS/DRIVERS/FLASHC/flashc.o
                0x80001928                flashc_is_page_erased
 .text.flashc_quick_page_read
                0x80001940       0x2c AVR32_LIBS/DRIVERS/FLASHC/flashc.o
                0x80001940                flashc_quick_page_read
 .text.flashc_erase_page
                0x8000196c       0x68 AVR32_LIBS/DRIVERS/FLASHC/flashc.o
                0x8000196c                flashc_erase_page
 .text.flashc_write_page
                0x800019d4       0x20 AVR32_LIBS/DRIVERS/FLASHC/flashc.o
                0x800019d4                flashc_write_page
 .text.flashc_quick_user_page_read
                0x800019f4       0x24 AVR32_LIBS/DRIVERS/FLASHC/flashc.o
                0x800019f4                flashc_quick_user_page_read
 .text.flashc_erase_user_page
                0x80001a18       0x3c AVR32_LIBS/DRIVERS/FLASHC/flashc.o
                0x80001a18                flashc_erase_user_page
 .text.flashc_write_user_page
                0x80001a54       0x18 AVR32_LIBS/DRIVERS/FLASHC/flashc.o
                0x80001a54                flashc_write_user_page
 .text.flashc_memset8
                0x80001a6c       0x50 AVR32_LIBS/DRIVERS/FLASHC/flashc.o
                0x80001a6c                flashc_memset8
 .text.flashc_memset16
                0x80001abc       0x4c AVR32_LIBS/DRIVERS/FLASHC/flashc.o
                0x80001abc                flashc_memset16
 .text.flashc_memset32
                0x80001b08       0x5c AVR32_LIBS/DRIVERS/FLASHC/flashc.o
                0x80001b08                flashc_memset32
 .text.flashc_memset64
                0x80001b64      0x428 AVR32_LIBS/DRIVERS/FLASHC/flashc.o
                0x80001b64                flashc_memset64
 .text.flashc_memcpy
                0x80001f8c      0x594 AVR32_LIBS/DRIVERS/FLASHC/flashc.o
                0x80001f8c                flashc_memcpy
 .text.gpio_enable_module
                0x80002520       0x74 AVR32_LIBS/DRIVERS/GPIO/gpio.o
                0x80002520                gpio_enable_module
 .text.gpio_enable_module_pin
                0x80002594       0xde AVR32_LIBS/DRIVERS/GPIO/gpio.o
                0x80002594                gpio_enable_module_pin
 .text.gpio_enable_gpio_pin
                0x80002672       0x50 AVR32_LIBS/DRIVERS/GPIO/gpio.o
                0x80002672                gpio_enable_gpio_pin
 .text.gpio_enable_pin_pull_up
                0x800026c2       0x3a AVR32_LIBS/DRIVERS/GPIO/gpio.o
                0x800026c2                gpio_enable_pin_pull_up
 .text.gpio_get_pin_value
                0x800026fc       0x3a AVR32_LIBS/DRIVERS/GPIO/gpio.o
                0x800026fc                gpio_get_pin_value
 .text.gpio_get_gpio_pin_output_value
                0x80002736       0x3a AVR32_LIBS/DRIVERS/GPIO/gpio.o
                0x80002736                gpio_get_gpio_pin_output_value
 .text.gpio_set_gpio_pin
                0x80002770       0x68 AVR32_LIBS/DRIVERS/GPIO/gpio.o
                0x80002770                gpio_set_gpio_pin
 .text.gpio_clr_gpio_pin
                0x800027d8       0x68 AVR32_LIBS/DRIVERS/GPIO/gpio.o
                0x800027d8                gpio_clr_gpio_pin
 .text.gpio_enable_pin_glitch_filter
                0x80002840       0x3a AVR32_LIBS/DRIVERS/GPIO/gpio.o
                0x80002840                gpio_enable_pin_glitch_filter
 *fill*         0x8000287a        0x2 d703d703
 .text          0x8000287c       0xa0 AVR32_LIBS/DRIVERS/INTC/intc.o
 .text._unhandled_interrupt
                0x8000291c        0x8 AVR32_LIBS/DRIVERS/INTC/intc.o
 .text._get_interrupt_handler
                0x80002924       0x70 AVR32_LIBS/DRIVERS/INTC/intc.o
                0x80002924                _get_interrupt_handler
 .text.INTC_init_interrupts
                0x80002994       0x88 AVR32_LIBS/DRIVERS/INTC/intc.o
                0x80002994                INTC_init_interrupts
 .text.INTC_register_interrupt
                0x80002a1c       0x68 AVR32_LIBS/DRIVERS/INTC/intc.o
                0x80002a1c                INTC_register_interrupt
 .text.pm_set_osc0_mode
                0x80002a84       0x4a AVR32_LIBS/DRIVERS/PM/pm.o
 *fill*         0x80002ace        0x2 d703d703
 .text.pm_enable_osc0_crystal
                0x80002ad0       0x64 AVR32_LIBS/DRIVERS/PM/pm.o
                0x80002ad0                pm_enable_osc0_crystal
 .text.pm_enable_clk0
                0x80002b34       0x34 AVR32_LIBS/DRIVERS/PM/pm.o
                0x80002b34                pm_enable_clk0
 .text.pm_enable_clk0_no_wait
                0x80002b68       0x5a AVR32_LIBS/DRIVERS/PM/pm.o
                0x80002b68                pm_enable_clk0_no_wait
 .text.pm_wait_for_clk0_ready
                0x80002bc2       0x1e AVR32_LIBS/DRIVERS/PM/pm.o
                0x80002bc2                pm_wait_for_clk0_ready
 .text.pm_set_osc32_mode
                0x80002be0       0x4a AVR32_LIBS/DRIVERS/PM/pm.o
 *fill*         0x80002c2a        0x2 d703d703
 .text.pm_enable_osc32_crystal
                0x80002c2c       0x20 AVR32_LIBS/DRIVERS/PM/pm.o
                0x80002c2c                pm_enable_osc32_crystal
 .text.pm_enable_clk32_no_wait
                0x80002c4c       0x58 AVR32_LIBS/DRIVERS/PM/pm.o
                0x80002c4c                pm_enable_clk32_no_wait
 .text.pm_cksel
                0x80002ca4      0x10a AVR32_LIBS/DRIVERS/PM/pm.o
                0x80002ca4                pm_cksel
 .text.pm_gc_setup
                0x80002dae       0x94 AVR32_LIBS/DRIVERS/PM/pm.o
                0x80002dae                pm_gc_setup
 .text.pm_gc_enable
                0x80002e42       0x36 AVR32_LIBS/DRIVERS/PM/pm.o
                0x80002e42                pm_gc_enable
 .text.pm_pll_setup
                0x80002e78       0xa4 AVR32_LIBS/DRIVERS/PM/pm.o
                0x80002e78                pm_pll_setup
 .text.pm_pll_set_option
                0x80002f1c       0x8a AVR32_LIBS/DRIVERS/PM/pm.o
                0x80002f1c                pm_pll_set_option
 .text.pm_pll_enable
                0x80002fa6       0x36 AVR32_LIBS/DRIVERS/PM/pm.o
                0x80002fa6                pm_pll_enable
 .text.pm_wait_for_pll0_locked
                0x80002fdc       0x1e AVR32_LIBS/DRIVERS/PM/pm.o
                0x80002fdc                pm_wait_for_pll0_locked
 .text.pm_wait_for_pll1_locked
                0x80002ffa       0x1e AVR32_LIBS/DRIVERS/PM/pm.o
                0x80002ffa                pm_wait_for_pll1_locked
 .text.pm_switch_to_clock
                0x80003018       0x4a AVR32_LIBS/DRIVERS/PM/pm.o
                0x80003018                pm_switch_to_clock
 *fill*         0x80003062        0x2 d703d703
 .text.pm_switch_to_osc0
                0x80003064       0x48 AVR32_LIBS/DRIVERS/PM/pm.o
                0x80003064                pm_switch_to_osc0
 .text.pm_configure_usb_clock
                0x800030ac       0x88 AVR32_LIBS/DRIVERS/PM/pm_conf_clocks.o
                0x800030ac                pm_configure_usb_clock
 .text.pwm_init
                0x80003134       0x8c AVR32_LIBS/DRIVERS/PWM/pwm.o
                0x80003134                pwm_init
 .text.pwm_channel_init
                0x800031c0       0x88 AVR32_LIBS/DRIVERS/PWM/pwm.o
                0x800031c0                pwm_channel_init
 .text.pwm_start_channels
                0x80003248       0x2e AVR32_LIBS/DRIVERS/PWM/pwm.o
                0x80003248                pwm_start_channels
 .text.pwm_stop_channels
                0x80003276       0x2e AVR32_LIBS/DRIVERS/PWM/pwm.o
                0x80003276                pwm_stop_channels
 .text.rtc_is_busy
                0x800032a4       0x20 AVR32_LIBS/DRIVERS/RTC/rtc.o
                0x800032a4                rtc_is_busy
 .text.rtc_init
                0x800032c4       0xc0 AVR32_LIBS/DRIVERS/RTC/rtc.o
                0x800032c4                rtc_init
 .text.rtc_set_value
                0x80003384       0x40 AVR32_LIBS/DRIVERS/RTC/rtc.o
                0x80003384                rtc_set_value
 .text.rtc_enable
                0x800033c4       0x44 AVR32_LIBS/DRIVERS/RTC/rtc.o
                0x800033c4                rtc_enable
 .text.rtc_set_top_value
                0x80003408       0x40 AVR32_LIBS/DRIVERS/RTC/rtc.o
                0x80003408                rtc_set_top_value
 .text.getBaudDiv
                0x80003448       0x56 AVR32_LIBS/DRIVERS/SPI/spi.o
 .text.spi_reset
                0x8000349e       0x1c AVR32_LIBS/DRIVERS/SPI/spi.o
                0x8000349e                spi_reset
 .text.spi_initMaster
                0x800034ba       0x94 AVR32_LIBS/DRIVERS/SPI/spi.o
                0x800034ba                spi_initMaster
 .text.spi_selectionMode
                0x8000354e       0x94 AVR32_LIBS/DRIVERS/SPI/spi.o
                0x8000354e                spi_selectionMode
 *fill*         0x800035e2        0x2 d703d703
 .text.spi_selectChip
                0x800035e4       0xb8 AVR32_LIBS/DRIVERS/SPI/spi.o
                0x800035e4                spi_selectChip
 .text.spi_unselectChip
                0x8000369c       0x84 AVR32_LIBS/DRIVERS/SPI/spi.o
                0x8000369c                spi_unselectChip
 .text.spi_setupChipReg
                0x80003720      0x1c4 AVR32_LIBS/DRIVERS/SPI/spi.o
                0x80003720                spi_setupChipReg
 .text.spi_enable
                0x800038e4       0x1a AVR32_LIBS/DRIVERS/SPI/spi.o
                0x800038e4                spi_enable
 .text.spi_write
                0x800038fe       0x58 AVR32_LIBS/DRIVERS/SPI/spi.o
                0x800038fe                spi_write
 .text.spi_read
                0x80003956       0x5e AVR32_LIBS/DRIVERS/SPI/spi.o
                0x80003956                spi_read
 .text.twi_master_inst1_interrupt_handler
                0x800039b4      0x108 AVR32_LIBS/DRIVERS/TWI/twi.o
 .text.twi_set_speed
                0x80003abc       0x7e AVR32_LIBS/DRIVERS/TWI/twi.o
 *fill*         0x80003b3a        0x2 d703d703
 .text.twi_master_init
                0x80003b3c       0xb8 AVR32_LIBS/DRIVERS/TWI/twi.o
                0x80003b3c                twi_master_init
 .text.twi_disable_interrupt
                0x80003bf4       0x4a AVR32_LIBS/DRIVERS/TWI/twi.o
                0x80003bf4                twi_disable_interrupt
 *fill*         0x80003c3e        0x2 d703d703
 .text.twi_probe
                0x80003c40       0x58 AVR32_LIBS/DRIVERS/TWI/twi.o
                0x80003c40                twi_probe
 .text.twi_master_write
                0x80003c98       0xdc AVR32_LIBS/DRIVERS/TWI/twi.o
                0x80003c98                twi_master_write
 .text.usart_set_async_baudrate
                0x80003d74       0xd2 AVR32_LIBS/DRIVERS/USART/usart.o
 .text.usart_reset
                0x80003e46       0x6c AVR32_LIBS/DRIVERS/USART/usart.o
                0x80003e46                usart_reset
 *fill*         0x80003eb2        0x2 d703d703
 .text.usart_init_rs232
                0x80003eb4      0x170 AVR32_LIBS/DRIVERS/USART/usart.o
                0x80003eb4                usart_init_rs232
 .text          0x80004024        0x8 AVR32_LIBS/DRIVERS/USBB/ENUM/DEVICE/usb_device_task.o
 .text.usb_device_task_init
                0x8000402c       0xd0 AVR32_LIBS/DRIVERS/USBB/ENUM/DEVICE/usb_device_task.o
                0x8000402c                usb_device_task_init
 .text.usb_start_device
                0x800040fc       0x4c AVR32_LIBS/DRIVERS/USBB/ENUM/DEVICE/usb_device_task.o
                0x800040fc                usb_start_device
 .text.usb_device_task
                0x80004148       0xbc AVR32_LIBS/DRIVERS/USBB/ENUM/DEVICE/usb_device_task.o
                0x80004148                usb_device_task
 .text          0x80004204       0x30 AVR32_LIBS/DRIVERS/USBB/ENUM/DEVICE/usb_standard_request.o
 .text.usb_process_request
                0x80004234      0x174 AVR32_LIBS/DRIVERS/USBB/ENUM/DEVICE/usb_standard_request.o
                0x80004234                usb_process_request
 .text.usb_set_address
                0x800043a8       0x6c AVR32_LIBS/DRIVERS/USBB/ENUM/DEVICE/usb_standard_request.o
 .text.usb_set_configuration
                0x80004414       0x7c AVR32_LIBS/DRIVERS/USBB/ENUM/DEVICE/usb_standard_request.o
 .text.usb_get_descriptor
                0x80004490      0x1d4 AVR32_LIBS/DRIVERS/USBB/ENUM/DEVICE/usb_standard_request.o
 .text.usb_get_configuration
                0x80004664       0x54 AVR32_LIBS/DRIVERS/USBB/ENUM/DEVICE/usb_standard_request.o
 .text.usb_get_status
                0x800046b8      0x110 AVR32_LIBS/DRIVERS/USBB/ENUM/DEVICE/usb_standard_request.o
 .text.usb_set_feature
                0x800047c8       0xf4 AVR32_LIBS/DRIVERS/USBB/ENUM/DEVICE/usb_standard_request.o
 .text.usb_clear_feature
                0x800048bc      0x14c AVR32_LIBS/DRIVERS/USBB/ENUM/DEVICE/usb_standard_request.o
 .text.usb_get_interface
                0x80004a08       0x2e AVR32_LIBS/DRIVERS/USBB/ENUM/DEVICE/usb_standard_request.o
 *fill*         0x80004a36        0x2 d703d703
 .text.usb_set_interface
                0x80004a38      0x2b8 AVR32_LIBS/DRIVERS/USBB/ENUM/DEVICE/usb_standard_request.o
 .text          0x80004cf0        0x8 AVR32_LIBS/DRIVERS/USBB/ENUM/usb_task.o
 .text.usb_general_interrupt
                0x80004cf8       0x78 AVR32_LIBS/DRIVERS/USBB/ENUM/usb_task.o
 .text.usb_task_init
                0x80004d70       0x60 AVR32_LIBS/DRIVERS/USBB/ENUM/usb_task.o
                0x80004d70                usb_task_init
 .text.usb_task
                0x80004dd0       0x90 AVR32_LIBS/DRIVERS/USBB/ENUM/usb_task.o
                0x80004dd0                usb_task
 .text.usb_general_interrupt_non_naked
                0x80004e60      0x214 AVR32_LIBS/DRIVERS/USBB/ENUM/usb_task.o
 .text.usb_init_device
                0x80005074       0xc2 AVR32_LIBS/DRIVERS/USBB/usb_drv.o
                0x80005074                usb_init_device
 *fill*         0x80005136        0x2 d703d703
 .text.usb_write_ep_txpacket
                0x80005138      0x244 AVR32_LIBS/DRIVERS/USBB/usb_drv.o
                0x80005138                usb_write_ep_txpacket
 .text.wdt_set_ctrl
                0x8000537c       0x2e AVR32_LIBS/DRIVERS/WDT/wdt.o
 *fill*         0x800053aa        0x2 d703d703
 .text.wdt_get_us_timeout_period
                0x800053ac       0x8c AVR32_LIBS/DRIVERS/WDT/wdt.o
                0x800053ac                wdt_get_us_timeout_period
 .text.wdt_disable
                0x80005438       0x1c AVR32_LIBS/DRIVERS/WDT/wdt.o
                0x80005438                wdt_disable
 .text.wdt_enable
                0x80005454       0xc4 AVR32_LIBS/DRIVERS/WDT/wdt.o
                0x80005454                wdt_enable
 .text.wdt_clear
                0x80005518       0x12 AVR32_LIBS/DRIVERS/WDT/wdt.o
                0x80005518                wdt_clear
 .text.vListInitialise
                0x8000552a       0x4c AVR32_LIBS/SERVICES/FREERTOS/Source/list.o
                0x8000552a                vListInitialise
 .text.vListInitialiseItem
                0x80005576       0x1a AVR32_LIBS/SERVICES/FREERTOS/Source/list.o
                0x80005576                vListInitialiseItem
 .text.vListInsertEnd
                0x80005590       0x72 AVR32_LIBS/SERVICES/FREERTOS/Source/list.o
                0x80005590                vListInsertEnd
 .text.vListInsert
                0x80005602       0xa2 AVR32_LIBS/SERVICES/FREERTOS/Source/list.o
                0x80005602                vListInsert
 .text.vListRemove
                0x800056a4       0x6a AVR32_LIBS/SERVICES/FREERTOS/Source/list.o
                0x800056a4                vListRemove
 *fill*         0x8000570e        0x2 d703d703
 .text._init_startup
                0x80005710       0x30 AVR32_LIBS/SERVICES/FREERTOS/Source/portable/GCC/AVR32_UC3/port.o
                0x80005710                _init_startup
 .text.__malloc_lock
                0x80005740       0x1c AVR32_LIBS/SERVICES/FREERTOS/Source/portable/GCC/AVR32_UC3/port.o
                0x80005740                __malloc_lock
 .text.__malloc_unlock
                0x8000575c       0x1c AVR32_LIBS/SERVICES/FREERTOS/Source/portable/GCC/AVR32_UC3/port.o
                0x8000575c                __malloc_unlock
 .text.vTick    0x80005778       0x84 AVR32_LIBS/SERVICES/FREERTOS/Source/portable/GCC/AVR32_UC3/port.o
 .text.SCALLYield
                0x800057fc       0x88 AVR32_LIBS/SERVICES/FREERTOS/Source/portable/GCC/AVR32_UC3/port.o
                0x800057fc                SCALLYield
 .text.vPortEnterCritical
                0x80005884       0x1c AVR32_LIBS/SERVICES/FREERTOS/Source/portable/GCC/AVR32_UC3/port.o
                0x80005884                vPortEnterCritical
 .text.vPortExitCritical
                0x800058a0       0x2c AVR32_LIBS/SERVICES/FREERTOS/Source/portable/GCC/AVR32_UC3/port.o
                0x800058a0                vPortExitCritical
 .text.pxPortInitialiseStack
                0x800058cc      0x1a6 AVR32_LIBS/SERVICES/FREERTOS/Source/portable/GCC/AVR32_UC3/port.o
                0x800058cc                pxPortInitialiseStack
 *fill*         0x80005a72        0x2 d703d703
 .text.xPortStartScheduler
                0x80005a74       0x48 AVR32_LIBS/SERVICES/FREERTOS/Source/portable/GCC/AVR32_UC3/port.o
                0x80005a74                xPortStartScheduler
 .text.prvScheduleFirstTick
                0x80005abc       0x18 AVR32_LIBS/SERVICES/FREERTOS/Source/portable/GCC/AVR32_UC3/port.o
 .text.prvClearCcInt
                0x80005ad4       0x12 AVR32_LIBS/SERVICES/FREERTOS/Source/portable/GCC/AVR32_UC3/port.o
 *fill*         0x80005ae6        0x2 d703d703
 .text.prvSetupTimerInterrupt
                0x80005ae8       0x28 AVR32_LIBS/SERVICES/FREERTOS/Source/portable/GCC/AVR32_UC3/port.o
 .text.pvPortMalloc
                0x80005b10       0x3c AVR32_LIBS/SERVICES/FREERTOS/Source/portable/MemMang/heap_3.o
                0x80005b10                pvPortMalloc
 .text.vPortFree
                0x80005b4c       0x38 AVR32_LIBS/SERVICES/FREERTOS/Source/portable/MemMang/heap_3.o
                0x80005b4c                vPortFree
 .text.xQueueCreate
                0x80005b84      0x10c AVR32_LIBS/SERVICES/FREERTOS/Source/queue.o
                0x80005b84                xQueueCreate
 .text.xQueueCreateMutex
                0x80005c90       0xa8 AVR32_LIBS/SERVICES/FREERTOS/Source/queue.o
                0x80005c90                xQueueCreateMutex
 .text.xQueueGenericSend
                0x80005d38      0x1a0 AVR32_LIBS/SERVICES/FREERTOS/Source/queue.o
                0x80005d38                xQueueGenericSend
 .text.xQueueGenericSendFromISR
                0x80005ed8       0xac AVR32_LIBS/SERVICES/FREERTOS/Source/queue.o
                0x80005ed8                xQueueGenericSendFromISR
 .text.xQueueGenericReceive
                0x80005f84      0x220 AVR32_LIBS/SERVICES/FREERTOS/Source/queue.o
                0x80005f84                xQueueGenericReceive
 .text.prvCopyDataToQueue
                0x800061a4      0x10c AVR32_LIBS/SERVICES/FREERTOS/Source/queue.o
 .text.prvCopyDataFromQueue
                0x800062b0       0x6c AVR32_LIBS/SERVICES/FREERTOS/Source/queue.o
 .text.prvUnlockQueue
                0x8000631c       0xd0 AVR32_LIBS/SERVICES/FREERTOS/Source/queue.o
 .text.prvIsQueueEmpty
                0x800063ec       0x38 AVR32_LIBS/SERVICES/FREERTOS/Source/queue.o
 .text.prvIsQueueFull
                0x80006424       0x3c AVR32_LIBS/SERVICES/FREERTOS/Source/queue.o
 .text          0x80006460       0x20 AVR32_LIBS/SERVICES/FREERTOS/Source/tasks.o
 .text.xTaskCreate
                0x80006480      0x1b8 AVR32_LIBS/SERVICES/FREERTOS/Source/tasks.o
                0x80006480                xTaskCreate
 .text.vTaskDelete
                0x80006638       0xb0 AVR32_LIBS/SERVICES/FREERTOS/Source/tasks.o
                0x80006638                vTaskDelete
 .text.vTaskDelayUntil
                0x800066e8      0x128 AVR32_LIBS/SERVICES/FREERTOS/Source/tasks.o
                0x800066e8                vTaskDelayUntil
 .text.vTaskDelay
                0x80006810       0xb4 AVR32_LIBS/SERVICES/FREERTOS/Source/tasks.o
                0x80006810                vTaskDelay
 .text.vTaskSuspend
                0x800068c4       0x94 AVR32_LIBS/SERVICES/FREERTOS/Source/tasks.o
                0x800068c4                vTaskSuspend
 .text.xTaskIsTaskSuspended
                0x80006958       0x58 AVR32_LIBS/SERVICES/FREERTOS/Source/tasks.o
                0x80006958                xTaskIsTaskSuspended
 .text.vTaskResume
                0x800069b0       0xc4 AVR32_LIBS/SERVICES/FREERTOS/Source/tasks.o
                0x800069b0                vTaskResume
 .text.vTaskStartScheduler
                0x80006a74       0x5c AVR32_LIBS/SERVICES/FREERTOS/Source/tasks.o
                0x80006a74                vTaskStartScheduler
 .text.vTaskSuspendAll
                0x80006ad0       0x2c AVR32_LIBS/SERVICES/FREERTOS/Source/tasks.o
                0x80006ad0                vTaskSuspendAll
 .text.xTaskResumeAll
                0x80006afc      0x130 AVR32_LIBS/SERVICES/FREERTOS/Source/tasks.o
                0x80006afc                xTaskResumeAll
 .text.xTaskGetTickCount
                0x80006c2c       0x30 AVR32_LIBS/SERVICES/FREERTOS/Source/tasks.o
                0x80006c2c                xTaskGetTickCount
 .text.vTaskList
                0x80006c5c      0x110 AVR32_LIBS/SERVICES/FREERTOS/Source/tasks.o
                0x80006c5c                vTaskList
 .text.vTaskIncrementTick
                0x80006d6c       0xf8 AVR32_LIBS/SERVICES/FREERTOS/Source/tasks.o
                0x80006d6c                vTaskIncrementTick
 .text.vTaskSwitchContext
                0x80006e64      0x128 AVR32_LIBS/SERVICES/FREERTOS/Source/tasks.o
                0x80006e64                vTaskSwitchContext
 .text.vTaskPlaceOnEventList
                0x80006f8c       0xbc AVR32_LIBS/SERVICES/FREERTOS/Source/tasks.o
                0x80006f8c                vTaskPlaceOnEventList
 .text.xTaskRemoveFromEventList
                0x80007048       0xdc AVR32_LIBS/SERVICES/FREERTOS/Source/tasks.o
                0x80007048                xTaskRemoveFromEventList
 .text.vTaskSetTimeOutState
                0x80007124       0x30 AVR32_LIBS/SERVICES/FREERTOS/Source/tasks.o
                0x80007124                vTaskSetTimeOutState
 .text.xTaskCheckForTimeOut
                0x80007154       0xb8 AVR32_LIBS/SERVICES/FREERTOS/Source/tasks.o
                0x80007154                xTaskCheckForTimeOut
 .text.vTaskMissedYield
                0x8000720c       0x14 AVR32_LIBS/SERVICES/FREERTOS/Source/tasks.o
                0x8000720c                vTaskMissedYield
 .text.prvIdleTask
                0x80007220       0x2c AVR32_LIBS/SERVICES/FREERTOS/Source/tasks.o
 .text.prvInitialiseTCBVariables
                0x8000724c       0xa0 AVR32_LIBS/SERVICES/FREERTOS/Source/tasks.o
 .text.prvInitialiseTaskLists
                0x800072ec       0x94 AVR32_LIBS/SERVICES/FREERTOS/Source/tasks.o
 .text.prvCheckTasksWaitingTermination
                0x80007380       0xa4 AVR32_LIBS/SERVICES/FREERTOS/Source/tasks.o
 .text.prvAllocateTCBAndStack
                0x80007424       0x84 AVR32_LIBS/SERVICES/FREERTOS/Source/tasks.o
 .text.prvListTaskWithinSingleList
                0x800074a8      0x10c AVR32_LIBS/SERVICES/FREERTOS/Source/tasks.o
 .text.usTaskCheckFreeStackSpace
                0x800075b4       0x46 AVR32_LIBS/SERVICES/FREERTOS/Source/tasks.o
                0x800075b4                usTaskCheckFreeStackSpace
 *fill*         0x800075fa        0x2 d703d703
 .text.prvDeleteTCB
                0x800075fc       0x2c AVR32_LIBS/SERVICES/FREERTOS/Source/tasks.o
 .text.xTaskGetCurrentTaskHandle
                0x80007628       0x30 AVR32_LIBS/SERVICES/FREERTOS/Source/tasks.o
                0x80007628                xTaskGetCurrentTaskHandle
 .text.vTaskPriorityInherit
                0x80007658       0xd4 AVR32_LIBS/SERVICES/FREERTOS/Source/tasks.o
                0x80007658                vTaskPriorityInherit
 .text.vTaskPriorityDisinherit
                0x8000772c       0xac AVR32_LIBS/SERVICES/FREERTOS/Source/tasks.o
                0x8000772c                vTaskPriorityDisinherit
 .text          0x800077d8       0x9d AVR32_LIBS/SERVICES/USB/CLASS/CDC/EXAMPLES/ENUM/DEVICE/usb_descriptors.o
                0x800077d8                usb_dev_desc
                0x800077ea                usb_conf_desc
                0x8000782d                usb_user_language_id
                0x80007831                usb_user_manufacturer_string_descriptor
                0x8000783d                usb_user_product_string_descriptor
                0x80007859                usb_user_serial_number
 *fill*         0x80007875        0x1 d703d703
 .text.usb_user_endpoint_init
                0x80007876      0x1be AVR32_LIBS/SERVICES/USB/CLASS/CDC/EXAMPLES/ENUM/DEVICE/usb_specific_request.o
                0x80007876                usb_user_endpoint_init
 .text.usb_user_read_request
                0x80007a34       0x5c AVR32_LIBS/SERVICES/USB/CLASS/CDC/EXAMPLES/ENUM/DEVICE/usb_specific_request.o
                0x80007a34                usb_user_read_request
 .text.usb_user_get_descriptor
                0x80007a90       0x1e AVR32_LIBS/SERVICES/USB/CLASS/CDC/EXAMPLES/ENUM/DEVICE/usb_specific_request.o
                0x80007a90                usb_user_get_descriptor
 *fill*         0x80007aae        0x2 d703d703
 .text.cdc_get_line_coding
                0x80007ab0       0xd0 AVR32_LIBS/SERVICES/USB/CLASS/CDC/EXAMPLES/ENUM/DEVICE/usb_specific_request.o
                0x80007ab0                cdc_get_line_coding
 .text.cdc_set_line_coding
                0x80007b80      0x1ac AVR32_LIBS/SERVICES/USB/CLASS/CDC/EXAMPLES/ENUM/DEVICE/usb_specific_request.o
                0x80007b80                cdc_set_line_coding
 .text.cdc_set_control_line_state
                0x80007d2c       0x26 AVR32_LIBS/SERVICES/USB/CLASS/CDC/EXAMPLES/ENUM/DEVICE/usb_specific_request.o
                0x80007d2c                cdc_set_control_line_state
 *fill*         0x80007d52        0x2 d703d703
 .text.uart_usb_init
                0x80007d54       0x20 AVR32_LIBS/SERVICES/USB/CLASS/CDC/EXAMPLES/uart_usb_lib.o
                0x80007d54                uart_usb_init
 .text.uart_usb_test_hit
                0x80007d74       0x6c AVR32_LIBS/SERVICES/USB/CLASS/CDC/EXAMPLES/uart_usb_lib.o
                0x80007d74                uart_usb_test_hit
 .text.uart_usb_getchar
                0x80007de0       0x68 AVR32_LIBS/SERVICES/USB/CLASS/CDC/EXAMPLES/uart_usb_lib.o
                0x80007de0                uart_usb_getchar
 .text.uart_usb_tx_ready
                0x80007e48       0x1e AVR32_LIBS/SERVICES/USB/CLASS/CDC/EXAMPLES/uart_usb_lib.o
                0x80007e48                uart_usb_tx_ready
 *fill*         0x80007e66        0x2 d703d703
 .text.uart_usb_putchar
                0x80007e68       0xa0 AVR32_LIBS/SERVICES/USB/CLASS/CDC/EXAMPLES/uart_usb_lib.o
                0x80007e68                uart_usb_putchar
 .text.usb_cdc_performance_print
                0x80007f08      0x144 AVR32_LIBS/SERVICES/USB/CLASS/CDC/EXAMPLES/uart_usb_lib.o
                0x80007f08                usb_cdc_performance_print
 .text.uart_usb_flush
                0x8000804c       0x98 AVR32_LIBS/SERVICES/USB/CLASS/CDC/EXAMPLES/uart_usb_lib.o
                0x8000804c                uart_usb_flush
 .text.uart_usb_flush_slow
                0x800080e4       0x74 AVR32_LIBS/SERVICES/USB/CLASS/CDC/EXAMPLES/uart_usb_lib.o
                0x800080e4                uart_usb_flush_slow
 .text          0x80008158     0x7440 spike_fw_update.o
                0x80008158                prog_code_in_flash
 .text.bswap_16
                0x8000f598       0x30 spike_fw_update.o
 .text.init_spike_fw_update_task
                0x8000f5c8       0x3c spike_fw_update.o
                0x8000f5c8                init_spike_fw_update_task
 .text.vTaskSpikeFwUpdate
                0x8000f604      0x6dc spike_fw_update.o
                0x8000f604                vTaskSpikeFwUpdate
 .text.send     0x8000fce0      0x518 spike_fw_update.o
                0x8000fce0                send
 .text.wait_for_response
                0x800101f8      0x1c8 spike_fw_update.o
                0x800101f8                wait_for_response
 .text.store_prog_code_in_flash
                0x800103c0      0x37c spike_fw_update.o
                0x800103c0                store_prog_code_in_flash
 .text.bootloader_usb_getchar
                0x8001073c       0x5c spike_fw_update.o
                0x8001073c                bootloader_usb_getchar
 .text.bootloader_uart_usb_test_hit
                0x80010798       0x6c spike_fw_update.o
                0x80010798                bootloader_uart_usb_test_hit
 .text.main     0x80010804       0x38 main.o
                0x80010804                main
 .text.pll_init
                0x8001083c       0xac main.o
                0x8001083c                pll_init
 .text          0x800108e8      0x1c8 main_app.o
 .text.bswap_16
                0x80010ab0       0x30 main_app.o
 .text.cock_application_init
                0x80010ae0       0x84 main_app.o
                0x80010ae0                cock_application_init
 .text.Spannung_leds
                0x80010b64       0xd8 main_app.o
                0x80010b64                Spannung_leds
 .text.rssi_leds
                0x80010c3c       0xec main_app.o
                0x80010c3c                rssi_leds
 .text.vTaskProcessData
                0x80010d28      0x524 main_app.o
                0x80010d28                vTaskProcessData
 .text.handle_config_packet
                0x8001124c      0x428 main_app.o
                0x8001124c                handle_config_packet
 .text.vTaskTIMING
                0x80011674      0x224 main_app.o
                0x80011674                vTaskTIMING
 .text.vTaskCONTROL
                0x80011898       0xc4 main_app.o
                0x80011898                vTaskCONTROL
 .text.pwm_drv_init
                0x8001195c       0xd8 main_app.o
                0x8001195c                pwm_drv_init
 .text.pwm_enable
                0x80011a34       0x20 main_app.o
                0x80011a34                pwm_enable
 .text.pwm_disable
                0x80011a54       0x20 main_app.o
                0x80011a54                pwm_disable
 .text.eeprom_save_config
                0x80011a74       0x7c main_app.o
                0x80011a74                eeprom_save_config
 .text.eeprom_load_config
                0x80011af0       0x70 main_app.o
                0x80011af0                eeprom_load_config
 .text.output_mode3
                0x80011b60      0x7a0 main_app.o
                0x80011b60                output_mode3
 .text.zero_strain_gauges
                0x80012300      0x398 main_app.o
                0x80012300                zero_strain_gauges
 .text          0x80012698        0x8 security_task.o
 .text.init_security_task
                0x800126a0       0x3c security_task.o
                0x800126a0                init_security_task
 .text.vTaskSec
                0x800126dc       0x28 security_task.o
                0x800126dc                vTaskSec
 .text          0x80012704     0x11d8 terminal/usb/usb.o
 .text.bswap_16
                0x800138dc       0x30 terminal/usb/usb.o
 .text.usb_start
                0x8001390c       0x68 terminal/usb/usb.o
                0x8001390c                usb_start
 .text.find_channel
                0x80013974       0x94 terminal/usb/usb.o
                0x80013974                find_channel
 .text.vTaskUSB
                0x80013a08     0x17cc terminal/usb/usb.o
                0x80013a08                vTaskUSB
 .text.usb_uart_write_line
                0x800151d4       0x44 terminal/usb/usb.o
                0x800151d4                usb_uart_write_line
 .text.usb_uart_printf
                0x80015218       0xfc terminal/usb/usb.o
                0x80015218                usb_uart_printf
 .text.usb_sof_action
                0x80015314       0x1c terminal/usb/usb.o
                0x80015314                usb_sof_action
 .text.usb_uart_get_string
                0x80015330       0xb8 terminal/usb/usb.o
                0x80015330                usb_uart_get_string
 .text.print_main_menu
                0x800153e8      0x14c terminal/usb/usb.o
                0x800153e8                print_main_menu
 .text.print_transceiver_config
                0x80015534      0x538 terminal/usb/usb.o
                0x80015534                print_transceiver_config
 .text.print_tx_command
                0x80015a6c      0x3c4 terminal/usb/usb.o
                0x80015a6c                print_tx_command
 .text.change_channel_remote
                0x80015e30      0x364 terminal/usb/usb.o
                0x80015e30                change_channel_remote
 .text.set_cpu_hz
                0x80016194        0xc ../AVR32_LIBS/UTILS/LIBS/NEWLIB_ADDONS/AT32UCR2\libnewlib_addons-at32ucr2-speed_opt.a(cpu.o)
                0x80016194                set_cpu_hz
 .text.unimplemented_syscall
                0x800161a0        0x2 ../AVR32_LIBS/UTILS/LIBS/NEWLIB_ADDONS/AT32UCR2\libnewlib_addons-at32ucr2-speed_opt.a(syscalls.o)
                0x800161a0                unimplemented_syscall
 .text.isatty   0x800161a2        0x2 ../AVR32_LIBS/UTILS/LIBS/NEWLIB_ADDONS/AT32UCR2\libnewlib_addons-at32ucr2-speed_opt.a(syscalls.o)
                0x800161a2                isatty
 .text._fstat   0x800161a4        0x2 ../AVR32_LIBS/UTILS/LIBS/NEWLIB_ADDONS/AT32UCR2\libnewlib_addons-at32ucr2-speed_opt.a(syscalls.o)
                0x800161a4                _fstat
 .text._init_argv
                0x800161a6        0x2 ../AVR32_LIBS/UTILS/LIBS/NEWLIB_ADDONS/AT32UCR2\libnewlib_addons-at32ucr2-speed_opt.a(syscalls.o)
                0x800161a6                _init_argv
 .text._close   0x800161a8       0x14 ../AVR32_LIBS/UTILS/LIBS/NEWLIB_ADDONS/AT32UCR2\libnewlib_addons-at32ucr2-speed_opt.a(syscalls.o)
                0x800161a8                _close
 .text._lseek   0x800161bc       0x14 ../AVR32_LIBS/UTILS/LIBS/NEWLIB_ADDONS/AT32UCR2\libnewlib_addons-at32ucr2-speed_opt.a(syscalls.o)
                0x800161bc                _lseek
 .text._write   0x800161d0       0x48 ../AVR32_LIBS/UTILS/LIBS/NEWLIB_ADDONS/AT32UCR2\libnewlib_addons-at32ucr2-speed_opt.a(syscalls.o)
                0x800161d0                _write
 .text._read    0x80016218       0x44 ../AVR32_LIBS/UTILS/LIBS/NEWLIB_ADDONS/AT32UCR2\libnewlib_addons-at32ucr2-speed_opt.a(syscalls.o)
                0x80016218                _read
 .text._exit    0x8001625c       0x34 ../AVR32_LIBS/UTILS/LIBS/NEWLIB_ADDONS/AT32UCR2\libnewlib_addons-at32ucr2-speed_opt.a(syscalls.o)
                0x8001625c                _exit
 .text._sbrk    0x80016290       0x40 ../AVR32_LIBS/UTILS/LIBS/NEWLIB_ADDONS/AT32UCR2\libnewlib_addons-at32ucr2-speed_opt.a(syscalls.o)
                0x80016290                _sbrk
 .text.usart_putc
                0x800162d0       0x1c ../AVR32_LIBS/UTILS/LIBS/NEWLIB_ADDONS/AT32UCR2\libnewlib_addons-at32ucr2-speed_opt.a(usart.o)
                0x800162d0                usart_putc
 .text.usart_getc
                0x800162ec       0x1c ../AVR32_LIBS/UTILS/LIBS/NEWLIB_ADDONS/AT32UCR2\libnewlib_addons-at32ucr2-speed_opt.a(usart.o)
                0x800162ec                usart_getc
 .text          0x80016308      0x1d4 c:/program files (x86)/atmel/avr studio 5.1/extensions/atmel/avrgcc/3.3.1.27/avrtoolchain/bin/../lib/gcc/avr32/4.4.3/ucr2\libgcc.a(_avr32_f64_mul.o)
                0x80016308                __avr32_f64_mul
 .text          0x800164dc      0x2a8 c:/program files (x86)/atmel/avr studio 5.1/extensions/atmel/avrgcc/3.3.1.27/avrtoolchain/bin/../lib/gcc/avr32/4.4.3/ucr2\libgcc.a(_avr32_f64_addsub.o)
                0x800164e0                __avr32_f64_sub
                0x8001667c                __avr32_f64_add
 .text          0x80016784       0x2a c:/program files (x86)/atmel/avr studio 5.1/extensions/atmel/avrgcc/3.3.1.27/avrtoolchain/bin/../lib/gcc/avr32/4.4.3/ucr2\libgcc.a(_avr32_f64_to_s32.o)
                0x80016784                __avr32_f64_to_u32
                0x80016788                __avr32_f64_to_s32
 .text          0x800167ae       0xe8 c:/program files (x86)/atmel/avr studio 5.1/extensions/atmel/avrgcc/3.3.1.27/avrtoolchain/bin/../lib/gcc/avr32/4.4.3/ucr2\libgcc.a(_avr32_s32_to_f64.o)
                0x800167ae                __avr32_u32_to_f64
                0x800167b6                __avr32_s32_to_f64
 .text          0x80016896       0x68 c:/program files (x86)/atmel/avr studio 5.1/extensions/atmel/avrgcc/3.3.1.27/avrtoolchain/bin/../lib/gcc/avr32/4.4.3/ucr2\libgcc.a(_avr32_f64_cmp_lt.o)
                0x80016896                __avr32_f64_cmp_lt
 *fill*         0x800168fe        0x2 d703d703
 .text          0x80016900      0x318 c:/program files (x86)/atmel/avr studio 5.1/extensions/atmel/avrgcc/3.3.1.27/avrtoolchain/bin/../lib/gcc/avr32/4.4.3/ucr2\libgcc.a(_avr32_f64_div.o)
                0x80016900                __avr32_f64_div
 .text          0x80016c18      0x160 c:/program files (x86)/atmel/avr studio 5.1/extensions/atmel/avrgcc/3.3.1.27/avrtoolchain/bin/../lib/gcc/avr32/4.4.3/ucr2\libgcc.a(_avr32_f32_div.o)
                0x80016c18                __avr32_f32_div
 .text          0x80016d78      0x180 c:/program files (x86)/atmel/avr studio 5.1/extensions/atmel/avrgcc/3.3.1.27/avrtoolchain/bin/../lib/gcc/avr32/4.4.3/ucr2\libgcc.a(_avr32_f32_addsub.o)
                0x80016d7c                __avr32_f32_sub
                0x80016e4c                __avr32_f32_add
 .text          0x80016ef8       0xe2 c:/program files (x86)/atmel/avr studio 5.1/extensions/atmel/avrgcc/3.3.1.27/avrtoolchain/bin/../lib/gcc/avr32/4.4.3/ucr2\libgcc.a(_avr32_f32_mul.o)
                0x80016ef8                __avr32_f32_mul
 .text          0x80016fda       0x74 c:/program files (x86)/atmel/avr studio 5.1/extensions/atmel/avrgcc/3.3.1.27/avrtoolchain/bin/../lib/gcc/avr32/4.4.3/ucr2\libgcc.a(_avr32_s32_to_f32.o)
                0x80016fda                __avr32_s32_to_f32
 .text          0x8001704e       0x70 c:/program files (x86)/atmel/avr studio 5.1/extensions/atmel/avrgcc/3.3.1.27/avrtoolchain/bin/../lib/gcc/avr32/4.4.3/ucr2\libgcc.a(_avr32_u32_to_f32.o)
                0x8001704e                __avr32_u32_to_f32
 .text          0x800170be       0x60 c:/program files (x86)/atmel/avr studio 5.1/extensions/atmel/avrgcc/3.3.1.27/avrtoolchain/bin/../lib/gcc/avr32/4.4.3/ucr2\libgcc.a(_avr32_f32_to_f64.o)
                0x800170be                __avr32_f32_to_f64
 .text          0x8001711e      0x292 c:/program files (x86)/atmel/avr studio 5.1/extensions/atmel/avrgcc/3.3.1.27/avrtoolchain/bin/../lib/gcc/avr32/4.4.3/ucr2\libgcc.a(_udivdi3.o)
                0x8001711e                __avr32_udiv64
                0x8001711e                __udivdi3
 .text.atexit   0x800173b0       0x14 c:/program files (x86)/atmel/avr studio 5.1/extensions/atmel/avrgcc/3.3.1.27/avrtoolchain/bin/../lib/gcc/avr32/4.4.3/../../../../avr32/lib/ucr2\libc.a(lib_a-atexit.o)
                0x800173b0                atexit
 .text.atoi     0x800173c4       0x10 c:/program files (x86)/atmel/avr studio 5.1/extensions/atmel/avrgcc/3.3.1.27/avrtoolchain/bin/../lib/gcc/avr32/4.4.3/../../../../avr32/lib/ucr2\libc.a(lib_a-atoi.o)
                0x800173c4                atoi
 .text.__errno  0x800173d4        0xc c:/program files (x86)/atmel/avr studio 5.1/extensions/atmel/avrgcc/3.3.1.27/avrtoolchain/bin/../lib/gcc/avr32/4.4.3/../../../../avr32/lib/ucr2\libc.a(lib_a-errno.o)
                0x800173d4                __errno
 .text.exit     0x800173e0       0x28 c:/program files (x86)/atmel/avr studio 5.1/extensions/atmel/avrgcc/3.3.1.27/avrtoolchain/bin/../lib/gcc/avr32/4.4.3/../../../../avr32/lib/ucr2\libc.a(lib_a-exit.o)
                0x800173e0                exit
 .text._fflush_r
                0x80017408      0x118 c:/program files (x86)/atmel/avr studio 5.1/extensions/atmel/avrgcc/3.3.1.27/avrtoolchain/bin/../lib/gcc/avr32/4.4.3/../../../../avr32/lib/ucr2\libc.a(lib_a-fflush.o)
                0x80017408                _fflush_r
 .text.fflush   0x80017520       0x30 c:/program files (x86)/atmel/avr studio 5.1/extensions/atmel/avrgcc/3.3.1.27/avrtoolchain/bin/../lib/gcc/avr32/4.4.3/../../../../avr32/lib/ucr2\libc.a(lib_a-fflush.o)
                0x80017520                fflush
 .text.__sfp_lock_acquire
                0x80017550        0x2 c:/program files (x86)/atmel/avr studio 5.1/extensions/atmel/avrgcc/3.3.1.27/avrtoolchain/bin/../lib/gcc/avr32/4.4.3/../../../../avr32/lib/ucr2\libc.a(lib_a-findfp.o)
                0x80017550                __sfp_lock_acquire
 .text.__sfp_lock_release
                0x80017552        0x2 c:/program files (x86)/atmel/avr studio 5.1/extensions/atmel/avrgcc/3.3.1.27/avrtoolchain/bin/../lib/gcc/avr32/4.4.3/../../../../avr32/lib/ucr2\libc.a(lib_a-findfp.o)
                0x80017552                __sfp_lock_release
 .text._cleanup_r
                0x80017554       0x14 c:/program files (x86)/atmel/avr studio 5.1/extensions/atmel/avrgcc/3.3.1.27/avrtoolchain/bin/../lib/gcc/avr32/4.4.3/../../../../avr32/lib/ucr2\libc.a(lib_a-findfp.o)
                0x80017554                _cleanup_r
 .text.__sfmoreglue
                0x80017568       0x30 c:/program files (x86)/atmel/avr studio 5.1/extensions/atmel/avrgcc/3.3.1.27/avrtoolchain/bin/../lib/gcc/avr32/4.4.3/../../../../avr32/lib/ucr2\libc.a(lib_a-findfp.o)
                0x80017568                __sfmoreglue
 .text.__sfp    0x80017598       0x7c c:/program files (x86)/atmel/avr studio 5.1/extensions/atmel/avrgcc/3.3.1.27/avrtoolchain/bin/../lib/gcc/avr32/4.4.3/../../../../avr32/lib/ucr2\libc.a(lib_a-findfp.o)
                0x80017598                __sfp
 .text.__sinit  0x80017614       0xb0 c:/program files (x86)/atmel/avr studio 5.1/extensions/atmel/avrgcc/3.3.1.27/avrtoolchain/bin/../lib/gcc/avr32/4.4.3/../../../../avr32/lib/ucr2\libc.a(lib_a-findfp.o)
                0x80017614                __sinit
 .text._fwalk_reent
                0x800176c4       0x58 c:/program files (x86)/atmel/avr studio 5.1/extensions/atmel/avrgcc/3.3.1.27/avrtoolchain/bin/../lib/gcc/avr32/4.4.3/../../../../avr32/lib/ucr2\libc.a(lib_a-fwalk.o)
                0x800176c4                _fwalk_reent
 .text._fwalk   0x8001771c       0x54 c:/program files (x86)/atmel/avr studio 5.1/extensions/atmel/avrgcc/3.3.1.27/avrtoolchain/bin/../lib/gcc/avr32/4.4.3/../../../../avr32/lib/ucr2\libc.a(lib_a-fwalk.o)
                0x8001771c                _fwalk
 .text.free     0x80017770       0x18 c:/program files (x86)/atmel/avr studio 5.1/extensions/atmel/avrgcc/3.3.1.27/avrtoolchain/bin/../lib/gcc/avr32/4.4.3/../../../../avr32/lib/ucr2\libc.a(lib_a-malloc.o)
                0x80017770                free
 .text.malloc   0x80017788       0x18 c:/program files (x86)/atmel/avr studio 5.1/extensions/atmel/avrgcc/3.3.1.27/avrtoolchain/bin/../lib/gcc/avr32/4.4.3/../../../../avr32/lib/ucr2\libc.a(lib_a-malloc.o)
                0x80017788                malloc
 .text._malloc_r
                0x800177a0      0x454 c:/program files (x86)/atmel/avr studio 5.1/extensions/atmel/avrgcc/3.3.1.27/avrtoolchain/bin/../lib/gcc/avr32/4.4.3/../../../../avr32/lib/ucr2\libc.a(lib_a-mallocr.o)
                0x800177a0                _malloc_r
 .text          0x80017bf4      0x148 c:/program files (x86)/atmel/avr studio 5.1/extensions/atmel/avrgcc/3.3.1.27/avrtoolchain/bin/../lib/gcc/avr32/4.4.3/../../../../avr32/lib/ucr2\libc.a(lib_a-memcpy.o)
                0x80017bf4                memcpy
 .text.memset   0x80017d3c        0xe c:/program files (x86)/atmel/avr studio 5.1/extensions/atmel/avrgcc/3.3.1.27/avrtoolchain/bin/../lib/gcc/avr32/4.4.3/../../../../avr32/lib/ucr2\libc.a(lib_a-memset.o)
                0x80017d3c                memset
 *fill*         0x80017d4a        0x2 d703d703
 .text.printf   0x80017d4c       0x38 c:/program files (x86)/atmel/avr studio 5.1/extensions/atmel/avrgcc/3.3.1.27/avrtoolchain/bin/../lib/gcc/avr32/4.4.3/../../../../avr32/lib/ucr2\libc.a(lib_a-printf.o)
                0x80017d4c                printf
 .text.rand     0x80017d84       0x84 c:/program files (x86)/atmel/avr studio 5.1/extensions/atmel/avrgcc/3.3.1.27/avrtoolchain/bin/../lib/gcc/avr32/4.4.3/../../../../avr32/lib/ucr2\libc.a(lib_a-rand.o)
                0x80017d84                rand
 .text._realloc_r
                0x80017e08      0x2e0 c:/program files (x86)/atmel/avr studio 5.1/extensions/atmel/avrgcc/3.3.1.27/avrtoolchain/bin/../lib/gcc/avr32/4.4.3/../../../../avr32/lib/ucr2\libc.a(lib_a-reallocr.o)
                0x80017e08                _realloc_r
 .text._sbrk_r  0x800180e8       0x28 c:/program files (x86)/atmel/avr studio 5.1/extensions/atmel/avrgcc/3.3.1.27/avrtoolchain/bin/../lib/gcc/avr32/4.4.3/../../../../avr32/lib/ucr2\libc.a(lib_a-sbrkr.o)
                0x800180e8                _sbrk_r
 .text.sprintf  0x80018110       0x40 c:/program files (x86)/atmel/avr studio 5.1/extensions/atmel/avrgcc/3.3.1.27/avrtoolchain/bin/../lib/gcc/avr32/4.4.3/../../../../avr32/lib/ucr2\libc.a(lib_a-sprintf.o)
                0x80018110                sprintf
 .text.eofread  0x80018150        0x2 c:/program files (x86)/atmel/avr studio 5.1/extensions/atmel/avrgcc/3.3.1.27/avrtoolchain/bin/../lib/gcc/avr32/4.4.3/../../../../avr32/lib/ucr2\libc.a(lib_a-sscanf.o)
 *fill*         0x80018152        0x2 d703d703
 .text.sscanf   0x80018154       0x4c c:/program files (x86)/atmel/avr studio 5.1/extensions/atmel/avrgcc/3.3.1.27/avrtoolchain/bin/../lib/gcc/avr32/4.4.3/../../../../avr32/lib/ucr2\libc.a(lib_a-sscanf.o)
                0x80018154                sscanf
 .text.__sclose
                0x800181a0       0x10 c:/program files (x86)/atmel/avr studio 5.1/extensions/atmel/avrgcc/3.3.1.27/avrtoolchain/bin/../lib/gcc/avr32/4.4.3/../../../../avr32/lib/ucr2\libc.a(lib_a-stdio.o)
                0x800181a0                __sclose
 .text.__sseek  0x800181b0       0x2c c:/program files (x86)/atmel/avr studio 5.1/extensions/atmel/avrgcc/3.3.1.27/avrtoolchain/bin/../lib/gcc/avr32/4.4.3/../../../../avr32/lib/ucr2\libc.a(lib_a-stdio.o)
                0x800181b0                __sseek
 .text.__swrite
                0x800181dc       0x38 c:/program files (x86)/atmel/avr studio 5.1/extensions/atmel/avrgcc/3.3.1.27/avrtoolchain/bin/../lib/gcc/avr32/4.4.3/../../../../avr32/lib/ucr2\libc.a(lib_a-stdio.o)
                0x800181dc                __swrite
 .text.__sread  0x80018214       0x24 c:/program files (x86)/atmel/avr studio 5.1/extensions/atmel/avrgcc/3.3.1.27/avrtoolchain/bin/../lib/gcc/avr32/4.4.3/../../../../avr32/lib/ucr2\libc.a(lib_a-stdio.o)
                0x80018214                __sread
 .text.strcat   0x80018238       0x22 c:/program files (x86)/atmel/avr studio 5.1/extensions/atmel/avrgcc/3.3.1.27/avrtoolchain/bin/../lib/gcc/avr32/4.4.3/../../../../avr32/lib/ucr2\libc.a(lib_a-strcat.o)
                0x80018238                strcat
 .text.strlen   0x8001825a       0x16 c:/program files (x86)/atmel/avr studio 5.1/extensions/atmel/avrgcc/3.3.1.27/avrtoolchain/bin/../lib/gcc/avr32/4.4.3/../../../../avr32/lib/ucr2\libc.a(lib_a-strlen.o)
                0x8001825a                strlen
 .text          0x80018270       0x20 c:/program files (x86)/atmel/avr studio 5.1/extensions/atmel/avrgcc/3.3.1.27/avrtoolchain/bin/../lib/gcc/avr32/4.4.3/../../../../avr32/lib/ucr2\libc.a(lib_a-strncpy.o)
                0x80018270                strncpy
 .text._strtol_r
                0x80018290      0x138 c:/program files (x86)/atmel/avr studio 5.1/extensions/atmel/avrgcc/3.3.1.27/avrtoolchain/bin/../lib/gcc/avr32/4.4.3/../../../../avr32/lib/ucr2\libc.a(lib_a-strtol.o)
                0x80018290                _strtol_r
 .text.strtol   0x800183c8       0x1c c:/program files (x86)/atmel/avr studio 5.1/extensions/atmel/avrgcc/3.3.1.27/avrtoolchain/bin/../lib/gcc/avr32/4.4.3/../../../../avr32/lib/ucr2\libc.a(lib_a-strtol.o)
                0x800183c8                strtol
 .text.get_arg  0x800183e4      0x320 c:/program files (x86)/atmel/avr studio 5.1/extensions/atmel/avrgcc/3.3.1.27/avrtoolchain/bin/../lib/gcc/avr32/4.4.3/../../../../avr32/lib/ucr2\libc.a(lib_a-vfprintf.o)
 .text.__sprint_r
                0x80018704       0x20 c:/program files (x86)/atmel/avr studio 5.1/extensions/atmel/avrgcc/3.3.1.27/avrtoolchain/bin/../lib/gcc/avr32/4.4.3/../../../../avr32/lib/ucr2\libc.a(lib_a-vfprintf.o)
 .text._vfprintf_r
                0x80018724     0x1f90 c:/program files (x86)/atmel/avr studio 5.1/extensions/atmel/avrgcc/3.3.1.27/avrtoolchain/bin/../lib/gcc/avr32/4.4.3/../../../../avr32/lib/ucr2\libc.a(lib_a-vfprintf.o)
                0x80018724                _vfprintf_r
 .text.__svfscanf_r
                0x8001a6b4     0x1504 c:/program files (x86)/atmel/avr studio 5.1/extensions/atmel/avrgcc/3.3.1.27/avrtoolchain/bin/../lib/gcc/avr32/4.4.3/../../../../avr32/lib/ucr2\libc.a(lib_a-vfscanf.o)
                0x8001a6b4                __svfscanf_r
 .text._vsprintf_r
                0x8001bbb8       0x34 c:/program files (x86)/atmel/avr studio 5.1/extensions/atmel/avrgcc/3.3.1.27/avrtoolchain/bin/../lib/gcc/avr32/4.4.3/../../../../avr32/lib/ucr2\libc.a(lib_a-vsprintf.o)
                0x8001bbb8                _vsprintf_r
 .text.vsprintf
                0x8001bbec       0x1c c:/program files (x86)/atmel/avr studio 5.1/extensions/atmel/avrgcc/3.3.1.27/avrtoolchain/bin/../lib/gcc/avr32/4.4.3/../../../../avr32/lib/ucr2\libc.a(lib_a-vsprintf.o)
                0x8001bbec                vsprintf
 .text._write_r
                0x8001bc08       0x2c c:/program files (x86)/atmel/avr studio 5.1/extensions/atmel/avrgcc/3.3.1.27/avrtoolchain/bin/../lib/gcc/avr32/4.4.3/../../../../avr32/lib/ucr2\libc.a(lib_a-writer.o)
                0x8001bc08                _write_r
 .text.__swsetup_r
                0x8001bc34       0xe8 c:/program files (x86)/atmel/avr studio 5.1/extensions/atmel/avrgcc/3.3.1.27/avrtoolchain/bin/../lib/gcc/avr32/4.4.3/../../../../avr32/lib/ucr2\libc.a(lib_a-wsetup.o)
                0x8001bc34                __swsetup_r
 .text.__register_exitproc
                0x8001bd1c       0xac c:/program files (x86)/atmel/avr studio 5.1/extensions/atmel/avrgcc/3.3.1.27/avrtoolchain/bin/../lib/gcc/avr32/4.4.3/../../../../avr32/lib/ucr2\libc.a(lib_a-__atexit.o)
                0x8001bd1c                __register_exitproc
 .text.__call_exitprocs
                0x8001bdc8       0xd4 c:/program files (x86)/atmel/avr studio 5.1/extensions/atmel/avrgcc/3.3.1.27/avrtoolchain/bin/../lib/gcc/avr32/4.4.3/../../../../avr32/lib/ucr2\libc.a(lib_a-__call_atexit.o)
                0x8001bdc8                __call_exitprocs
 .text._close_r
                0x8001be9c       0x28 c:/program files (x86)/atmel/avr studio 5.1/extensions/atmel/avrgcc/3.3.1.27/avrtoolchain/bin/../lib/gcc/avr32/4.4.3/../../../../avr32/lib/ucr2\libc.a(lib_a-closer.o)
                0x8001be9c                _close_r
 .text.quorem   0x8001bec4      0x124 c:/program files (x86)/atmel/avr studio 5.1/extensions/atmel/avrgcc/3.3.1.27/avrtoolchain/bin/../lib/gcc/avr32/4.4.3/../../../../avr32/lib/ucr2\libc.a(lib_a-dtoa.o)
 .text._dtoa_r  0x8001bfe8      0xc90 c:/program files (x86)/atmel/avr studio 5.1/extensions/atmel/avrgcc/3.3.1.27/avrtoolchain/bin/../lib/gcc/avr32/4.4.3/../../../../avr32/lib/ucr2\libc.a(lib_a-dtoa.o)
                0x8001bfe8                _dtoa_r
 .text._fclose_r
                0x8001cc78       0xd0 c:/program files (x86)/atmel/avr studio 5.1/extensions/atmel/avrgcc/3.3.1.27/avrtoolchain/bin/../lib/gcc/avr32/4.4.3/../../../../avr32/lib/ucr2\libc.a(lib_a-fclose.o)
                0x8001cc78                _fclose_r
 .text.fclose   0x8001cd48       0x18 c:/program files (x86)/atmel/avr studio 5.1/extensions/atmel/avrgcc/3.3.1.27/avrtoolchain/bin/../lib/gcc/avr32/4.4.3/../../../../avr32/lib/ucr2\libc.a(lib_a-fclose.o)
                0x8001cd48                fclose
 .text._fread_r
                0x8001cd60       0xb4 c:/program files (x86)/atmel/avr studio 5.1/extensions/atmel/avrgcc/3.3.1.27/avrtoolchain/bin/../lib/gcc/avr32/4.4.3/../../../../avr32/lib/ucr2\libc.a(lib_a-fread.o)
                0x8001cd60                _fread_r
 .text.fread    0x8001ce14       0x1c c:/program files (x86)/atmel/avr studio 5.1/extensions/atmel/avrgcc/3.3.1.27/avrtoolchain/bin/../lib/gcc/avr32/4.4.3/../../../../avr32/lib/ucr2\libc.a(lib_a-fread.o)
                0x8001ce14                fread
 .text._malloc_trim_r
                0x8001ce30       0xa8 c:/program files (x86)/atmel/avr studio 5.1/extensions/atmel/avrgcc/3.3.1.27/avrtoolchain/bin/../lib/gcc/avr32/4.4.3/../../../../avr32/lib/ucr2\libc.a(lib_a-freer.o)
                0x8001ce30                _malloc_trim_r
 .text._free_r  0x8001ced8      0x1a4 c:/program files (x86)/atmel/avr studio 5.1/extensions/atmel/avrgcc/3.3.1.27/avrtoolchain/bin/../lib/gcc/avr32/4.4.3/../../../../avr32/lib/ucr2\libc.a(lib_a-freer.o)
                0x8001ced8                _free_r
 .text.__sfvwrite_r
                0x8001d07c      0x2c8 c:/program files (x86)/atmel/avr studio 5.1/extensions/atmel/avrgcc/3.3.1.27/avrtoolchain/bin/../lib/gcc/avr32/4.4.3/../../../../avr32/lib/ucr2\libc.a(lib_a-fvwrite.o)
                0x8001d07c                __sfvwrite_r
 .text.iswspace
                0x8001d344       0x1c c:/program files (x86)/atmel/avr studio 5.1/extensions/atmel/avrgcc/3.3.1.27/avrtoolchain/bin/../lib/gcc/avr32/4.4.3/../../../../avr32/lib/ucr2\libc.a(lib_a-iswspace.o)
                0x8001d344                iswspace
 .text._localeconv_r
                0x8001d360        0x8 c:/program files (x86)/atmel/avr studio 5.1/extensions/atmel/avrgcc/3.3.1.27/avrtoolchain/bin/../lib/gcc/avr32/4.4.3/../../../../avr32/lib/ucr2\libc.a(lib_a-locale.o)
                0x8001d360                _localeconv_r
 .text._lseek_r
                0x8001d368       0x2c c:/program files (x86)/atmel/avr studio 5.1/extensions/atmel/avrgcc/3.3.1.27/avrtoolchain/bin/../lib/gcc/avr32/4.4.3/../../../../avr32/lib/ucr2\libc.a(lib_a-lseekr.o)
                0x8001d368                _lseek_r
 .text.__smakebuf_r
                0x8001d394       0xd4 c:/program files (x86)/atmel/avr studio 5.1/extensions/atmel/avrgcc/3.3.1.27/avrtoolchain/bin/../lib/gcc/avr32/4.4.3/../../../../avr32/lib/ucr2\libc.a(lib_a-makebuf.o)
                0x8001d394                __smakebuf_r
 .text._mbrtowc_r
                0x8001d468       0x2c c:/program files (x86)/atmel/avr studio 5.1/extensions/atmel/avrgcc/3.3.1.27/avrtoolchain/bin/../lib/gcc/avr32/4.4.3/../../../../avr32/lib/ucr2\libc.a(lib_a-mbrtowc.o)
                0x8001d468                _mbrtowc_r
 .text._mbtowc_r
                0x8001d494       0x38 c:/program files (x86)/atmel/avr studio 5.1/extensions/atmel/avrgcc/3.3.1.27/avrtoolchain/bin/../lib/gcc/avr32/4.4.3/../../../../avr32/lib/ucr2\libc.a(lib_a-mbtowc_r.o)
                0x8001d494                _mbtowc_r
 .text.memchr   0x8001d4cc       0x16 c:/program files (x86)/atmel/avr studio 5.1/extensions/atmel/avrgcc/3.3.1.27/avrtoolchain/bin/../lib/gcc/avr32/4.4.3/../../../../avr32/lib/ucr2\libc.a(lib_a-memchr.o)
                0x8001d4cc                memchr
 .text.memmove  0x8001d4e2       0x3e c:/program files (x86)/atmel/avr studio 5.1/extensions/atmel/avrgcc/3.3.1.27/avrtoolchain/bin/../lib/gcc/avr32/4.4.3/../../../../avr32/lib/ucr2\libc.a(lib_a-memmove.o)
                0x8001d4e2                memmove
 .text.__hi0bits
                0x8001d520       0x60 c:/program files (x86)/atmel/avr studio 5.1/extensions/atmel/avrgcc/3.3.1.27/avrtoolchain/bin/../lib/gcc/avr32/4.4.3/../../../../avr32/lib/ucr2\libc.a(lib_a-mprec.o)
                0x8001d520                __hi0bits
 .text.__lo0bits
                0x8001d580       0x8e c:/program files (x86)/atmel/avr studio 5.1/extensions/atmel/avrgcc/3.3.1.27/avrtoolchain/bin/../lib/gcc/avr32/4.4.3/../../../../avr32/lib/ucr2\libc.a(lib_a-mprec.o)
                0x8001d580                __lo0bits
 .text.__mcmp   0x8001d60e       0x32 c:/program files (x86)/atmel/avr studio 5.1/extensions/atmel/avrgcc/3.3.1.27/avrtoolchain/bin/../lib/gcc/avr32/4.4.3/../../../../avr32/lib/ucr2\libc.a(lib_a-mprec.o)
                0x8001d60e                __mcmp
 .text.__ulp    0x8001d640       0x48 c:/program files (x86)/atmel/avr studio 5.1/extensions/atmel/avrgcc/3.3.1.27/avrtoolchain/bin/../lib/gcc/avr32/4.4.3/../../../../avr32/lib/ucr2\libc.a(lib_a-mprec.o)
                0x8001d640                __ulp
 .text.__b2d    0x8001d688       0xa0 c:/program files (x86)/atmel/avr studio 5.1/extensions/atmel/avrgcc/3.3.1.27/avrtoolchain/bin/../lib/gcc/avr32/4.4.3/../../../../avr32/lib/ucr2\libc.a(lib_a-mprec.o)
                0x8001d688                __b2d
 .text.__ratio  0x8001d728       0x5c c:/program files (x86)/atmel/avr studio 5.1/extensions/atmel/avrgcc/3.3.1.27/avrtoolchain/bin/../lib/gcc/avr32/4.4.3/../../../../avr32/lib/ucr2\libc.a(lib_a-mprec.o)
                0x8001d728                __ratio
 .text.__copybits
                0x8001d784       0x2e c:/program files (x86)/atmel/avr studio 5.1/extensions/atmel/avrgcc/3.3.1.27/avrtoolchain/bin/../lib/gcc/avr32/4.4.3/../../../../avr32/lib/ucr2\libc.a(lib_a-mprec.o)
                0x8001d784                __copybits
 .text.__any_on
                0x8001d7b2       0x4c c:/program files (x86)/atmel/avr studio 5.1/extensions/atmel/avrgcc/3.3.1.27/avrtoolchain/bin/../lib/gcc/avr32/4.4.3/../../../../avr32/lib/ucr2\libc.a(lib_a-mprec.o)
                0x8001d7b2                __any_on
 *fill*         0x8001d7fe        0x2 d703d703
 .text._Bfree   0x8001d800       0x38 c:/program files (x86)/atmel/avr studio 5.1/extensions/atmel/avrgcc/3.3.1.27/avrtoolchain/bin/../lib/gcc/avr32/4.4.3/../../../../avr32/lib/ucr2\libc.a(lib_a-mprec.o)
                0x8001d800                _Bfree
 .text._Balloc  0x8001d838       0x78 c:/program files (x86)/atmel/avr studio 5.1/extensions/atmel/avrgcc/3.3.1.27/avrtoolchain/bin/../lib/gcc/avr32/4.4.3/../../../../avr32/lib/ucr2\libc.a(lib_a-mprec.o)
                0x8001d838                _Balloc
 .text.__d2b    0x8001d8b0       0xbc c:/program files (x86)/atmel/avr studio 5.1/extensions/atmel/avrgcc/3.3.1.27/avrtoolchain/bin/../lib/gcc/avr32/4.4.3/../../../../avr32/lib/ucr2\libc.a(lib_a-mprec.o)
                0x8001d8b0                __d2b
 .text.__mdiff  0x8001d96c       0xd8 c:/program files (x86)/atmel/avr studio 5.1/extensions/atmel/avrgcc/3.3.1.27/avrtoolchain/bin/../lib/gcc/avr32/4.4.3/../../../../avr32/lib/ucr2\libc.a(lib_a-mprec.o)
                0x8001d96c                __mdiff
 .text.__lshift
                0x8001da44       0x94 c:/program files (x86)/atmel/avr studio 5.1/extensions/atmel/avrgcc/3.3.1.27/avrtoolchain/bin/../lib/gcc/avr32/4.4.3/../../../../avr32/lib/ucr2\libc.a(lib_a-mprec.o)
                0x8001da44                __lshift
 .text.__multiply
                0x8001dad8      0x108 c:/program files (x86)/atmel/avr studio 5.1/extensions/atmel/avrgcc/3.3.1.27/avrtoolchain/bin/../lib/gcc/avr32/4.4.3/../../../../avr32/lib/ucr2\libc.a(lib_a-mprec.o)
                0x8001dad8                __multiply
 .text.__i2b    0x8001dbe0       0x18 c:/program files (x86)/atmel/avr studio 5.1/extensions/atmel/avrgcc/3.3.1.27/avrtoolchain/bin/../lib/gcc/avr32/4.4.3/../../../../avr32/lib/ucr2\libc.a(lib_a-mprec.o)
                0x8001dbe0                __i2b
 .text.__multadd
                0x8001dbf8       0x88 c:/program files (x86)/atmel/avr studio 5.1/extensions/atmel/avrgcc/3.3.1.27/avrtoolchain/bin/../lib/gcc/avr32/4.4.3/../../../../avr32/lib/ucr2\libc.a(lib_a-mprec.o)
                0x8001dbf8                __multadd
 .text.__pow5mult
                0x8001dc80       0xac c:/program files (x86)/atmel/avr studio 5.1/extensions/atmel/avrgcc/3.3.1.27/avrtoolchain/bin/../lib/gcc/avr32/4.4.3/../../../../avr32/lib/ucr2\libc.a(lib_a-mprec.o)
                0x8001dc80                __pow5mult
 .text.__s2b    0x8001dd2c       0x84 c:/program files (x86)/atmel/avr studio 5.1/extensions/atmel/avrgcc/3.3.1.27/avrtoolchain/bin/../lib/gcc/avr32/4.4.3/../../../../avr32/lib/ucr2\libc.a(lib_a-mprec.o)
                0x8001dd2c                __s2b
 .text._read_r  0x8001ddb0       0x2c c:/program files (x86)/atmel/avr studio 5.1/extensions/atmel/avrgcc/3.3.1.27/avrtoolchain/bin/../lib/gcc/avr32/4.4.3/../../../../avr32/lib/ucr2\libc.a(lib_a-readr.o)
                0x8001ddb0                _read_r
 .text.__srefill_r
                0x8001dddc      0x118 c:/program files (x86)/atmel/avr studio 5.1/extensions/atmel/avrgcc/3.3.1.27/avrtoolchain/bin/../lib/gcc/avr32/4.4.3/../../../../avr32/lib/ucr2\libc.a(lib_a-refill.o)
                0x8001dddc                __srefill_r
 .text.lflush   0x8001def4       0x18 c:/program files (x86)/atmel/avr studio 5.1/extensions/atmel/avrgcc/3.3.1.27/avrtoolchain/bin/../lib/gcc/avr32/4.4.3/../../../../avr32/lib/ucr2\libc.a(lib_a-refill.o)
 .text.__sccl   0x8001df0c       0x92 c:/program files (x86)/atmel/avr studio 5.1/extensions/atmel/avrgcc/3.3.1.27/avrtoolchain/bin/../lib/gcc/avr32/4.4.3/../../../../avr32/lib/ucr2\libc.a(lib_a-sccl.o)
                0x8001df0c                __sccl
 .text.nanf     0x8001df9e        0x6 c:/program files (x86)/atmel/avr studio 5.1/extensions/atmel/avrgcc/3.3.1.27/avrtoolchain/bin/../lib/gcc/avr32/4.4.3/../../../../avr32/lib/ucr2\libc.a(lib_a-sf_nan.o)
                0x8001df9e                nanf
 .text.__isinfd
                0x8001dfa4       0x2a c:/program files (x86)/atmel/avr studio 5.1/extensions/atmel/avrgcc/3.3.1.27/avrtoolchain/bin/../lib/gcc/avr32/4.4.3/../../../../avr32/lib/ucr2\libc.a(lib_a-s_isinfd.o)
                0x8001dfa4                __isinfd
 .text.__isnand
                0x8001dfce       0x1c c:/program files (x86)/atmel/avr studio 5.1/extensions/atmel/avrgcc/3.3.1.27/avrtoolchain/bin/../lib/gcc/avr32/4.4.3/../../../../avr32/lib/ucr2\libc.a(lib_a-s_isnand.o)
                0x8001dfce                __isnand
 *fill*         0x8001dfea        0x2 d703d703
 .text._strtod_r
                0x8001dfec      0xcf0 c:/program files (x86)/atmel/avr studio 5.1/extensions/atmel/avrgcc/3.3.1.27/avrtoolchain/bin/../lib/gcc/avr32/4.4.3/../../../../avr32/lib/ucr2\libc.a(lib_a-strtod.o)
                0x8001dfec                _strtod_r
 .text._strtoll_r
                0x8001ecdc      0x1b0 c:/program files (x86)/atmel/avr studio 5.1/extensions/atmel/avrgcc/3.3.1.27/avrtoolchain/bin/../lib/gcc/avr32/4.4.3/../../../../avr32/lib/ucr2\libc.a(lib_a-strtoll_r.o)
                0x8001ecdc                _strtoll_r
 .text._strtoull_r
                0x8001ee8c      0x188 c:/program files (x86)/atmel/avr studio 5.1/extensions/atmel/avrgcc/3.3.1.27/avrtoolchain/bin/../lib/gcc/avr32/4.4.3/../../../../avr32/lib/ucr2\libc.a(lib_a-strtoull_r.o)
                0x8001ee8c                _strtoull_r
 .text._strtoul_r
                0x8001f014      0x118 c:/program files (x86)/atmel/avr studio 5.1/extensions/atmel/avrgcc/3.3.1.27/avrtoolchain/bin/../lib/gcc/avr32/4.4.3/../../../../avr32/lib/ucr2\libc.a(lib_a-strtoul.o)
                0x8001f014                _strtoul_r
 .text.__submore
                0x8001f12c       0x70 c:/program files (x86)/atmel/avr studio 5.1/extensions/atmel/avrgcc/3.3.1.27/avrtoolchain/bin/../lib/gcc/avr32/4.4.3/../../../../avr32/lib/ucr2\libc.a(lib_a-ungetc.o)
                0x8001f12c                __submore
 .text._ungetc_r
                0x8001f19c       0xf0 c:/program files (x86)/atmel/avr studio 5.1/extensions/atmel/avrgcc/3.3.1.27/avrtoolchain/bin/../lib/gcc/avr32/4.4.3/../../../../avr32/lib/ucr2\libc.a(lib_a-ungetc.o)
                0x8001f19c                _ungetc_r
 .text._calloc_r
                0x8001f28c       0x60 c:/program files (x86)/atmel/avr studio 5.1/extensions/atmel/avrgcc/3.3.1.27/avrtoolchain/bin/../lib/gcc/avr32/4.4.3/../../../../avr32/lib/ucr2\libc.a(lib_a-callocr.o)
                0x8001f28c                _calloc_r
 .text._fstat_r
                0x8001f2ec       0x2c c:/program files (x86)/atmel/avr studio 5.1/extensions/atmel/avrgcc/3.3.1.27/avrtoolchain/bin/../lib/gcc/avr32/4.4.3/../../../../avr32/lib/ucr2\libc.a(lib_a-fstatr.o)
                0x8001f2ec                _fstat_r
 .text.__hexdig_init
                0x8001f318       0x60 c:/program files (x86)/atmel/avr studio 5.1/extensions/atmel/avrgcc/3.3.1.27/avrtoolchain/bin/../lib/gcc/avr32/4.4.3/../../../../avr32/lib/ucr2\libc.a(lib_a-gdtoa-gethex.o)
                0x8001f318                __hexdig_init
 .text.rshift   0x8001f378       0x6a c:/program files (x86)/atmel/avr studio 5.1/extensions/atmel/avrgcc/3.3.1.27/avrtoolchain/bin/../lib/gcc/avr32/4.4.3/../../../../avr32/lib/ucr2\libc.a(lib_a-gdtoa-gethex.o)
 *fill*         0x8001f3e2        0x2 d703d703
 .text.__gethex
                0x8001f3e4      0x458 c:/program files (x86)/atmel/avr studio 5.1/extensions/atmel/avrgcc/3.3.1.27/avrtoolchain/bin/../lib/gcc/avr32/4.4.3/../../../../avr32/lib/ucr2\libc.a(lib_a-gdtoa-gethex.o)
                0x8001f3e4                __gethex
 .text.__hexnan
                0x8001f83c      0x180 c:/program files (x86)/atmel/avr studio 5.1/extensions/atmel/avrgcc/3.3.1.27/avrtoolchain/bin/../lib/gcc/avr32/4.4.3/../../../../avr32/lib/ucr2\libc.a(lib_a-gdtoa-hexnan.o)
                0x8001f83c                __hexnan
 .text          0x8001f9bc       0x26 c:/program files (x86)/atmel/avr studio 5.1/extensions/atmel/avrgcc/3.3.1.27/avrtoolchain/bin/../lib/gcc/avr32/4.4.3/ucr2\libgcc.a(_avr32_f64_cmp_eq.o)
                0x8001f9bc                __avr32_f64_cmp_eq
 .text          0x8001f9e2       0x68 c:/program files (x86)/atmel/avr studio 5.1/extensions/atmel/avrgcc/3.3.1.27/avrtoolchain/bin/../lib/gcc/avr32/4.4.3/ucr2\libgcc.a(_avr32_f64_cmp_ge.o)
                0x8001f9e2                __avr32_f64_cmp_ge
 .text          0x8001fa4a       0x8a c:/program files (x86)/atmel/avr studio 5.1/extensions/atmel/avrgcc/3.3.1.27/avrtoolchain/bin/../lib/gcc/avr32/4.4.3/ucr2\libgcc.a(_avr32_f64_to_f32.o)
                0x8001fa4a                __avr32_f64_to_f32
 .text          0x8001fad4      0x272 c:/program files (x86)/atmel/avr studio 5.1/extensions/atmel/avrgcc/3.3.1.27/avrtoolchain/bin/../lib/gcc/avr32/4.4.3/ucr2\libgcc.a(_umoddi3.o)
                0x8001fad4                __avr32_umod64
                0x8001fad4                __umoddi3
 *fill*         0x8001fd46        0x2 d703d703
 .text          0x8001fd48       0x20 c:/program files (x86)/atmel/avr studio 5.1/extensions/atmel/avrgcc/3.3.1.27/avrtoolchain/bin/../lib/gcc/avr32/4.4.3/ucr2/crtend.o
 *(.text.*personality*)
 *(.gnu.warning)

.exception      0x8001fe00      0x200
 .exception     0x8001fe00      0x200 AVR32_LIBS/SERVICES/FREERTOS/Source/portable/GCC/AVR32_UC3/exception.o
                0x8001fe00                _evba
                0x8001ff3c                ipr_val

.fini           0x80020000       0x18
 *(.fini)
 .fini          0x80020000       0x10 c:/program files (x86)/atmel/avr studio 5.1/extensions/atmel/avrgcc/3.3.1.27/avrtoolchain/bin/../lib/gcc/avr32/4.4.3/ucr2/crti.o
                0x80020000                _fini
 .fini          0x80020010        0x4 c:/program files (x86)/atmel/avr studio 5.1/extensions/atmel/avrgcc/3.3.1.27/avrtoolchain/bin/../lib/gcc/avr32/4.4.3/ucr2/crtbegin.o
 .fini          0x80020014        0x4 c:/program files (x86)/atmel/avr studio 5.1/extensions/atmel/avrgcc/3.3.1.27/avrtoolchain/bin/../lib/gcc/avr32/4.4.3/ucr2/crtn.o
                0x80020018                PROVIDE (__etext, .)
                0x80020018                PROVIDE (_etext, .)
                0x80020018                PROVIDE (etext, .)

.rodata         0x80020018      0x7e0
 *(.rodata .rodata.* .gnu.linkonce.r.*)
 .rodata.str1.4
                0x80020018       0xb8 ../AVR32_LIBS/UTILS/LIBS/NEWLIB_ADDONS/AT32UCR2\libnewlib_addons-at32ucr2-speed_opt.a(syscalls.o)
 .rodata.__sf_fake_stdin
                0x800200d0       0x20 c:/program files (x86)/atmel/avr studio 5.1/extensions/atmel/avrgcc/3.3.1.27/avrtoolchain/bin/../lib/gcc/avr32/4.4.3/../../../../avr32/lib/ucr2\libc.a(lib_a-findfp.o)
                0x800200d0                __sf_fake_stdin
 .rodata.__sf_fake_stdout
                0x800200f0       0x20 c:/program files (x86)/atmel/avr studio 5.1/extensions/atmel/avrgcc/3.3.1.27/avrtoolchain/bin/../lib/gcc/avr32/4.4.3/../../../../avr32/lib/ucr2\libc.a(lib_a-findfp.o)
                0x800200f0                __sf_fake_stdout
 .rodata.__sf_fake_stderr
                0x80020110       0x20 c:/program files (x86)/atmel/avr studio 5.1/extensions/atmel/avrgcc/3.3.1.27/avrtoolchain/bin/../lib/gcc/avr32/4.4.3/../../../../avr32/lib/ucr2\libc.a(lib_a-findfp.o)
                0x80020110                __sf_fake_stderr
 .rodata.str1.4
                0x80020130        0x2 c:/program files (x86)/atmel/avr studio 5.1/extensions/atmel/avrgcc/3.3.1.27/avrtoolchain/bin/../lib/gcc/avr32/4.4.3/../../../../avr32/lib/ucr2\libc.a(lib_a-impure.o)
                                  0x4 (size before relaxing)
 *fill*         0x80020132        0x2 00
 .rodata._global_impure_ptr
                0x80020134        0x4 c:/program files (x86)/atmel/avr studio 5.1/extensions/atmel/avrgcc/3.3.1.27/avrtoolchain/bin/../lib/gcc/avr32/4.4.3/../../../../avr32/lib/ucr2\libc.a(lib_a-impure.o)
                0x80020134                _global_impure_ptr
 .rodata.get_arg
                0x80020138       0x3c c:/program files (x86)/atmel/avr studio 5.1/extensions/atmel/avrgcc/3.3.1.27/avrtoolchain/bin/../lib/gcc/avr32/4.4.3/../../../../avr32/lib/ucr2\libc.a(lib_a-vfprintf.o)
 .rodata._vfprintf_r
                0x80020174      0x164 c:/program files (x86)/atmel/avr studio 5.1/extensions/atmel/avrgcc/3.3.1.27/avrtoolchain/bin/../lib/gcc/avr32/4.4.3/../../../../avr32/lib/ucr2\libc.a(lib_a-vfprintf.o)
 .rodata.state_table
                0x800202d8       0x6c c:/program files (x86)/atmel/avr studio 5.1/extensions/atmel/avrgcc/3.3.1.27/avrtoolchain/bin/../lib/gcc/avr32/4.4.3/../../../../avr32/lib/ucr2\libc.a(lib_a-vfprintf.o)
 .rodata.action_table
                0x80020344       0x6c c:/program files (x86)/atmel/avr studio 5.1/extensions/atmel/avrgcc/3.3.1.27/avrtoolchain/bin/../lib/gcc/avr32/4.4.3/../../../../avr32/lib/ucr2\libc.a(lib_a-vfprintf.o)
 .rodata.str1.4
                0x800203b0       0x3a c:/program files (x86)/atmel/avr studio 5.1/extensions/atmel/avrgcc/3.3.1.27/avrtoolchain/bin/../lib/gcc/avr32/4.4.3/../../../../avr32/lib/ucr2\libc.a(lib_a-vfprintf.o)
                                 0x3c (size before relaxing)
 *fill*         0x800203ea        0x2 00
 .rodata.blanks.3430
                0x800203ec       0x10 c:/program files (x86)/atmel/avr studio 5.1/extensions/atmel/avrgcc/3.3.1.27/avrtoolchain/bin/../lib/gcc/avr32/4.4.3/../../../../avr32/lib/ucr2\libc.a(lib_a-vfprintf.o)
 .rodata.zeroes.3431
                0x800203fc       0x10 c:/program files (x86)/atmel/avr studio 5.1/extensions/atmel/avrgcc/3.3.1.27/avrtoolchain/bin/../lib/gcc/avr32/4.4.3/../../../../avr32/lib/ucr2\libc.a(lib_a-vfprintf.o)
 .rodata.chclass
                0x8002040c      0x100 c:/program files (x86)/atmel/avr studio 5.1/extensions/atmel/avrgcc/3.3.1.27/avrtoolchain/bin/../lib/gcc/avr32/4.4.3/../../../../avr32/lib/ucr2\libc.a(lib_a-vfprintf.o)
 .rodata.basefix.3325
                0x8002050c       0x22 c:/program files (x86)/atmel/avr studio 5.1/extensions/atmel/avrgcc/3.3.1.27/avrtoolchain/bin/../lib/gcc/avr32/4.4.3/../../../../avr32/lib/ucr2\libc.a(lib_a-vfscanf.o)
 *fill*         0x8002052e        0x2 00
 .rodata.str1.4
                0x80020530        0x5 c:/program files (x86)/atmel/avr studio 5.1/extensions/atmel/avrgcc/3.3.1.27/avrtoolchain/bin/../lib/gcc/avr32/4.4.3/../../../../avr32/lib/ucr2\libc.a(lib_a-vfscanf.o)
                                  0x8 (size before relaxing)
 *fill*         0x80020535        0x3 00
 .rodata._ctype_
                0x80020538      0x104 c:/program files (x86)/atmel/avr studio 5.1/extensions/atmel/avrgcc/3.3.1.27/avrtoolchain/bin/../lib/gcc/avr32/4.4.3/../../../../avr32/lib/ucr2\libc.a(lib_a-ctype_.o)
                0x80020538                _ctype_
 .rodata.str1.4
                0x8002063c       0x10 c:/program files (x86)/atmel/avr studio 5.1/extensions/atmel/avrgcc/3.3.1.27/avrtoolchain/bin/../lib/gcc/avr32/4.4.3/../../../../avr32/lib/ucr2\libc.a(lib_a-dtoa.o)
                                 0x14 (size before relaxing)
 .rodata.lconv  0x8002064c       0x30 c:/program files (x86)/atmel/avr studio 5.1/extensions/atmel/avrgcc/3.3.1.27/avrtoolchain/bin/../lib/gcc/avr32/4.4.3/../../../../avr32/lib/ucr2\libc.a(lib_a-locale.o)
 .rodata.str1.4
                0x8002067c        0xf c:/program files (x86)/atmel/avr studio 5.1/extensions/atmel/avrgcc/3.3.1.27/avrtoolchain/bin/../lib/gcc/avr32/4.4.3/../../../../avr32/lib/ucr2\libc.a(lib_a-locale.o)
                                 0x18 (size before relaxing)
 .rodata.str1.4
                0x00000000        0x4 c:/program files (x86)/atmel/avr studio 5.1/extensions/atmel/avrgcc/3.3.1.27/avrtoolchain/bin/../lib/gcc/avr32/4.4.3/../../../../avr32/lib/ucr2\libc.a(lib_a-mbrtowc.o)
 *fill*         0x8002068b        0x1 00
 .rodata.p05.2471
                0x8002068c        0xc c:/program files (x86)/atmel/avr studio 5.1/extensions/atmel/avrgcc/3.3.1.27/avrtoolchain/bin/../lib/gcc/avr32/4.4.3/../../../../avr32/lib/ucr2\libc.a(lib_a-mprec.o)
 .rodata.__mprec_tens
                0x80020698       0xc8 c:/program files (x86)/atmel/avr studio 5.1/extensions/atmel/avrgcc/3.3.1.27/avrtoolchain/bin/../lib/gcc/avr32/4.4.3/../../../../avr32/lib/ucr2\libc.a(lib_a-mprec.o)
                0x80020698                __mprec_tens
 .rodata.__mprec_bigtens
                0x80020760       0x28 c:/program files (x86)/atmel/avr studio 5.1/extensions/atmel/avrgcc/3.3.1.27/avrtoolchain/bin/../lib/gcc/avr32/4.4.3/../../../../avr32/lib/ucr2\libc.a(lib_a-mprec.o)
                0x80020760                __mprec_bigtens
 .rodata._strtod_r
                0x80020788       0x1c c:/program files (x86)/atmel/avr studio 5.1/extensions/atmel/avrgcc/3.3.1.27/avrtoolchain/bin/../lib/gcc/avr32/4.4.3/../../../../avr32/lib/ucr2\libc.a(lib_a-strtod.o)
 .rodata.str1.4
                0x800207a4        0xf c:/program files (x86)/atmel/avr studio 5.1/extensions/atmel/avrgcc/3.3.1.27/avrtoolchain/bin/../lib/gcc/avr32/4.4.3/../../../../avr32/lib/ucr2\libc.a(lib_a-strtod.o)
                                 0x10 (size before relaxing)
 *fill*         0x800207b3        0x1 00
 .rodata.tinytens
                0x800207b4       0x28 c:/program files (x86)/atmel/avr studio 5.1/extensions/atmel/avrgcc/3.3.1.27/avrtoolchain/bin/../lib/gcc/avr32/4.4.3/../../../../avr32/lib/ucr2\libc.a(lib_a-strtod.o)
 .rodata.str1.4
                0x800207dc       0x1c c:/program files (x86)/atmel/avr studio 5.1/extensions/atmel/avrgcc/3.3.1.27/avrtoolchain/bin/../lib/gcc/avr32/4.4.3/../../../../avr32/lib/ucr2\libc.a(lib_a-gdtoa-gethex.o)

.rodata1
 *(.rodata1)

.eh_frame_hdr
 *(.eh_frame_hdr)

.eh_frame
 *(.eh_frame)

.gcc_except_table
 *(.gcc_except_table)
 *(.gcc_except_table.*)

.dalign         0x800207f8        0x0
                0x800207f8                . = ALIGN (0x8)
                0x800207f8                PROVIDE (_data_lma, .)
                0x00000004                PROVIDE (_data, 0x4)
                0x00000004                . = 0x4

.eh_frame
 *(.eh_frame)

.gcc_except_table
 *(.gcc_except_table)
 *(.gcc_except_table.*)

.tdata
 *(.tdata .tdata.* .gnu.linkonce.td.*)

.tbss
 *(.tbss .tbss.* .gnu.linkonce.tb.*)
 *(.tcommon)
                0x00000004                PROVIDE (__preinit_array_start, ALIGN (0x4))

.preinit_array
 *(.preinit_array)
                0x00000004                PROVIDE (__preinit_array_end, .)
                0x00000004                PROVIDE (__init_array_start, .)

.init_array
 *(.init_array)
                0x00000004                PROVIDE (__init_array_end, .)
                0x00000004                PROVIDE (__fini_array_start, .)

.fini_array
 *(.fini_array)
                0x00000004                PROVIDE (__fini_array_end, .)

.ctors          0x00000004        0x8 load address 0x800207f8
 *crtbegin*.o(.ctors)
 .ctors         0x00000004        0x4 c:/program files (x86)/atmel/avr studio 5.1/extensions/atmel/avrgcc/3.3.1.27/avrtoolchain/bin/../lib/gcc/avr32/4.4.3/ucr2/crtbegin.o
 *(EXCLUDE_FILE(*crtend*.o) .ctors)
 *(SORT(.ctors.*))
 *(.ctors)
 .ctors         0x00000008        0x4 c:/program files (x86)/atmel/avr studio 5.1/extensions/atmel/avrgcc/3.3.1.27/avrtoolchain/bin/../lib/gcc/avr32/4.4.3/ucr2/crtend.o

.dtors          0x0000000c        0x8 load address 0x80020800
 *crtbegin*.o(.dtors)
 .dtors         0x0000000c        0x4 c:/program files (x86)/atmel/avr studio 5.1/extensions/atmel/avrgcc/3.3.1.27/avrtoolchain/bin/../lib/gcc/avr32/4.4.3/ucr2/crtbegin.o
 *(EXCLUDE_FILE(*crtend*.o) .dtors)
 *(SORT(.dtors.*))
 *(.dtors)
 .dtors         0x00000010        0x4 c:/program files (x86)/atmel/avr studio 5.1/extensions/atmel/avrgcc/3.3.1.27/avrtoolchain/bin/../lib/gcc/avr32/4.4.3/ucr2/crtend.o
                0x00000010                __DTOR_END__

.jcr            0x00000014        0x4 load address 0x80020808
 *(.jcr)
 .jcr           0x00000014        0x0 c:/program files (x86)/atmel/avr studio 5.1/extensions/atmel/avrgcc/3.3.1.27/avrtoolchain/bin/../lib/gcc/avr32/4.4.3/ucr2/crtbegin.o
 .jcr           0x00000014        0x4 c:/program files (x86)/atmel/avr studio 5.1/extensions/atmel/avrgcc/3.3.1.27/avrtoolchain/bin/../lib/gcc/avr32/4.4.3/ucr2/crtend.o

.data.rel.ro
 *(.data.rel.ro.local)
 *(.data.rel.ro*)

.dynamic
 *(.dynamic)

.got            0x00000018        0xc load address 0x8002080c
 *(.got.plt)
 *(.got)
 .got           0x00000018        0xc c:/program files (x86)/atmel/avr studio 5.1/extensions/atmel/avrgcc/3.3.1.27/avrtoolchain/bin/../lib/gcc/avr32/4.4.3/../../../../avr32/lib/ucr2/crt0.o
                0x00000018                _GLOBAL_OFFSET_TABLE_

.data           0x00000024      0x584 load address 0x80020818
 *(.data .data.* .gnu.linkonce.d.*)
 .data          0x00000024        0x4 AVR32_LIBS/COMPONENTS/TCA6424/tca6424.o
 .data          0x00000028        0x4 AVR32_LIBS/DRIVERS/FLASHC/flashc.o
                0x00000028                flashc_wait_until_ready
 .data          0x0000002c        0x4 AVR32_LIBS/DRIVERS/TWI/twi.o
 .data          0x00000030        0x4 AVR32_LIBS/SERVICES/FREERTOS/Source/portable/GCC/AVR32_UC3/port.o
                0x00000030                ulCriticalNesting
 .data          0x00000034        0x4 AVR32_LIBS/SERVICES/FREERTOS/Source/tasks.o
 .data          0x00000038        0x8 spike_fw_update.o
                0x00000038                prog_size
 .data          0x00000040       0x1c main_app.o
                0x00000040                WZH_address
                0x00000042                struct_flash_data
                0x00000058                ptr_flash_data
 .data          0x0000005c       0x10 terminal/usb/usb.o
                0x0000005c                pm_freq_param
 .data.cpu_hz   0x0000006c        0x4 ../AVR32_LIBS/UTILS/LIBS/NEWLIB_ADDONS/AT32UCR2\libnewlib_addons-at32ucr2-speed_opt.a(cpu.o)
 .data.usart_base
                0x00000070        0x4 ../AVR32_LIBS/UTILS/LIBS/NEWLIB_ADDONS/AT32UCR2\libnewlib_addons-at32ucr2-speed_opt.a(usart.o)
 .data.impure_data
                0x00000074       0xf0 c:/program files (x86)/atmel/avr studio 5.1/extensions/atmel/avrgcc/3.3.1.27/avrtoolchain/bin/../lib/gcc/avr32/4.4.3/../../../../avr32/lib/ucr2\libc.a(lib_a-impure.o)
 .data._impure_ptr
                0x00000164        0x4 c:/program files (x86)/atmel/avr studio 5.1/extensions/atmel/avrgcc/3.3.1.27/avrtoolchain/bin/../lib/gcc/avr32/4.4.3/../../../../avr32/lib/ucr2\libc.a(lib_a-impure.o)
                0x00000164                _impure_ptr
 .data.__malloc_av_
                0x00000168      0x408 c:/program files (x86)/atmel/avr studio 5.1/extensions/atmel/avrgcc/3.3.1.27/avrtoolchain/bin/../lib/gcc/avr32/4.4.3/../../../../avr32/lib/ucr2\libc.a(lib_a-mallocr.o)
                0x00000168                __malloc_av_
 .data.__malloc_trim_threshold
                0x00000570        0x4 c:/program files (x86)/atmel/avr studio 5.1/extensions/atmel/avrgcc/3.3.1.27/avrtoolchain/bin/../lib/gcc/avr32/4.4.3/../../../../avr32/lib/ucr2\libc.a(lib_a-mallocr.o)
                0x00000570                __malloc_trim_threshold
 .data.__malloc_sbrk_base
                0x00000574        0x4 c:/program files (x86)/atmel/avr studio 5.1/extensions/atmel/avrgcc/3.3.1.27/avrtoolchain/bin/../lib/gcc/avr32/4.4.3/../../../../avr32/lib/ucr2\libc.a(lib_a-mallocr.o)
                0x00000574                __malloc_sbrk_base
 .data.__ctype_ptr
                0x00000578        0x4 c:/program files (x86)/atmel/avr studio 5.1/extensions/atmel/avrgcc/3.3.1.27/avrtoolchain/bin/../lib/gcc/avr32/4.4.3/../../../../avr32/lib/ucr2\libc.a(lib_a-ctype_.o)
                0x00000578                __ctype_ptr
 .data.__mb_cur_max
                0x0000057c        0x4 c:/program files (x86)/atmel/avr studio 5.1/extensions/atmel/avrgcc/3.3.1.27/avrtoolchain/bin/../lib/gcc/avr32/4.4.3/../../../../avr32/lib/ucr2\libc.a(lib_a-locale.o)
                0x0000057c                __mb_cur_max
 .data.fpinan.1939
                0x00000580       0x14 c:/program files (x86)/atmel/avr studio 5.1/extensions/atmel/avrgcc/3.3.1.27/avrtoolchain/bin/../lib/gcc/avr32/4.4.3/../../../../avr32/lib/ucr2\libc.a(lib_a-strtod.o)
 .data.fpi.1903
                0x00000594       0x14 c:/program files (x86)/atmel/avr studio 5.1/extensions/atmel/avrgcc/3.3.1.27/avrtoolchain/bin/../lib/gcc/avr32/4.4.3/../../../../avr32/lib/ucr2\libc.a(lib_a-strtod.o)
 *(.gnu.linkonce.d.*personality*)

.data1
 *(.data1)

.balign         0x000005a8        0x0 load address 0x80020d9c
                0x000005a8                . = ALIGN (0x8)
                0x000005a8                _edata = .
                0x000005a8                _edata = .
                0x000005a8                PROVIDE (edata, .)
                0x000005a8                __bss_start = .

.bss            0x000005a8     0x5af0 load address 0x80020d9c
 *(.dynbss)
 *(.bss .bss.* .gnu.linkonce.b.*)
 .bss           0x000005a8        0x8 c:/program files (x86)/atmel/avr studio 5.1/extensions/atmel/avrgcc/3.3.1.27/avrtoolchain/bin/../lib/gcc/avr32/4.4.3/ucr2/crtbegin.o
 .bss           0x000005b0        0x4 AVR32_LIBS/COMPONENTS/AT86RF231/at86rf231.o
 .bss           0x000005b4        0x8 AVR32_LIBS/COMPONENTS/AT86RF231/pal_trx_access.o
 .bss           0x000005bc        0x4 AVR32_LIBS/COMPONENTS/TCA6424/tca6424.o
                0x000005bc                LEDs
 .bss           0x000005c0        0x4 AVR32_LIBS/DRIVERS/FLASHC/flashc.o
 .bss           0x000005c4       0xd8 AVR32_LIBS/DRIVERS/INTC/intc.o
 .bss           0x0000069c        0x4 AVR32_LIBS/DRIVERS/SPI/spi.o
 .bss           0x000006a0       0x24 AVR32_LIBS/DRIVERS/TWI/twi.o
 .bss           0x000006c4        0x4 AVR32_LIBS/DRIVERS/USBB/ENUM/DEVICE/usb_device_task.o
                0x000006c4                usb_device_tsk
 .bss           0x000006c8        0x1 AVR32_LIBS/DRIVERS/USBB/ENUM/DEVICE/usb_standard_request.o
 *fill*         0x000006c9        0x3 00
 .bss           0x000006cc        0x8 AVR32_LIBS/DRIVERS/USBB/ENUM/usb_task.o
                0x000006cc                g_usb_event
 .bss           0x000006d4      0x18c AVR32_LIBS/SERVICES/FREERTOS/Source/tasks.o
                0x000006d4                pxCurrentTCB
 .bss           0x00000860        0xc AVR32_LIBS/SERVICES/USB/CLASS/CDC/EXAMPLES/ENUM/DEVICE/usb_specific_request.o
 .bss           0x0000086c       0x10 AVR32_LIBS/SERVICES/USB/CLASS/CDC/EXAMPLES/uart_usb_lib.o
                0x0000086c                errrr
 .bss           0x0000087c      0x204 spike_fw_update.o
                0x0000087c                prog_code
                0x00000a7c                prog_code_index
 .bss           0x00000a80       0x70 main_app.o
                0x00000a80                frequency
                0x00000a84                app_control
                0x00000a98                index_average
                0x00000a9c                avg_values_result
                0x00000ab0                avg_values_result2
                0x00000ac4                power_on_cnt
                0x00000ac6                spannung
                0x00000ac8                temperature
                0x00000acc                empfang
                0x00000ace                ptr_over_flow
                0x00000ad0                ptr_offset
                0x00000ad2                reset_timer
 .bss           0x00000af0      0x81c terminal/usb/usb.o
                0x00000af0                debug_string
                0x000012f0                xSemaphoreUSB
                0x000012f4                char_to_uint
                0x000012f8                xTaskWokenByTx
 .bss.cur_heap_pos.2832
                0x0000130c        0x4 ../AVR32_LIBS/UTILS/LIBS/NEWLIB_ADDONS/AT32UCR2\libnewlib_addons-at32ucr2-speed_opt.a(syscalls.o)
 .bss.__malloc_max_total_mem
                0x00001310        0x4 c:/program files (x86)/atmel/avr studio 5.1/extensions/atmel/avrgcc/3.3.1.27/avrtoolchain/bin/../lib/gcc/avr32/4.4.3/../../../../avr32/lib/ucr2\libc.a(lib_a-mallocr.o)
                0x00001310                __malloc_max_total_mem
 .bss.__malloc_max_sbrked_mem
                0x00001314        0x4 c:/program files (x86)/atmel/avr studio 5.1/extensions/atmel/avrgcc/3.3.1.27/avrtoolchain/bin/../lib/gcc/avr32/4.4.3/../../../../avr32/lib/ucr2\libc.a(lib_a-mallocr.o)
                0x00001314                __malloc_max_sbrked_mem
 .bss.__malloc_top_pad
                0x00001318        0x4 c:/program files (x86)/atmel/avr studio 5.1/extensions/atmel/avrgcc/3.3.1.27/avrtoolchain/bin/../lib/gcc/avr32/4.4.3/../../../../avr32/lib/ucr2\libc.a(lib_a-mallocr.o)
                0x00001318                __malloc_top_pad
 .bss.__malloc_current_mallinfo
                0x0000131c       0x28 c:/program files (x86)/atmel/avr studio 5.1/extensions/atmel/avrgcc/3.3.1.27/avrtoolchain/bin/../lib/gcc/avr32/4.4.3/../../../../avr32/lib/ucr2\libc.a(lib_a-mallocr.o)
                0x0000131c                __malloc_current_mallinfo
 *(COMMON)
 COMMON         0x00001344      0x22b AVR32_LIBS/COMPONENTS/AT86RF231/at86rf231.o
                0x00001344                tx_frame
                0x000013cc                tal_rx_buffer
                0x00001450                rx_frame
                0x000014d8                tal_tx_buffer
                0x0000155c                tal_trx_status
                0x00001560                xSem_radio_receive
                0x00001564                rf231_rec_info
 COMMON         0x0000156f        0x1 AVR32_LIBS/COMPONENTS/AT86RF231/pal_trx_access.o
                0x0000156f                tal_state
 COMMON         0x00001570        0x1 AVR32_LIBS/DRIVERS/USBB/ENUM/DEVICE/usb_device_task.o
                0x00001570                usb_connected
 *fill*         0x00001571        0x3 00
 COMMON         0x00001574        0x8 AVR32_LIBS/DRIVERS/USBB/ENUM/DEVICE/usb_standard_request.o
                0x00001574                usb_configuration_nb
                0x00001576                data_to_transfer
                0x00001578                pbuffer
 COMMON         0x0000157c       0x1c AVR32_LIBS/DRIVERS/USBB/usb_drv.o
                0x0000157c                pep_fifo
 COMMON         0x00001598        0x8 AVR32_LIBS/SERVICES/USB/CLASS/CDC/EXAMPLES/ENUM/DEVICE/usb_specific_request.o
                0x00001598                line_coding
 COMMON         0x000015a0        0x3 AVR32_LIBS/SERVICES/USB/CLASS/CDC/EXAMPLES/uart_usb_lib.o
                0x000015a0                dev_tx_cnt
                0x000015a1                dev_rx_cnt
                0x000015a2                nmb_packets
 *fill*         0x000015a3        0x1 00
 COMMON         0x000015a4     0x4826 main_app.o
                0x000015a4                fast_usb_string
                0x000055a4                spike_payload_ptr
                0x000055a8                xHandleCONTROL_tsk
                0x000055ac                xHandleCC2
                0x000055b0                avg_values
                0x00005d80                xHandleTIMING_tsk
                0x00005d84                cock_d
 *fill*         0x00005dca        0x2 00
 COMMON         0x00005dcc      0x1c5 terminal/usb/usb.o
                0x00005dcc                xHandleUSB
                0x00005dd0                sof_cnt
                0x00005dd4                retstatus
                0x00005dd8                cChar
                0x00005dd9                hex_buffer
 *fill*         0x00005f91        0x3 00
 COMMON         0x00005f94        0x4 c:/program files (x86)/atmel/avr studio 5.1/extensions/atmel/avrgcc/3.3.1.27/avrtoolchain/bin/../lib/gcc/avr32/4.4.3/../../../../avr32/lib/ucr2\libc.a(lib_a-reent.o)
                0x00005f94                errno
 COMMON         0x00005f98      0x100 c:/program files (x86)/atmel/avr studio 5.1/extensions/atmel/avrgcc/3.3.1.27/avrtoolchain/bin/../lib/gcc/avr32/4.4.3/../../../../avr32/lib/ucr2\libc.a(lib_a-gdtoa-gethex.o)
                0x00005f98                __hexdig
                0x00006098                . = ALIGN (0x8)
                0x00006098                . = ALIGN (0x8)
                0x00006098                _end = .
                0x00006098                PROVIDE (end, .)
                0x00006098                __heap_start__ = ALIGN (0x8)
                0x0000f000                . = (0x10000 - _stack_size)
                0x0000f000                __heap_end__ = .

.stab
 *(.stab)

.stabstr
 *(.stabstr)

.stab.excl
 *(.stab.excl)

.stab.exclstr
 *(.stab.exclstr)

.stab.index
 *(.stab.index)

.stab.indexstr
 *(.stab.indexstr)

.comment        0x00000000       0xf0
 *(.comment)
 .comment       0x00000000       0x30 c:/program files (x86)/atmel/avr studio 5.1/extensions/atmel/avrgcc/3.3.1.27/avrtoolchain/bin/../lib/gcc/avr32/4.4.3/ucr2/crtbegin.o
                                 0x31 (size before relaxing)
 .comment       0x00000000       0x31 AVR32_LIBS/COMPONENTS/AD5410/ad5410.o
 .comment       0x00000000       0x31 AVR32_LIBS/COMPONENTS/AT86RF231/at86rf231.o
 .comment       0x00000000       0x31 AVR32_LIBS/COMPONENTS/AT86RF231/pal_trx_access.o
 .comment       0x00000000       0x31 AVR32_LIBS/COMPONENTS/TCA6424/tca6424.o
 .comment       0x00000000       0x31 AVR32_LIBS/DRIVERS/ADC/adc.o
 .comment       0x00000000       0x31 AVR32_LIBS/DRIVERS/EIC/eic.o
 .comment       0x00000000       0x31 AVR32_LIBS/DRIVERS/FLASHC/flashc.o
 .comment       0x00000000       0x31 AVR32_LIBS/DRIVERS/GPIO/gpio.o
 .comment       0x00000000       0x31 AVR32_LIBS/DRIVERS/INTC/intc.o
 .comment       0x00000000       0x31 AVR32_LIBS/DRIVERS/PDCA/pdca.o
 .comment       0x00000000       0x31 AVR32_LIBS/DRIVERS/PM/pm.o
 .comment       0x00000000       0x31 AVR32_LIBS/DRIVERS/PM/pm_conf_clocks.o
 .comment       0x00000000       0x31 AVR32_LIBS/DRIVERS/PWM/pwm.o
 .comment       0x00000000       0x31 AVR32_LIBS/DRIVERS/RTC/rtc.o
 .comment       0x00000000       0x31 AVR32_LIBS/DRIVERS/SPI/spi.o
 .comment       0x00000000       0x31 AVR32_LIBS/DRIVERS/TWI/twi.o
 .comment       0x00000000       0x31 AVR32_LIBS/DRIVERS/USART/usart.o
 .comment       0x00000000       0x31 AVR32_LIBS/DRIVERS/USBB/ENUM/DEVICE/usb_device_task.o
 .comment       0x00000000       0x31 AVR32_LIBS/DRIVERS/USBB/ENUM/DEVICE/usb_standard_request.o
 .comment       0x00000000       0x31 AVR32_LIBS/DRIVERS/USBB/ENUM/usb_task.o
 .comment       0x00000000       0x31 AVR32_LIBS/DRIVERS/USBB/usb_drv.o
 .comment       0x00000000       0x31 AVR32_LIBS/DRIVERS/WDT/wdt.o
 .comment       0x00000000       0x31 AVR32_LIBS/SERVICES/DELAY/delay.o
 .comment       0x00000000       0x31 AVR32_LIBS/SERVICES/FREERTOS/Source/croutine.o
 .comment       0x00000000       0x31 AVR32_LIBS/SERVICES/FREERTOS/Source/list.o
 .comment       0x00000000       0x31 AVR32_LIBS/SERVICES/FREERTOS/Source/portable/GCC/AVR32_UC3/port.o
 .comment       0x00000000       0x31 AVR32_LIBS/SERVICES/FREERTOS/Source/portable/MemMang/heap_3.o
 .comment       0x00000000       0x31 AVR32_LIBS/SERVICES/FREERTOS/Source/queue.o
 .comment       0x00000000       0x31 AVR32_LIBS/SERVICES/FREERTOS/Source/tasks.o
 .comment       0x00000000       0x31 AVR32_LIBS/SERVICES/USB/CLASS/CDC/EXAMPLES/ENUM/DEVICE/usb_descriptors.o
 .comment       0x00000000       0x31 AVR32_LIBS/SERVICES/USB/CLASS/CDC/EXAMPLES/ENUM/DEVICE/usb_specific_request.o
 .comment       0x00000000       0x31 AVR32_LIBS/SERVICES/USB/CLASS/CDC/EXAMPLES/uart_usb_lib.o
 .comment       0x00000000       0x31 spike_fw_update.o
 .comment       0x00000000       0x31 main.o
 .comment       0x00000000       0x31 main_app.o
 .comment       0x00000000       0x31 security_task.o
 .comment       0x00000000       0x31 terminal/printf-stdarg.o
 .comment       0x00000000       0x31 terminal/usb/usb.o
 .comment       0x00000030       0x30 ../AVR32_LIBS/UTILS/LIBS/NEWLIB_ADDONS/AT32UCR2\libnewlib_addons-at32ucr2-speed_opt.a(cpu.o)
 .comment       0x00000060       0x30 ../AVR32_LIBS/UTILS/LIBS/NEWLIB_ADDONS/AT32UCR2\libnewlib_addons-at32ucr2-speed_opt.a(syscalls.o)
 .comment       0x00000090       0x30 ../AVR32_LIBS/UTILS/LIBS/NEWLIB_ADDONS/AT32UCR2\libnewlib_addons-at32ucr2-speed_opt.a(usart.o)
 .comment       0x000000c0       0x30 ../AVR32_LIBS/UTILS/LIBS/NEWLIB_ADDONS/AT32UCR2\libnewlib_addons-at32ucr2-speed_opt.a(exception_handling.o)
 .comment       0x00000000       0x31 c:/program files (x86)/atmel/avr studio 5.1/extensions/atmel/avrgcc/3.3.1.27/avrtoolchain/bin/../lib/gcc/avr32/4.4.3/ucr2\libgcc.a(_udivdi3.o)
 .comment       0x00000000       0x31 c:/program files (x86)/atmel/avr studio 5.1/extensions/atmel/avrgcc/3.3.1.27/avrtoolchain/bin/../lib/gcc/avr32/4.4.3/../../../../avr32/lib/ucr2\libc.a(lib_a-atexit.o)
 .comment       0x00000000       0x31 c:/program files (x86)/atmel/avr studio 5.1/extensions/atmel/avrgcc/3.3.1.27/avrtoolchain/bin/../lib/gcc/avr32/4.4.3/../../../../avr32/lib/ucr2\libc.a(lib_a-atoi.o)
 .comment       0x00000000       0x31 c:/program files (x86)/atmel/avr studio 5.1/extensions/atmel/avrgcc/3.3.1.27/avrtoolchain/bin/../lib/gcc/avr32/4.4.3/../../../../avr32/lib/ucr2\libc.a(lib_a-errno.o)
 .comment       0x00000000       0x31 c:/program files (x86)/atmel/avr studio 5.1/extensions/atmel/avrgcc/3.3.1.27/avrtoolchain/bin/../lib/gcc/avr32/4.4.3/../../../../avr32/lib/ucr2\libc.a(lib_a-exit.o)
 .comment       0x00000000       0x31 c:/program files (x86)/atmel/avr studio 5.1/extensions/atmel/avrgcc/3.3.1.27/avrtoolchain/bin/../lib/gcc/avr32/4.4.3/../../../../avr32/lib/ucr2\libc.a(lib_a-fflush.o)
 .comment       0x00000000       0x31 c:/program files (x86)/atmel/avr studio 5.1/extensions/atmel/avrgcc/3.3.1.27/avrtoolchain/bin/../lib/gcc/avr32/4.4.3/../../../../avr32/lib/ucr2\libc.a(lib_a-findfp.o)
 .comment       0x00000000       0x31 c:/program files (x86)/atmel/avr studio 5.1/extensions/atmel/avrgcc/3.3.1.27/avrtoolchain/bin/../lib/gcc/avr32/4.4.3/../../../../avr32/lib/ucr2\libc.a(lib_a-fwalk.o)
 .comment       0x00000000       0x31 c:/program files (x86)/atmel/avr studio 5.1/extensions/atmel/avrgcc/3.3.1.27/avrtoolchain/bin/../lib/gcc/avr32/4.4.3/../../../../avr32/lib/ucr2\libc.a(lib_a-impure.o)
 .comment       0x00000000       0x31 c:/program files (x86)/atmel/avr studio 5.1/extensions/atmel/avrgcc/3.3.1.27/avrtoolchain/bin/../lib/gcc/avr32/4.4.3/../../../../avr32/lib/ucr2\libc.a(lib_a-malloc.o)
 .comment       0x00000000       0x31 c:/program files (x86)/atmel/avr studio 5.1/extensions/atmel/avrgcc/3.3.1.27/avrtoolchain/bin/../lib/gcc/avr32/4.4.3/../../../../avr32/lib/ucr2\libc.a(lib_a-mallocr.o)
 .comment       0x00000000       0x31 c:/program files (x86)/atmel/avr studio 5.1/extensions/atmel/avrgcc/3.3.1.27/avrtoolchain/bin/../lib/gcc/avr32/4.4.3/../../../../avr32/lib/ucr2\libc.a(lib_a-memset.o)
 .comment       0x00000000       0x31 c:/program files (x86)/atmel/avr studio 5.1/extensions/atmel/avrgcc/3.3.1.27/avrtoolchain/bin/../lib/gcc/avr32/4.4.3/../../../../avr32/lib/ucr2\libc.a(lib_a-printf.o)
 .comment       0x00000000       0x31 c:/program files (x86)/atmel/avr studio 5.1/extensions/atmel/avrgcc/3.3.1.27/avrtoolchain/bin/../lib/gcc/avr32/4.4.3/../../../../avr32/lib/ucr2\libc.a(lib_a-putchar.o)
 .comment       0x00000000       0x31 c:/program files (x86)/atmel/avr studio 5.1/extensions/atmel/avrgcc/3.3.1.27/avrtoolchain/bin/../lib/gcc/avr32/4.4.3/../../../../avr32/lib/ucr2\libc.a(lib_a-putc.o)
 .comment       0x00000000       0x31 c:/program files (x86)/atmel/avr studio 5.1/extensions/atmel/avrgcc/3.3.1.27/avrtoolchain/bin/../lib/gcc/avr32/4.4.3/../../../../avr32/lib/ucr2\libc.a(lib_a-rand.o)
 .comment       0x00000000       0x31 c:/program files (x86)/atmel/avr studio 5.1/extensions/atmel/avrgcc/3.3.1.27/avrtoolchain/bin/../lib/gcc/avr32/4.4.3/../../../../avr32/lib/ucr2\libc.a(lib_a-realloc.o)
 .comment       0x00000000       0x31 c:/program files (x86)/atmel/avr studio 5.1/extensions/atmel/avrgcc/3.3.1.27/avrtoolchain/bin/../lib/gcc/avr32/4.4.3/../../../../avr32/lib/ucr2\libc.a(lib_a-reallocr.o)
 .comment       0x00000000       0x31 c:/program files (x86)/atmel/avr studio 5.1/extensions/atmel/avrgcc/3.3.1.27/avrtoolchain/bin/../lib/gcc/avr32/4.4.3/../../../../avr32/lib/ucr2\libc.a(lib_a-sbrkr.o)
 .comment       0x00000000       0x31 c:/program files (x86)/atmel/avr studio 5.1/extensions/atmel/avrgcc/3.3.1.27/avrtoolchain/bin/../lib/gcc/avr32/4.4.3/../../../../avr32/lib/ucr2\libc.a(lib_a-sprintf.o)
 .comment       0x00000000       0x31 c:/program files (x86)/atmel/avr studio 5.1/extensions/atmel/avrgcc/3.3.1.27/avrtoolchain/bin/../lib/gcc/avr32/4.4.3/../../../../avr32/lib/ucr2\libc.a(lib_a-sscanf.o)
 .comment       0x00000000       0x31 c:/program files (x86)/atmel/avr studio 5.1/extensions/atmel/avrgcc/3.3.1.27/avrtoolchain/bin/../lib/gcc/avr32/4.4.3/../../../../avr32/lib/ucr2\libc.a(lib_a-stdio.o)
 .comment       0x00000000       0x31 c:/program files (x86)/atmel/avr studio 5.1/extensions/atmel/avrgcc/3.3.1.27/avrtoolchain/bin/../lib/gcc/avr32/4.4.3/../../../../avr32/lib/ucr2\libc.a(lib_a-strcat.o)
 .comment       0x00000000       0x31 c:/program files (x86)/atmel/avr studio 5.1/extensions/atmel/avrgcc/3.3.1.27/avrtoolchain/bin/../lib/gcc/avr32/4.4.3/../../../../avr32/lib/ucr2\libc.a(lib_a-strlen.o)
 .comment       0x00000000       0x31 c:/program files (x86)/atmel/avr studio 5.1/extensions/atmel/avrgcc/3.3.1.27/avrtoolchain/bin/../lib/gcc/avr32/4.4.3/../../../../avr32/lib/ucr2\libc.a(lib_a-strtol.o)
 .comment       0x00000000       0x31 c:/program files (x86)/atmel/avr studio 5.1/extensions/atmel/avrgcc/3.3.1.27/avrtoolchain/bin/../lib/gcc/avr32/4.4.3/../../../../avr32/lib/ucr2\libc.a(lib_a-vfprintf.o)
 .comment       0x00000000       0x31 c:/program files (x86)/atmel/avr studio 5.1/extensions/atmel/avrgcc/3.3.1.27/avrtoolchain/bin/../lib/gcc/avr32/4.4.3/../../../../avr32/lib/ucr2\libc.a(lib_a-vfscanf.o)
 .comment       0x00000000       0x31 c:/program files (x86)/atmel/avr studio 5.1/extensions/atmel/avrgcc/3.3.1.27/avrtoolchain/bin/../lib/gcc/avr32/4.4.3/../../../../avr32/lib/ucr2\libc.a(lib_a-vsprintf.o)
 .comment       0x00000000       0x31 c:/program files (x86)/atmel/avr studio 5.1/extensions/atmel/avrgcc/3.3.1.27/avrtoolchain/bin/../lib/gcc/avr32/4.4.3/../../../../avr32/lib/ucr2\libc.a(lib_a-wbuf.o)
 .comment       0x00000000       0x31 c:/program files (x86)/atmel/avr studio 5.1/extensions/atmel/avrgcc/3.3.1.27/avrtoolchain/bin/../lib/gcc/avr32/4.4.3/../../../../avr32/lib/ucr2\libc.a(lib_a-writer.o)
 .comment       0x00000000       0x31 c:/program files (x86)/atmel/avr studio 5.1/extensions/atmel/avrgcc/3.3.1.27/avrtoolchain/bin/../lib/gcc/avr32/4.4.3/../../../../avr32/lib/ucr2\libc.a(lib_a-wsetup.o)
 .comment       0x00000000       0x31 c:/program files (x86)/atmel/avr studio 5.1/extensions/atmel/avrgcc/3.3.1.27/avrtoolchain/bin/../lib/gcc/avr32/4.4.3/../../../../avr32/lib/ucr2\libc.a(lib_a-__atexit.o)
 .comment       0x00000000       0x31 c:/program files (x86)/atmel/avr studio 5.1/extensions/atmel/avrgcc/3.3.1.27/avrtoolchain/bin/../lib/gcc/avr32/4.4.3/../../../../avr32/lib/ucr2\libc.a(lib_a-__call_atexit.o)
 .comment       0x00000000       0x31 c:/program files (x86)/atmel/avr studio 5.1/extensions/atmel/avrgcc/3.3.1.27/avrtoolchain/bin/../lib/gcc/avr32/4.4.3/../../../../avr32/lib/ucr2\libc.a(lib_a-closer.o)
 .comment       0x00000000       0x31 c:/program files (x86)/atmel/avr studio 5.1/extensions/atmel/avrgcc/3.3.1.27/avrtoolchain/bin/../lib/gcc/avr32/4.4.3/../../../../avr32/lib/ucr2\libc.a(lib_a-ctype_.o)
 .comment       0x00000000       0x31 c:/program files (x86)/atmel/avr studio 5.1/extensions/atmel/avrgcc/3.3.1.27/avrtoolchain/bin/../lib/gcc/avr32/4.4.3/../../../../avr32/lib/ucr2\libc.a(lib_a-dtoa.o)
 .comment       0x00000000       0x31 c:/program files (x86)/atmel/avr studio 5.1/extensions/atmel/avrgcc/3.3.1.27/avrtoolchain/bin/../lib/gcc/avr32/4.4.3/../../../../avr32/lib/ucr2\libc.a(lib_a-fclose.o)
 .comment       0x00000000       0x31 c:/program files (x86)/atmel/avr studio 5.1/extensions/atmel/avrgcc/3.3.1.27/avrtoolchain/bin/../lib/gcc/avr32/4.4.3/../../../../avr32/lib/ucr2\libc.a(lib_a-fread.o)
 .comment       0x00000000       0x31 c:/program files (x86)/atmel/avr studio 5.1/extensions/atmel/avrgcc/3.3.1.27/avrtoolchain/bin/../lib/gcc/avr32/4.4.3/../../../../avr32/lib/ucr2\libc.a(lib_a-freer.o)
 .comment       0x00000000       0x31 c:/program files (x86)/atmel/avr studio 5.1/extensions/atmel/avrgcc/3.3.1.27/avrtoolchain/bin/../lib/gcc/avr32/4.4.3/../../../../avr32/lib/ucr2\libc.a(lib_a-fvwrite.o)
 .comment       0x00000000       0x31 c:/program files (x86)/atmel/avr studio 5.1/extensions/atmel/avrgcc/3.3.1.27/avrtoolchain/bin/../lib/gcc/avr32/4.4.3/../../../../avr32/lib/ucr2\libc.a(lib_a-iswspace.o)
 .comment       0x00000000       0x31 c:/program files (x86)/atmel/avr studio 5.1/extensions/atmel/avrgcc/3.3.1.27/avrtoolchain/bin/../lib/gcc/avr32/4.4.3/../../../../avr32/lib/ucr2\libc.a(lib_a-locale.o)
 .comment       0x00000000       0x31 c:/program files (x86)/atmel/avr studio 5.1/extensions/atmel/avrgcc/3.3.1.27/avrtoolchain/bin/../lib/gcc/avr32/4.4.3/../../../../avr32/lib/ucr2\libc.a(lib_a-lseekr.o)
 .comment       0x00000000       0x31 c:/program files (x86)/atmel/avr studio 5.1/extensions/atmel/avrgcc/3.3.1.27/avrtoolchain/bin/../lib/gcc/avr32/4.4.3/../../../../avr32/lib/ucr2\libc.a(lib_a-makebuf.o)
 .comment       0x00000000       0x31 c:/program files (x86)/atmel/avr studio 5.1/extensions/atmel/avrgcc/3.3.1.27/avrtoolchain/bin/../lib/gcc/avr32/4.4.3/../../../../avr32/lib/ucr2\libc.a(lib_a-mbrtowc.o)
 .comment       0x00000000       0x31 c:/program files (x86)/atmel/avr studio 5.1/extensions/atmel/avrgcc/3.3.1.27/avrtoolchain/bin/../lib/gcc/avr32/4.4.3/../../../../avr32/lib/ucr2\libc.a(lib_a-mbtowc_r.o)
 .comment       0x00000000       0x31 c:/program files (x86)/atmel/avr studio 5.1/extensions/atmel/avrgcc/3.3.1.27/avrtoolchain/bin/../lib/gcc/avr32/4.4.3/../../../../avr32/lib/ucr2\libc.a(lib_a-memchr.o)
 .comment       0x00000000       0x31 c:/program files (x86)/atmel/avr studio 5.1/extensions/atmel/avrgcc/3.3.1.27/avrtoolchain/bin/../lib/gcc/avr32/4.4.3/../../../../avr32/lib/ucr2\libc.a(lib_a-memmove.o)
 .comment       0x00000000       0x31 c:/program files (x86)/atmel/avr studio 5.1/extensions/atmel/avrgcc/3.3.1.27/avrtoolchain/bin/../lib/gcc/avr32/4.4.3/../../../../avr32/lib/ucr2\libc.a(lib_a-mprec.o)
 .comment       0x00000000       0x31 c:/program files (x86)/atmel/avr studio 5.1/extensions/atmel/avrgcc/3.3.1.27/avrtoolchain/bin/../lib/gcc/avr32/4.4.3/../../../../avr32/lib/ucr2\libc.a(lib_a-readr.o)
 .comment       0x00000000       0x31 c:/program files (x86)/atmel/avr studio 5.1/extensions/atmel/avrgcc/3.3.1.27/avrtoolchain/bin/../lib/gcc/avr32/4.4.3/../../../../avr32/lib/ucr2\libc.a(lib_a-reent.o)
 .comment       0x00000000       0x31 c:/program files (x86)/atmel/avr studio 5.1/extensions/atmel/avrgcc/3.3.1.27/avrtoolchain/bin/../lib/gcc/avr32/4.4.3/../../../../avr32/lib/ucr2\libc.a(lib_a-refill.o)
 .comment       0x00000000       0x31 c:/program files (x86)/atmel/avr studio 5.1/extensions/atmel/avrgcc/3.3.1.27/avrtoolchain/bin/../lib/gcc/avr32/4.4.3/../../../../avr32/lib/ucr2\libc.a(lib_a-sccl.o)
 .comment       0x00000000       0x31 c:/program files (x86)/atmel/avr studio 5.1/extensions/atmel/avrgcc/3.3.1.27/avrtoolchain/bin/../lib/gcc/avr32/4.4.3/../../../../avr32/lib/ucr2\libc.a(lib_a-sf_nan.o)
 .comment       0x00000000       0x31 c:/program files (x86)/atmel/avr studio 5.1/extensions/atmel/avrgcc/3.3.1.27/avrtoolchain/bin/../lib/gcc/avr32/4.4.3/../../../../avr32/lib/ucr2\libc.a(lib_a-s_isinfd.o)
 .comment       0x00000000       0x31 c:/program files (x86)/atmel/avr studio 5.1/extensions/atmel/avrgcc/3.3.1.27/avrtoolchain/bin/../lib/gcc/avr32/4.4.3/../../../../avr32/lib/ucr2\libc.a(lib_a-s_isnand.o)
 .comment       0x00000000       0x31 c:/program files (x86)/atmel/avr studio 5.1/extensions/atmel/avrgcc/3.3.1.27/avrtoolchain/bin/../lib/gcc/avr32/4.4.3/../../../../avr32/lib/ucr2\libc.a(lib_a-strtod.o)
 .comment       0x00000000       0x31 c:/program files (x86)/atmel/avr studio 5.1/extensions/atmel/avrgcc/3.3.1.27/avrtoolchain/bin/../lib/gcc/avr32/4.4.3/../../../../avr32/lib/ucr2\libc.a(lib_a-strtoll_r.o)
 .comment       0x00000000       0x31 c:/program files (x86)/atmel/avr studio 5.1/extensions/atmel/avrgcc/3.3.1.27/avrtoolchain/bin/../lib/gcc/avr32/4.4.3/../../../../avr32/lib/ucr2\libc.a(lib_a-strtoull_r.o)
 .comment       0x00000000       0x31 c:/program files (x86)/atmel/avr studio 5.1/extensions/atmel/avrgcc/3.3.1.27/avrtoolchain/bin/../lib/gcc/avr32/4.4.3/../../../../avr32/lib/ucr2\libc.a(lib_a-strtoul.o)
 .comment       0x00000000       0x31 c:/program files (x86)/atmel/avr studio 5.1/extensions/atmel/avrgcc/3.3.1.27/avrtoolchain/bin/../lib/gcc/avr32/4.4.3/../../../../avr32/lib/ucr2\libc.a(lib_a-ungetc.o)
 .comment       0x00000000       0x31 c:/program files (x86)/atmel/avr studio 5.1/extensions/atmel/avrgcc/3.3.1.27/avrtoolchain/bin/../lib/gcc/avr32/4.4.3/../../../../avr32/lib/ucr2\libc.a(lib_a-callocr.o)
 .comment       0x00000000       0x31 c:/program files (x86)/atmel/avr studio 5.1/extensions/atmel/avrgcc/3.3.1.27/avrtoolchain/bin/../lib/gcc/avr32/4.4.3/../../../../avr32/lib/ucr2\libc.a(lib_a-fstatr.o)
 .comment       0x00000000       0x31 c:/program files (x86)/atmel/avr studio 5.1/extensions/atmel/avrgcc/3.3.1.27/avrtoolchain/bin/../lib/gcc/avr32/4.4.3/../../../../avr32/lib/ucr2\libc.a(lib_a-gdtoa-gethex.o)
 .comment       0x00000000       0x31 c:/program files (x86)/atmel/avr studio 5.1/extensions/atmel/avrgcc/3.3.1.27/avrtoolchain/bin/../lib/gcc/avr32/4.4.3/../../../../avr32/lib/ucr2\libc.a(lib_a-gdtoa-hexnan.o)
 .comment       0x00000000       0x31 c:/program files (x86)/atmel/avr studio 5.1/extensions/atmel/avrgcc/3.3.1.27/avrtoolchain/bin/../lib/gcc/avr32/4.4.3/ucr2\libgcc.a(_umoddi3.o)
 .comment       0x00000000       0x31 c:/program files (x86)/atmel/avr studio 5.1/extensions/atmel/avrgcc/3.3.1.27/avrtoolchain/bin/../lib/gcc/avr32/4.4.3/ucr2/crtend.o

.debug
 *(.debug)

.line
 *(.line)

.debug_srcinfo
 *(.debug_srcinfo)

.debug_sfnames
 *(.debug_sfnames)

.debug_aranges  0x00000000     0x1c58
 *(.debug_aranges)
 .debug_aranges
                0x00000000       0x58 AVR32_LIBS/COMPONENTS/AD5410/ad5410.o
 .debug_aranges
                0x00000058       0x70 AVR32_LIBS/COMPONENTS/AT86RF231/at86rf231.o
 .debug_aranges
                0x000000c8       0x78 AVR32_LIBS/COMPONENTS/AT86RF231/pal_trx_access.o
 .debug_aranges
                0x00000140       0x40 AVR32_LIBS/COMPONENTS/TCA6424/tca6424.o
 .debug_aranges
                0x00000180       0x58 AVR32_LIBS/DRIVERS/ADC/adc.o
 .debug_aranges
                0x000001d8       0xa0 AVR32_LIBS/DRIVERS/EIC/eic.o
 .debug_aranges
                0x00000278      0x218 AVR32_LIBS/DRIVERS/FLASHC/flashc.o
 .debug_aranges
                0x00000490       0xc0 AVR32_LIBS/DRIVERS/GPIO/gpio.o
 .debug_aranges
                0x00000550       0x38 AVR32_LIBS/DRIVERS/INTC/intc.o
 .debug_aranges
                0x00000588       0xa8 AVR32_LIBS/DRIVERS/PDCA/pdca.o
 .debug_aranges
                0x00000630      0x168 AVR32_LIBS/DRIVERS/PM/pm.o
 .debug_aranges
                0x00000798       0x28 AVR32_LIBS/DRIVERS/PM/pm_conf_clocks.o
 .debug_aranges
                0x000007c0       0x48 AVR32_LIBS/DRIVERS/PWM/pwm.o
 .debug_aranges
                0x00000808       0x90 AVR32_LIBS/DRIVERS/RTC/rtc.o
 .debug_aranges
                0x00000898       0xb0 AVR32_LIBS/DRIVERS/SPI/spi.o
 .debug_aranges
                0x00000948       0x60 AVR32_LIBS/DRIVERS/TWI/twi.o
 .debug_aranges
                0x000009a8      0x108 AVR32_LIBS/DRIVERS/USART/usart.o
 .debug_aranges
                0x00000ab0       0x30 AVR32_LIBS/DRIVERS/USBB/ENUM/DEVICE/usb_device_task.o
 .debug_aranges
                0x00000ae0       0x68 AVR32_LIBS/DRIVERS/USBB/ENUM/DEVICE/usb_standard_request.o
 .debug_aranges
                0x00000b48       0x40 AVR32_LIBS/DRIVERS/USBB/ENUM/usb_task.o
 .debug_aranges
                0x00000b88       0x38 AVR32_LIBS/DRIVERS/USBB/usb_drv.o
 .debug_aranges
                0x00000bc0       0x50 AVR32_LIBS/DRIVERS/WDT/wdt.o
 .debug_aranges
                0x00000c10       0x28 AVR32_LIBS/SERVICES/DELAY/delay.o
 .debug_aranges
                0x00000c38       0x50 AVR32_LIBS/SERVICES/FREERTOS/Source/croutine.o
 .debug_aranges
                0x00000c88       0x40 AVR32_LIBS/SERVICES/FREERTOS/Source/list.o
 .debug_aranges
                0x00000cc8       0x88 AVR32_LIBS/SERVICES/FREERTOS/Source/portable/GCC/AVR32_UC3/port.o
 .debug_aranges
                0x00000d50       0x28 AVR32_LIBS/SERVICES/FREERTOS/Source/portable/MemMang/heap_3.o
 .debug_aranges
                0x00000d78       0x98 AVR32_LIBS/SERVICES/FREERTOS/Source/queue.o
 .debug_aranges
                0x00000e10      0x148 AVR32_LIBS/SERVICES/FREERTOS/Source/tasks.o
 .debug_aranges
                0x00000f58       0x48 AVR32_LIBS/SERVICES/USB/CLASS/CDC/EXAMPLES/ENUM/DEVICE/usb_specific_request.o
 .debug_aranges
                0x00000fa0       0x58 AVR32_LIBS/SERVICES/USB/CLASS/CDC/EXAMPLES/uart_usb_lib.o
 .debug_aranges
                0x00000ff8       0x60 spike_fw_update.o
 .debug_aranges
                0x00001058       0x30 main.o
 .debug_aranges
                0x00001088       0x90 main_app.o
 .debug_aranges
                0x00001118       0x28 security_task.o
 .debug_aranges
                0x00001140       0x50 terminal/printf-stdarg.o
 .debug_aranges
                0x00001190       0x88 terminal/usb/usb.o
 .debug_aranges
                0x00001218       0x20 c:/program files (x86)/atmel/avr studio 5.1/extensions/atmel/avrgcc/3.3.1.27/avrtoolchain/bin/../lib/gcc/avr32/4.4.3/ucr2\libgcc.a(_udivdi3.o)
 .debug_aranges
                0x00001238       0x20 c:/program files (x86)/atmel/avr studio 5.1/extensions/atmel/avrgcc/3.3.1.27/avrtoolchain/bin/../lib/gcc/avr32/4.4.3/../../../../avr32/lib/ucr2\libc.a(lib_a-atexit.o)
 .debug_aranges
                0x00001258       0x28 c:/program files (x86)/atmel/avr studio 5.1/extensions/atmel/avrgcc/3.3.1.27/avrtoolchain/bin/../lib/gcc/avr32/4.4.3/../../../../avr32/lib/ucr2\libc.a(lib_a-atoi.o)
 .debug_aranges
                0x00001280       0x20 c:/program files (x86)/atmel/avr studio 5.1/extensions/atmel/avrgcc/3.3.1.27/avrtoolchain/bin/../lib/gcc/avr32/4.4.3/../../../../avr32/lib/ucr2\libc.a(lib_a-errno.o)
 .debug_aranges
                0x000012a0       0x20 c:/program files (x86)/atmel/avr studio 5.1/extensions/atmel/avrgcc/3.3.1.27/avrtoolchain/bin/../lib/gcc/avr32/4.4.3/../../../../avr32/lib/ucr2\libc.a(lib_a-exit.o)
 .debug_aranges
                0x000012c0       0x28 c:/program files (x86)/atmel/avr studio 5.1/extensions/atmel/avrgcc/3.3.1.27/avrtoolchain/bin/../lib/gcc/avr32/4.4.3/../../../../avr32/lib/ucr2\libc.a(lib_a-fflush.o)
 .debug_aranges
                0x000012e8       0x80 c:/program files (x86)/atmel/avr studio 5.1/extensions/atmel/avrgcc/3.3.1.27/avrtoolchain/bin/../lib/gcc/avr32/4.4.3/../../../../avr32/lib/ucr2\libc.a(lib_a-findfp.o)
 .debug_aranges
                0x00001368       0x28 c:/program files (x86)/atmel/avr studio 5.1/extensions/atmel/avrgcc/3.3.1.27/avrtoolchain/bin/../lib/gcc/avr32/4.4.3/../../../../avr32/lib/ucr2\libc.a(lib_a-fwalk.o)
 .debug_aranges
                0x00001390       0x28 c:/program files (x86)/atmel/avr studio 5.1/extensions/atmel/avrgcc/3.3.1.27/avrtoolchain/bin/../lib/gcc/avr32/4.4.3/../../../../avr32/lib/ucr2\libc.a(lib_a-malloc.o)
 .debug_aranges
                0x000013b8       0x20 c:/program files (x86)/atmel/avr studio 5.1/extensions/atmel/avrgcc/3.3.1.27/avrtoolchain/bin/../lib/gcc/avr32/4.4.3/../../../../avr32/lib/ucr2\libc.a(lib_a-mallocr.o)
 .debug_aranges
                0x000013d8       0x20 c:/program files (x86)/atmel/avr studio 5.1/extensions/atmel/avrgcc/3.3.1.27/avrtoolchain/bin/../lib/gcc/avr32/4.4.3/../../../../avr32/lib/ucr2\libc.a(lib_a-memset.o)
 .debug_aranges
                0x000013f8       0x28 c:/program files (x86)/atmel/avr studio 5.1/extensions/atmel/avrgcc/3.3.1.27/avrtoolchain/bin/../lib/gcc/avr32/4.4.3/../../../../avr32/lib/ucr2\libc.a(lib_a-printf.o)
 .debug_aranges
                0x00001420       0x28 c:/program files (x86)/atmel/avr studio 5.1/extensions/atmel/avrgcc/3.3.1.27/avrtoolchain/bin/../lib/gcc/avr32/4.4.3/../../../../avr32/lib/ucr2\libc.a(lib_a-putchar.o)
 .debug_aranges
                0x00001448       0x28 c:/program files (x86)/atmel/avr studio 5.1/extensions/atmel/avrgcc/3.3.1.27/avrtoolchain/bin/../lib/gcc/avr32/4.4.3/../../../../avr32/lib/ucr2\libc.a(lib_a-putc.o)
 .debug_aranges
                0x00001470       0x28 c:/program files (x86)/atmel/avr studio 5.1/extensions/atmel/avrgcc/3.3.1.27/avrtoolchain/bin/../lib/gcc/avr32/4.4.3/../../../../avr32/lib/ucr2\libc.a(lib_a-rand.o)
 .debug_aranges
                0x00001498       0x20 c:/program files (x86)/atmel/avr studio 5.1/extensions/atmel/avrgcc/3.3.1.27/avrtoolchain/bin/../lib/gcc/avr32/4.4.3/../../../../avr32/lib/ucr2\libc.a(lib_a-realloc.o)
 .debug_aranges
                0x000014b8       0x20 c:/program files (x86)/atmel/avr studio 5.1/extensions/atmel/avrgcc/3.3.1.27/avrtoolchain/bin/../lib/gcc/avr32/4.4.3/../../../../avr32/lib/ucr2\libc.a(lib_a-reallocr.o)
 .debug_aranges
                0x000014d8       0x20 c:/program files (x86)/atmel/avr studio 5.1/extensions/atmel/avrgcc/3.3.1.27/avrtoolchain/bin/../lib/gcc/avr32/4.4.3/../../../../avr32/lib/ucr2\libc.a(lib_a-sbrkr.o)
 .debug_aranges
                0x000014f8       0x28 c:/program files (x86)/atmel/avr studio 5.1/extensions/atmel/avrgcc/3.3.1.27/avrtoolchain/bin/../lib/gcc/avr32/4.4.3/../../../../avr32/lib/ucr2\libc.a(lib_a-sprintf.o)
 .debug_aranges
                0x00001520       0x30 c:/program files (x86)/atmel/avr studio 5.1/extensions/atmel/avrgcc/3.3.1.27/avrtoolchain/bin/../lib/gcc/avr32/4.4.3/../../../../avr32/lib/ucr2\libc.a(lib_a-sscanf.o)
 .debug_aranges
                0x00001550       0x38 c:/program files (x86)/atmel/avr studio 5.1/extensions/atmel/avrgcc/3.3.1.27/avrtoolchain/bin/../lib/gcc/avr32/4.4.3/../../../../avr32/lib/ucr2\libc.a(lib_a-stdio.o)
 .debug_aranges
                0x00001588       0x20 c:/program files (x86)/atmel/avr studio 5.1/extensions/atmel/avrgcc/3.3.1.27/avrtoolchain/bin/../lib/gcc/avr32/4.4.3/../../../../avr32/lib/ucr2\libc.a(lib_a-strcat.o)
 .debug_aranges
                0x000015a8       0x20 c:/program files (x86)/atmel/avr studio 5.1/extensions/atmel/avrgcc/3.3.1.27/avrtoolchain/bin/../lib/gcc/avr32/4.4.3/../../../../avr32/lib/ucr2\libc.a(lib_a-strlen.o)
 .debug_aranges
                0x000015c8       0x28 c:/program files (x86)/atmel/avr studio 5.1/extensions/atmel/avrgcc/3.3.1.27/avrtoolchain/bin/../lib/gcc/avr32/4.4.3/../../../../avr32/lib/ucr2\libc.a(lib_a-strtol.o)
 .debug_aranges
                0x000015f0       0x38 c:/program files (x86)/atmel/avr studio 5.1/extensions/atmel/avrgcc/3.3.1.27/avrtoolchain/bin/../lib/gcc/avr32/4.4.3/../../../../avr32/lib/ucr2\libc.a(lib_a-vfprintf.o)
 .debug_aranges
                0x00001628       0x38 c:/program files (x86)/atmel/avr studio 5.1/extensions/atmel/avrgcc/3.3.1.27/avrtoolchain/bin/../lib/gcc/avr32/4.4.3/../../../../avr32/lib/ucr2\libc.a(lib_a-vfscanf.o)
 .debug_aranges
                0x00001660       0x28 c:/program files (x86)/atmel/avr studio 5.1/extensions/atmel/avrgcc/3.3.1.27/avrtoolchain/bin/../lib/gcc/avr32/4.4.3/../../../../avr32/lib/ucr2\libc.a(lib_a-vsprintf.o)
 .debug_aranges
                0x00001688       0x28 c:/program files (x86)/atmel/avr studio 5.1/extensions/atmel/avrgcc/3.3.1.27/avrtoolchain/bin/../lib/gcc/avr32/4.4.3/../../../../avr32/lib/ucr2\libc.a(lib_a-wbuf.o)
 .debug_aranges
                0x000016b0       0x20 c:/program files (x86)/atmel/avr studio 5.1/extensions/atmel/avrgcc/3.3.1.27/avrtoolchain/bin/../lib/gcc/avr32/4.4.3/../../../../avr32/lib/ucr2\libc.a(lib_a-writer.o)
 .debug_aranges
                0x000016d0       0x20 c:/program files (x86)/atmel/avr studio 5.1/extensions/atmel/avrgcc/3.3.1.27/avrtoolchain/bin/../lib/gcc/avr32/4.4.3/../../../../avr32/lib/ucr2\libc.a(lib_a-wsetup.o)
 .debug_aranges
                0x000016f0       0x20 c:/program files (x86)/atmel/avr studio 5.1/extensions/atmel/avrgcc/3.3.1.27/avrtoolchain/bin/../lib/gcc/avr32/4.4.3/../../../../avr32/lib/ucr2\libc.a(lib_a-__atexit.o)
 .debug_aranges
                0x00001710       0x20 c:/program files (x86)/atmel/avr studio 5.1/extensions/atmel/avrgcc/3.3.1.27/avrtoolchain/bin/../lib/gcc/avr32/4.4.3/../../../../avr32/lib/ucr2\libc.a(lib_a-__call_atexit.o)
 .debug_aranges
                0x00001730       0x20 c:/program files (x86)/atmel/avr studio 5.1/extensions/atmel/avrgcc/3.3.1.27/avrtoolchain/bin/../lib/gcc/avr32/4.4.3/../../../../avr32/lib/ucr2\libc.a(lib_a-closer.o)
 .debug_aranges
                0x00001750       0x28 c:/program files (x86)/atmel/avr studio 5.1/extensions/atmel/avrgcc/3.3.1.27/avrtoolchain/bin/../lib/gcc/avr32/4.4.3/../../../../avr32/lib/ucr2\libc.a(lib_a-dtoa.o)
 .debug_aranges
                0x00001778       0x28 c:/program files (x86)/atmel/avr studio 5.1/extensions/atmel/avrgcc/3.3.1.27/avrtoolchain/bin/../lib/gcc/avr32/4.4.3/../../../../avr32/lib/ucr2\libc.a(lib_a-fclose.o)
 .debug_aranges
                0x000017a0       0x28 c:/program files (x86)/atmel/avr studio 5.1/extensions/atmel/avrgcc/3.3.1.27/avrtoolchain/bin/../lib/gcc/avr32/4.4.3/../../../../avr32/lib/ucr2\libc.a(lib_a-fread.o)
 .debug_aranges
                0x000017c8       0x28 c:/program files (x86)/atmel/avr studio 5.1/extensions/atmel/avrgcc/3.3.1.27/avrtoolchain/bin/../lib/gcc/avr32/4.4.3/../../../../avr32/lib/ucr2\libc.a(lib_a-freer.o)
 .debug_aranges
                0x000017f0       0x20 c:/program files (x86)/atmel/avr studio 5.1/extensions/atmel/avrgcc/3.3.1.27/avrtoolchain/bin/../lib/gcc/avr32/4.4.3/../../../../avr32/lib/ucr2\libc.a(lib_a-fvwrite.o)
 .debug_aranges
                0x00001810       0x20 c:/program files (x86)/atmel/avr studio 5.1/extensions/atmel/avrgcc/3.3.1.27/avrtoolchain/bin/../lib/gcc/avr32/4.4.3/../../../../avr32/lib/ucr2\libc.a(lib_a-iswspace.o)
 .debug_aranges
                0x00001830       0x40 c:/program files (x86)/atmel/avr studio 5.1/extensions/atmel/avrgcc/3.3.1.27/avrtoolchain/bin/../lib/gcc/avr32/4.4.3/../../../../avr32/lib/ucr2\libc.a(lib_a-locale.o)
 .debug_aranges
                0x00001870       0x20 c:/program files (x86)/atmel/avr studio 5.1/extensions/atmel/avrgcc/3.3.1.27/avrtoolchain/bin/../lib/gcc/avr32/4.4.3/../../../../avr32/lib/ucr2\libc.a(lib_a-lseekr.o)
 .debug_aranges
                0x00001890       0x20 c:/program files (x86)/atmel/avr studio 5.1/extensions/atmel/avrgcc/3.3.1.27/avrtoolchain/bin/../lib/gcc/avr32/4.4.3/../../../../avr32/lib/ucr2\libc.a(lib_a-makebuf.o)
 .debug_aranges
                0x000018b0       0x28 c:/program files (x86)/atmel/avr studio 5.1/extensions/atmel/avrgcc/3.3.1.27/avrtoolchain/bin/../lib/gcc/avr32/4.4.3/../../../../avr32/lib/ucr2\libc.a(lib_a-mbrtowc.o)
 .debug_aranges
                0x000018d8       0x20 c:/program files (x86)/atmel/avr studio 5.1/extensions/atmel/avrgcc/3.3.1.27/avrtoolchain/bin/../lib/gcc/avr32/4.4.3/../../../../avr32/lib/ucr2\libc.a(lib_a-mbtowc_r.o)
 .debug_aranges
                0x000018f8       0x20 c:/program files (x86)/atmel/avr studio 5.1/extensions/atmel/avrgcc/3.3.1.27/avrtoolchain/bin/../lib/gcc/avr32/4.4.3/../../../../avr32/lib/ucr2\libc.a(lib_a-memchr.o)
 .debug_aranges
                0x00001918       0x20 c:/program files (x86)/atmel/avr studio 5.1/extensions/atmel/avrgcc/3.3.1.27/avrtoolchain/bin/../lib/gcc/avr32/4.4.3/../../../../avr32/lib/ucr2\libc.a(lib_a-memmove.o)
 .debug_aranges
                0x00001938       0xb0 c:/program files (x86)/atmel/avr studio 5.1/extensions/atmel/avrgcc/3.3.1.27/avrtoolchain/bin/../lib/gcc/avr32/4.4.3/../../../../avr32/lib/ucr2\libc.a(lib_a-mprec.o)
 .debug_aranges
                0x000019e8       0x20 c:/program files (x86)/atmel/avr studio 5.1/extensions/atmel/avrgcc/3.3.1.27/avrtoolchain/bin/../lib/gcc/avr32/4.4.3/../../../../avr32/lib/ucr2\libc.a(lib_a-readr.o)
 .debug_aranges
                0x00001a08       0x30 c:/program files (x86)/atmel/avr studio 5.1/extensions/atmel/avrgcc/3.3.1.27/avrtoolchain/bin/../lib/gcc/avr32/4.4.3/../../../../avr32/lib/ucr2\libc.a(lib_a-reent.o)
 .debug_aranges
                0x00001a38       0x28 c:/program files (x86)/atmel/avr studio 5.1/extensions/atmel/avrgcc/3.3.1.27/avrtoolchain/bin/../lib/gcc/avr32/4.4.3/../../../../avr32/lib/ucr2\libc.a(lib_a-refill.o)
 .debug_aranges
                0x00001a60       0x20 c:/program files (x86)/atmel/avr studio 5.1/extensions/atmel/avrgcc/3.3.1.27/avrtoolchain/bin/../lib/gcc/avr32/4.4.3/../../../../avr32/lib/ucr2\libc.a(lib_a-sccl.o)
 .debug_aranges
                0x00001a80       0x20 c:/program files (x86)/atmel/avr studio 5.1/extensions/atmel/avrgcc/3.3.1.27/avrtoolchain/bin/../lib/gcc/avr32/4.4.3/../../../../avr32/lib/ucr2\libc.a(lib_a-sf_nan.o)
 .debug_aranges
                0x00001aa0       0x20 c:/program files (x86)/atmel/avr studio 5.1/extensions/atmel/avrgcc/3.3.1.27/avrtoolchain/bin/../lib/gcc/avr32/4.4.3/../../../../avr32/lib/ucr2\libc.a(lib_a-s_isinfd.o)
 .debug_aranges
                0x00001ac0       0x20 c:/program files (x86)/atmel/avr studio 5.1/extensions/atmel/avrgcc/3.3.1.27/avrtoolchain/bin/../lib/gcc/avr32/4.4.3/../../../../avr32/lib/ucr2\libc.a(lib_a-s_isnand.o)
 .debug_aranges
                0x00001ae0       0x30 c:/program files (x86)/atmel/avr studio 5.1/extensions/atmel/avrgcc/3.3.1.27/avrtoolchain/bin/../lib/gcc/avr32/4.4.3/../../../../avr32/lib/ucr2\libc.a(lib_a-strtod.o)
 .debug_aranges
                0x00001b10       0x20 c:/program files (x86)/atmel/avr studio 5.1/extensions/atmel/avrgcc/3.3.1.27/avrtoolchain/bin/../lib/gcc/avr32/4.4.3/../../../../avr32/lib/ucr2\libc.a(lib_a-strtoll_r.o)
 .debug_aranges
                0x00001b30       0x20 c:/program files (x86)/atmel/avr studio 5.1/extensions/atmel/avrgcc/3.3.1.27/avrtoolchain/bin/../lib/gcc/avr32/4.4.3/../../../../avr32/lib/ucr2\libc.a(lib_a-strtoull_r.o)
 .debug_aranges
                0x00001b50       0x28 c:/program files (x86)/atmel/avr studio 5.1/extensions/atmel/avrgcc/3.3.1.27/avrtoolchain/bin/../lib/gcc/avr32/4.4.3/../../../../avr32/lib/ucr2\libc.a(lib_a-strtoul.o)
 .debug_aranges
                0x00001b78       0x30 c:/program files (x86)/atmel/avr studio 5.1/extensions/atmel/avrgcc/3.3.1.27/avrtoolchain/bin/../lib/gcc/avr32/4.4.3/../../../../avr32/lib/ucr2\libc.a(lib_a-ungetc.o)
 .debug_aranges
                0x00001ba8       0x20 c:/program files (x86)/atmel/avr studio 5.1/extensions/atmel/avrgcc/3.3.1.27/avrtoolchain/bin/../lib/gcc/avr32/4.4.3/../../../../avr32/lib/ucr2\libc.a(lib_a-callocr.o)
 .debug_aranges
                0x00001bc8       0x20 c:/program files (x86)/atmel/avr studio 5.1/extensions/atmel/avrgcc/3.3.1.27/avrtoolchain/bin/../lib/gcc/avr32/4.4.3/../../../../avr32/lib/ucr2\libc.a(lib_a-fstatr.o)
 .debug_aranges
                0x00001be8       0x30 c:/program files (x86)/atmel/avr studio 5.1/extensions/atmel/avrgcc/3.3.1.27/avrtoolchain/bin/../lib/gcc/avr32/4.4.3/../../../../avr32/lib/ucr2\libc.a(lib_a-gdtoa-gethex.o)
 .debug_aranges
                0x00001c18       0x20 c:/program files (x86)/atmel/avr studio 5.1/extensions/atmel/avrgcc/3.3.1.27/avrtoolchain/bin/../lib/gcc/avr32/4.4.3/../../../../avr32/lib/ucr2\libc.a(lib_a-gdtoa-hexnan.o)
 .debug_aranges
                0x00001c38       0x20 c:/program files (x86)/atmel/avr studio 5.1/extensions/atmel/avrgcc/3.3.1.27/avrtoolchain/bin/../lib/gcc/avr32/4.4.3/ucr2\libgcc.a(_umoddi3.o)

.debug_pubnames
                0x00000000     0x3b1a
 *(.debug_pubnames)
 .debug_pubnames
                0x00000000       0xbb AVR32_LIBS/COMPONENTS/AD5410/ad5410.o
 .debug_pubnames
                0x000000bb      0x17c AVR32_LIBS/COMPONENTS/AT86RF231/at86rf231.o
 .debug_pubnames
                0x00000237      0x12b AVR32_LIBS/COMPONENTS/AT86RF231/pal_trx_access.o
 .debug_pubnames
                0x00000362       0x6d AVR32_LIBS/COMPONENTS/TCA6424/tca6424.o
 .debug_pubnames
                0x000003cf       0x9a AVR32_LIBS/DRIVERS/ADC/adc.o
 .debug_pubnames
                0x00000469      0x1e2 AVR32_LIBS/DRIVERS/EIC/eic.o
 .debug_pubnames
                0x0000064b      0x759 AVR32_LIBS/DRIVERS/FLASHC/flashc.o
 .debug_pubnames
                0x00000da4      0x27c AVR32_LIBS/DRIVERS/GPIO/gpio.o
 .debug_pubnames
                0x00001020       0x62 AVR32_LIBS/DRIVERS/INTC/intc.o
 .debug_pubnames
                0x00001082      0x238 AVR32_LIBS/DRIVERS/PDCA/pdca.o
 .debug_pubnames
                0x000012ba      0x390 AVR32_LIBS/DRIVERS/PM/pm.o
 .debug_pubnames
                0x0000164a       0x45 AVR32_LIBS/DRIVERS/PM/pm_conf_clocks.o
 .debug_pubnames
                0x0000168f       0x9a AVR32_LIBS/DRIVERS/PWM/pwm.o
 .debug_pubnames
                0x00001729      0x147 AVR32_LIBS/DRIVERS/RTC/rtc.o
 .debug_pubnames
                0x00001870      0x177 AVR32_LIBS/DRIVERS/SPI/spi.o
 .debug_pubnames
                0x000019e7       0x8a AVR32_LIBS/DRIVERS/TWI/twi.o
 .debug_pubnames
                0x00001a71      0x227 AVR32_LIBS/DRIVERS/USART/usart.o
 .debug_pubnames
                0x00001c98       0x79 AVR32_LIBS/DRIVERS/USBB/ENUM/DEVICE/usb_device_task.o
 .debug_pubnames
                0x00001d11       0x64 AVR32_LIBS/DRIVERS/USBB/ENUM/DEVICE/usb_standard_request.o
 .debug_pubnames
                0x00001d75       0x58 AVR32_LIBS/DRIVERS/USBB/ENUM/usb_task.o
 .debug_pubnames
                0x00001dcd       0x7e AVR32_LIBS/DRIVERS/USBB/usb_drv.o
 .debug_pubnames
                0x00001e4b       0x80 AVR32_LIBS/DRIVERS/WDT/wdt.o
 .debug_pubnames
                0x00001ecb       0x2e AVR32_LIBS/SERVICES/DELAY/delay.o
 .debug_pubnames
                0x00001ef9       0x96 AVR32_LIBS/SERVICES/FREERTOS/Source/croutine.o
 .debug_pubnames
                0x00001f8f       0x71 AVR32_LIBS/SERVICES/FREERTOS/Source/list.o
 .debug_pubnames
                0x00002000       0xf6 AVR32_LIBS/SERVICES/FREERTOS/Source/portable/GCC/AVR32_UC3/port.o
 .debug_pubnames
                0x000020f6       0x31 AVR32_LIBS/SERVICES/FREERTOS/Source/portable/MemMang/heap_3.o
 .debug_pubnames
                0x00002127      0x127 AVR32_LIBS/SERVICES/FREERTOS/Source/queue.o
 .debug_pubnames
                0x0000224e      0x2d5 AVR32_LIBS/SERVICES/FREERTOS/Source/tasks.o
 .debug_pubnames
                0x00002523       0xbc AVR32_LIBS/SERVICES/USB/CLASS/CDC/EXAMPLES/ENUM/DEVICE/usb_descriptors.o
 .debug_pubnames
                0x000025df       0xc2 AVR32_LIBS/SERVICES/USB/CLASS/CDC/EXAMPLES/ENUM/DEVICE/usb_specific_request.o
 .debug_pubnames
                0x000026a1       0xfb AVR32_LIBS/SERVICES/USB/CLASS/CDC/EXAMPLES/uart_usb_lib.o
 .debug_pubnames
                0x0000279c      0x120 spike_fw_update.o
 .debug_pubnames
                0x000028bc       0x36 main.o
 .debug_pubnames
                0x000028f2      0x2a2 main_app.o
 .debug_pubnames
                0x00002b94       0x36 security_task.o
 .debug_pubnames
                0x00002bca       0x36 terminal/printf-stdarg.o
 .debug_pubnames
                0x00002c00      0x1ba terminal/usb/usb.o
 .debug_pubnames
                0x00002dba       0x20 c:/program files (x86)/atmel/avr studio 5.1/extensions/atmel/avrgcc/3.3.1.27/avrtoolchain/bin/../lib/gcc/avr32/4.4.3/ucr2\libgcc.a(_udivdi3.o)
 .debug_pubnames
                0x00002dda       0x1d c:/program files (x86)/atmel/avr studio 5.1/extensions/atmel/avrgcc/3.3.1.27/avrtoolchain/bin/../lib/gcc/avr32/4.4.3/../../../../avr32/lib/ucr2\libc.a(lib_a-atexit.o)
 .debug_pubnames
                0x00002df7       0x27 c:/program files (x86)/atmel/avr studio 5.1/extensions/atmel/avrgcc/3.3.1.27/avrtoolchain/bin/../lib/gcc/avr32/4.4.3/../../../../avr32/lib/ucr2\libc.a(lib_a-atoi.o)
 .debug_pubnames
                0x00002e1e       0x1e c:/program files (x86)/atmel/avr studio 5.1/extensions/atmel/avrgcc/3.3.1.27/avrtoolchain/bin/../lib/gcc/avr32/4.4.3/../../../../avr32/lib/ucr2\libc.a(lib_a-errno.o)
 .debug_pubnames
                0x00002e3c       0x1b c:/program files (x86)/atmel/avr studio 5.1/extensions/atmel/avrgcc/3.3.1.27/avrtoolchain/bin/../lib/gcc/avr32/4.4.3/../../../../avr32/lib/ucr2\libc.a(lib_a-exit.o)
 .debug_pubnames
                0x00002e57       0x2b c:/program files (x86)/atmel/avr studio 5.1/extensions/atmel/avrgcc/3.3.1.27/avrtoolchain/bin/../lib/gcc/avr32/4.4.3/../../../../avr32/lib/ucr2\libc.a(lib_a-fflush.o)
 .debug_pubnames
                0x00002e82      0x119 c:/program files (x86)/atmel/avr studio 5.1/extensions/atmel/avrgcc/3.3.1.27/avrtoolchain/bin/../lib/gcc/avr32/4.4.3/../../../../avr32/lib/ucr2\libc.a(lib_a-findfp.o)
 .debug_pubnames
                0x00002f9b       0x2e c:/program files (x86)/atmel/avr studio 5.1/extensions/atmel/avrgcc/3.3.1.27/avrtoolchain/bin/../lib/gcc/avr32/4.4.3/../../../../avr32/lib/ucr2\libc.a(lib_a-fwalk.o)
 .debug_pubnames
                0x00002fc9       0x39 c:/program files (x86)/atmel/avr studio 5.1/extensions/atmel/avrgcc/3.3.1.27/avrtoolchain/bin/../lib/gcc/avr32/4.4.3/../../../../avr32/lib/ucr2\libc.a(lib_a-impure.o)
 .debug_pubnames
                0x00003002       0x26 c:/program files (x86)/atmel/avr studio 5.1/extensions/atmel/avrgcc/3.3.1.27/avrtoolchain/bin/../lib/gcc/avr32/4.4.3/../../../../avr32/lib/ucr2\libc.a(lib_a-malloc.o)
 .debug_pubnames
                0x00003028       0xce c:/program files (x86)/atmel/avr studio 5.1/extensions/atmel/avrgcc/3.3.1.27/avrtoolchain/bin/../lib/gcc/avr32/4.4.3/../../../../avr32/lib/ucr2\libc.a(lib_a-mallocr.o)
 .debug_pubnames
                0x000030f6       0x1d c:/program files (x86)/atmel/avr studio 5.1/extensions/atmel/avrgcc/3.3.1.27/avrtoolchain/bin/../lib/gcc/avr32/4.4.3/../../../../avr32/lib/ucr2\libc.a(lib_a-memset.o)
 .debug_pubnames
                0x00003113       0x2b c:/program files (x86)/atmel/avr studio 5.1/extensions/atmel/avrgcc/3.3.1.27/avrtoolchain/bin/../lib/gcc/avr32/4.4.3/../../../../avr32/lib/ucr2\libc.a(lib_a-printf.o)
 .debug_pubnames
                0x0000313e       0x2d c:/program files (x86)/atmel/avr studio 5.1/extensions/atmel/avrgcc/3.3.1.27/avrtoolchain/bin/../lib/gcc/avr32/4.4.3/../../../../avr32/lib/ucr2\libc.a(lib_a-putchar.o)
 .debug_pubnames
                0x0000316b       0x27 c:/program files (x86)/atmel/avr studio 5.1/extensions/atmel/avrgcc/3.3.1.27/avrtoolchain/bin/../lib/gcc/avr32/4.4.3/../../../../avr32/lib/ucr2\libc.a(lib_a-putc.o)
 .debug_pubnames
                0x00003192       0x25 c:/program files (x86)/atmel/avr studio 5.1/extensions/atmel/avrgcc/3.3.1.27/avrtoolchain/bin/../lib/gcc/avr32/4.4.3/../../../../avr32/lib/ucr2\libc.a(lib_a-rand.o)
 .debug_pubnames
                0x000031b7       0x1e c:/program files (x86)/atmel/avr studio 5.1/extensions/atmel/avrgcc/3.3.1.27/avrtoolchain/bin/../lib/gcc/avr32/4.4.3/../../../../avr32/lib/ucr2\libc.a(lib_a-realloc.o)
 .debug_pubnames
                0x000031d5       0x21 c:/program files (x86)/atmel/avr studio 5.1/extensions/atmel/avrgcc/3.3.1.27/avrtoolchain/bin/../lib/gcc/avr32/4.4.3/../../../../avr32/lib/ucr2\libc.a(lib_a-reallocr.o)
 .debug_pubnames
                0x000031f6       0x1e c:/program files (x86)/atmel/avr studio 5.1/extensions/atmel/avrgcc/3.3.1.27/avrtoolchain/bin/../lib/gcc/avr32/4.4.3/../../../../avr32/lib/ucr2\libc.a(lib_a-sbrkr.o)
 .debug_pubnames
                0x00003214       0x2d c:/program files (x86)/atmel/avr studio 5.1/extensions/atmel/avrgcc/3.3.1.27/avrtoolchain/bin/../lib/gcc/avr32/4.4.3/../../../../avr32/lib/ucr2\libc.a(lib_a-sprintf.o)
 .debug_pubnames
                0x00003241       0x2b c:/program files (x86)/atmel/avr studio 5.1/extensions/atmel/avrgcc/3.3.1.27/avrtoolchain/bin/../lib/gcc/avr32/4.4.3/../../../../avr32/lib/ucr2\libc.a(lib_a-sscanf.o)
 .debug_pubnames
                0x0000326c       0x44 c:/program files (x86)/atmel/avr studio 5.1/extensions/atmel/avrgcc/3.3.1.27/avrtoolchain/bin/../lib/gcc/avr32/4.4.3/../../../../avr32/lib/ucr2\libc.a(lib_a-stdio.o)
 .debug_pubnames
                0x000032b0       0x1d c:/program files (x86)/atmel/avr studio 5.1/extensions/atmel/avrgcc/3.3.1.27/avrtoolchain/bin/../lib/gcc/avr32/4.4.3/../../../../avr32/lib/ucr2\libc.a(lib_a-strcat.o)
 .debug_pubnames
                0x000032cd       0x1d c:/program files (x86)/atmel/avr studio 5.1/extensions/atmel/avrgcc/3.3.1.27/avrtoolchain/bin/../lib/gcc/avr32/4.4.3/../../../../avr32/lib/ucr2\libc.a(lib_a-strlen.o)
 .debug_pubnames
                0x000032ea       0x2b c:/program files (x86)/atmel/avr studio 5.1/extensions/atmel/avrgcc/3.3.1.27/avrtoolchain/bin/../lib/gcc/avr32/4.4.3/../../../../avr32/lib/ucr2\libc.a(lib_a-strtol.o)
 .debug_pubnames
                0x00003315       0x2f c:/program files (x86)/atmel/avr studio 5.1/extensions/atmel/avrgcc/3.3.1.27/avrtoolchain/bin/../lib/gcc/avr32/4.4.3/../../../../avr32/lib/ucr2\libc.a(lib_a-vfprintf.o)
 .debug_pubnames
                0x00003344       0x4d c:/program files (x86)/atmel/avr studio 5.1/extensions/atmel/avrgcc/3.3.1.27/avrtoolchain/bin/../lib/gcc/avr32/4.4.3/../../../../avr32/lib/ucr2\libc.a(lib_a-vfscanf.o)
 .debug_pubnames
                0x00003391       0x2f c:/program files (x86)/atmel/avr studio 5.1/extensions/atmel/avrgcc/3.3.1.27/avrtoolchain/bin/../lib/gcc/avr32/4.4.3/../../../../avr32/lib/ucr2\libc.a(lib_a-vsprintf.o)
 .debug_pubnames
                0x000033c0       0x2c c:/program files (x86)/atmel/avr studio 5.1/extensions/atmel/avrgcc/3.3.1.27/avrtoolchain/bin/../lib/gcc/avr32/4.4.3/../../../../avr32/lib/ucr2\libc.a(lib_a-wbuf.o)
 .debug_pubnames
                0x000033ec       0x1f c:/program files (x86)/atmel/avr studio 5.1/extensions/atmel/avrgcc/3.3.1.27/avrtoolchain/bin/../lib/gcc/avr32/4.4.3/../../../../avr32/lib/ucr2\libc.a(lib_a-writer.o)
 .debug_pubnames
                0x0000340b       0x22 c:/program files (x86)/atmel/avr studio 5.1/extensions/atmel/avrgcc/3.3.1.27/avrtoolchain/bin/../lib/gcc/avr32/4.4.3/../../../../avr32/lib/ucr2\libc.a(lib_a-wsetup.o)
 .debug_pubnames
                0x0000342d       0x2a c:/program files (x86)/atmel/avr studio 5.1/extensions/atmel/avrgcc/3.3.1.27/avrtoolchain/bin/../lib/gcc/avr32/4.4.3/../../../../avr32/lib/ucr2\libc.a(lib_a-__atexit.o)
 .debug_pubnames
                0x00003457       0x27 c:/program files (x86)/atmel/avr studio 5.1/extensions/atmel/avrgcc/3.3.1.27/avrtoolchain/bin/../lib/gcc/avr32/4.4.3/../../../../avr32/lib/ucr2\libc.a(lib_a-__call_atexit.o)
 .debug_pubnames
                0x0000347e       0x1f c:/program files (x86)/atmel/avr studio 5.1/extensions/atmel/avrgcc/3.3.1.27/avrtoolchain/bin/../lib/gcc/avr32/4.4.3/../../../../avr32/lib/ucr2\libc.a(lib_a-closer.o)
 .debug_pubnames
                0x0000349d       0x2e c:/program files (x86)/atmel/avr studio 5.1/extensions/atmel/avrgcc/3.3.1.27/avrtoolchain/bin/../lib/gcc/avr32/4.4.3/../../../../avr32/lib/ucr2\libc.a(lib_a-ctype_.o)
 .debug_pubnames
                0x000034cb       0x1e c:/program files (x86)/atmel/avr studio 5.1/extensions/atmel/avrgcc/3.3.1.27/avrtoolchain/bin/../lib/gcc/avr32/4.4.3/../../../../avr32/lib/ucr2\libc.a(lib_a-dtoa.o)
 .debug_pubnames
                0x000034e9       0x2b c:/program files (x86)/atmel/avr studio 5.1/extensions/atmel/avrgcc/3.3.1.27/avrtoolchain/bin/../lib/gcc/avr32/4.4.3/../../../../avr32/lib/ucr2\libc.a(lib_a-fclose.o)
 .debug_pubnames
                0x00003514       0x29 c:/program files (x86)/atmel/avr studio 5.1/extensions/atmel/avrgcc/3.3.1.27/avrtoolchain/bin/../lib/gcc/avr32/4.4.3/../../../../avr32/lib/ucr2\libc.a(lib_a-fread.o)
 .debug_pubnames
                0x0000353d       0x31 c:/program files (x86)/atmel/avr studio 5.1/extensions/atmel/avrgcc/3.3.1.27/avrtoolchain/bin/../lib/gcc/avr32/4.4.3/../../../../avr32/lib/ucr2\libc.a(lib_a-freer.o)
 .debug_pubnames
                0x0000356e       0x23 c:/program files (x86)/atmel/avr studio 5.1/extensions/atmel/avrgcc/3.3.1.27/avrtoolchain/bin/../lib/gcc/avr32/4.4.3/../../../../avr32/lib/ucr2\libc.a(lib_a-fvwrite.o)
 .debug_pubnames
                0x00003591       0x1f c:/program files (x86)/atmel/avr studio 5.1/extensions/atmel/avrgcc/3.3.1.27/avrtoolchain/bin/../lib/gcc/avr32/4.4.3/../../../../avr32/lib/ucr2\libc.a(lib_a-iswspace.o)
 .debug_pubnames
                0x000035b0       0xc3 c:/program files (x86)/atmel/avr studio 5.1/extensions/atmel/avrgcc/3.3.1.27/avrtoolchain/bin/../lib/gcc/avr32/4.4.3/../../../../avr32/lib/ucr2\libc.a(lib_a-locale.o)
 .debug_pubnames
                0x00003673       0x1f c:/program files (x86)/atmel/avr studio 5.1/extensions/atmel/avrgcc/3.3.1.27/avrtoolchain/bin/../lib/gcc/avr32/4.4.3/../../../../avr32/lib/ucr2\libc.a(lib_a-lseekr.o)
 .debug_pubnames
                0x00003692       0x23 c:/program files (x86)/atmel/avr studio 5.1/extensions/atmel/avrgcc/3.3.1.27/avrtoolchain/bin/../lib/gcc/avr32/4.4.3/../../../../avr32/lib/ucr2\libc.a(lib_a-makebuf.o)
 .debug_pubnames
                0x000036b5       0x2d c:/program files (x86)/atmel/avr studio 5.1/extensions/atmel/avrgcc/3.3.1.27/avrtoolchain/bin/../lib/gcc/avr32/4.4.3/../../../../avr32/lib/ucr2\libc.a(lib_a-mbrtowc.o)
 .debug_pubnames
                0x000036e2       0x20 c:/program files (x86)/atmel/avr studio 5.1/extensions/atmel/avrgcc/3.3.1.27/avrtoolchain/bin/../lib/gcc/avr32/4.4.3/../../../../avr32/lib/ucr2\libc.a(lib_a-mbtowc_r.o)
 .debug_pubnames
                0x00003702       0x1d c:/program files (x86)/atmel/avr studio 5.1/extensions/atmel/avrgcc/3.3.1.27/avrtoolchain/bin/../lib/gcc/avr32/4.4.3/../../../../avr32/lib/ucr2\libc.a(lib_a-memchr.o)
 .debug_pubnames
                0x0000371f       0x1e c:/program files (x86)/atmel/avr studio 5.1/extensions/atmel/avrgcc/3.3.1.27/avrtoolchain/bin/../lib/gcc/avr32/4.4.3/../../../../avr32/lib/ucr2\libc.a(lib_a-memmove.o)
 .debug_pubnames
                0x0000373d      0x13a c:/program files (x86)/atmel/avr studio 5.1/extensions/atmel/avrgcc/3.3.1.27/avrtoolchain/bin/../lib/gcc/avr32/4.4.3/../../../../avr32/lib/ucr2\libc.a(lib_a-mprec.o)
 .debug_pubnames
                0x00003877       0x1e c:/program files (x86)/atmel/avr studio 5.1/extensions/atmel/avrgcc/3.3.1.27/avrtoolchain/bin/../lib/gcc/avr32/4.4.3/../../../../avr32/lib/ucr2\libc.a(lib_a-readr.o)
 .debug_pubnames
                0x00003895       0x52 c:/program files (x86)/atmel/avr studio 5.1/extensions/atmel/avrgcc/3.3.1.27/avrtoolchain/bin/../lib/gcc/avr32/4.4.3/../../../../avr32/lib/ucr2\libc.a(lib_a-reent.o)
 .debug_pubnames
                0x000038e7       0x22 c:/program files (x86)/atmel/avr studio 5.1/extensions/atmel/avrgcc/3.3.1.27/avrtoolchain/bin/../lib/gcc/avr32/4.4.3/../../../../avr32/lib/ucr2\libc.a(lib_a-refill.o)
 .debug_pubnames
                0x00003909       0x1d c:/program files (x86)/atmel/avr studio 5.1/extensions/atmel/avrgcc/3.3.1.27/avrtoolchain/bin/../lib/gcc/avr32/4.4.3/../../../../avr32/lib/ucr2\libc.a(lib_a-sccl.o)
 .debug_pubnames
                0x00003926       0x1b c:/program files (x86)/atmel/avr studio 5.1/extensions/atmel/avrgcc/3.3.1.27/avrtoolchain/bin/../lib/gcc/avr32/4.4.3/../../../../avr32/lib/ucr2\libc.a(lib_a-sf_nan.o)
 .debug_pubnames
                0x00003941       0x1f c:/program files (x86)/atmel/avr studio 5.1/extensions/atmel/avrgcc/3.3.1.27/avrtoolchain/bin/../lib/gcc/avr32/4.4.3/../../../../avr32/lib/ucr2\libc.a(lib_a-s_isinfd.o)
 .debug_pubnames
                0x00003960       0x1f c:/program files (x86)/atmel/avr studio 5.1/extensions/atmel/avrgcc/3.3.1.27/avrtoolchain/bin/../lib/gcc/avr32/4.4.3/../../../../avr32/lib/ucr2\libc.a(lib_a-s_isnand.o)
 .debug_pubnames
                0x0000397f       0x36 c:/program files (x86)/atmel/avr studio 5.1/extensions/atmel/avrgcc/3.3.1.27/avrtoolchain/bin/../lib/gcc/avr32/4.4.3/../../../../avr32/lib/ucr2\libc.a(lib_a-strtod.o)
 .debug_pubnames
                0x000039b5       0x21 c:/program files (x86)/atmel/avr studio 5.1/extensions/atmel/avrgcc/3.3.1.27/avrtoolchain/bin/../lib/gcc/avr32/4.4.3/../../../../avr32/lib/ucr2\libc.a(lib_a-strtoll_r.o)
 .debug_pubnames
                0x000039d6       0x22 c:/program files (x86)/atmel/avr studio 5.1/extensions/atmel/avrgcc/3.3.1.27/avrtoolchain/bin/../lib/gcc/avr32/4.4.3/../../../../avr32/lib/ucr2\libc.a(lib_a-strtoull_r.o)
 .debug_pubnames
                0x000039f8       0x2d c:/program files (x86)/atmel/avr studio 5.1/extensions/atmel/avrgcc/3.3.1.27/avrtoolchain/bin/../lib/gcc/avr32/4.4.3/../../../../avr32/lib/ucr2\libc.a(lib_a-strtoul.o)
 .debug_pubnames
                0x00003a25       0x39 c:/program files (x86)/atmel/avr studio 5.1/extensions/atmel/avrgcc/3.3.1.27/avrtoolchain/bin/../lib/gcc/avr32/4.4.3/../../../../avr32/lib/ucr2\libc.a(lib_a-ungetc.o)
 .debug_pubnames
                0x00003a5e       0x20 c:/program files (x86)/atmel/avr studio 5.1/extensions/atmel/avrgcc/3.3.1.27/avrtoolchain/bin/../lib/gcc/avr32/4.4.3/../../../../avr32/lib/ucr2\libc.a(lib_a-callocr.o)
 .debug_pubnames
                0x00003a7e       0x1f c:/program files (x86)/atmel/avr studio 5.1/extensions/atmel/avrgcc/3.3.1.27/avrtoolchain/bin/../lib/gcc/avr32/4.4.3/../../../../avr32/lib/ucr2\libc.a(lib_a-fstatr.o)
 .debug_pubnames
                0x00003a9d       0x3e c:/program files (x86)/atmel/avr studio 5.1/extensions/atmel/avrgcc/3.3.1.27/avrtoolchain/bin/../lib/gcc/avr32/4.4.3/../../../../avr32/lib/ucr2\libc.a(lib_a-gdtoa-gethex.o)
 .debug_pubnames
                0x00003adb       0x1f c:/program files (x86)/atmel/avr studio 5.1/extensions/atmel/avrgcc/3.3.1.27/avrtoolchain/bin/../lib/gcc/avr32/4.4.3/../../../../avr32/lib/ucr2\libc.a(lib_a-gdtoa-hexnan.o)
 .debug_pubnames
                0x00003afa       0x20 c:/program files (x86)/atmel/avr studio 5.1/extensions/atmel/avrgcc/3.3.1.27/avrtoolchain/bin/../lib/gcc/avr32/4.4.3/ucr2\libgcc.a(_umoddi3.o)

.debug_info     0x00000000    0x99f83
 *(.debug_info .gnu.linkonce.wi.*)
 .debug_info    0x00000000      0xdaa AVR32_LIBS/COMPONENTS/AD5410/ad5410.o
 .debug_info    0x00000daa      0x736 AVR32_LIBS/COMPONENTS/AT86RF231/at86rf231.o
 .debug_info    0x000014e0     0x1cff AVR32_LIBS/COMPONENTS/AT86RF231/pal_trx_access.o
 .debug_info    0x000031df      0xafb AVR32_LIBS/COMPONENTS/TCA6424/tca6424.o
 .debug_info    0x00003cda     0x1062 AVR32_LIBS/DRIVERS/ADC/adc.o
 .debug_info    0x00004d3c     0x1233 AVR32_LIBS/DRIVERS/EIC/eic.o
 .debug_info    0x00005f6f     0x1cb4 AVR32_LIBS/DRIVERS/FLASHC/flashc.o
 .debug_info    0x00007c23      0x895 AVR32_LIBS/DRIVERS/GPIO/gpio.o
 .debug_info    0x000084b8      0x57c AVR32_LIBS/DRIVERS/INTC/intc.o
 .debug_info    0x00008a34      0xa36 AVR32_LIBS/DRIVERS/PDCA/pdca.o
 .debug_info    0x0000946a     0x1920 AVR32_LIBS/DRIVERS/PM/pm.o
 .debug_info    0x0000ad8a      0xf71 AVR32_LIBS/DRIVERS/PM/pm_conf_clocks.o
 .debug_info    0x0000bcfb      0x9ed AVR32_LIBS/DRIVERS/PWM/pwm.o
 .debug_info    0x0000c6e8     0x1369 AVR32_LIBS/DRIVERS/RTC/rtc.o
 .debug_info    0x0000da51     0x10bf AVR32_LIBS/DRIVERS/SPI/spi.o
 .debug_info    0x0000eb10      0xd65 AVR32_LIBS/DRIVERS/TWI/twi.o
 .debug_info    0x0000f875     0x1c35 AVR32_LIBS/DRIVERS/USART/usart.o
 .debug_info    0x000114aa     0xb6a0 AVR32_LIBS/DRIVERS/USBB/ENUM/DEVICE/usb_device_task.o
 .debug_info    0x0001cb4a     0xbd0b AVR32_LIBS/DRIVERS/USBB/ENUM/DEVICE/usb_standard_request.o
 .debug_info    0x00028855     0xc4bf AVR32_LIBS/DRIVERS/USBB/ENUM/usb_task.o
 .debug_info    0x00034d14     0xbdb7 AVR32_LIBS/DRIVERS/USBB/usb_drv.o
 .debug_info    0x00040acb      0x1d8 AVR32_LIBS/DRIVERS/WDT/wdt.o
 .debug_info    0x00040ca3       0xd8 AVR32_LIBS/SERVICES/DELAY/delay.o
 .debug_info    0x00040d7b      0x4e0 AVR32_LIBS/SERVICES/FREERTOS/Source/croutine.o
 .debug_info    0x0004125b      0x2c3 AVR32_LIBS/SERVICES/FREERTOS/Source/list.o
 .debug_info    0x0004151e      0xab0 AVR32_LIBS/SERVICES/FREERTOS/Source/portable/GCC/AVR32_UC3/port.o
 .debug_info    0x00041fce       0xf6 AVR32_LIBS/SERVICES/FREERTOS/Source/portable/MemMang/heap_3.o
 .debug_info    0x000420c4      0x76a AVR32_LIBS/SERVICES/FREERTOS/Source/queue.o
 .debug_info    0x0004282e      0xefe AVR32_LIBS/SERVICES/FREERTOS/Source/tasks.o
 .debug_info    0x0004372c      0x555 AVR32_LIBS/SERVICES/USB/CLASS/CDC/EXAMPLES/ENUM/DEVICE/usb_descriptors.o
 .debug_info    0x00043c81     0xcc19 AVR32_LIBS/SERVICES/USB/CLASS/CDC/EXAMPLES/ENUM/DEVICE/usb_specific_request.o
 .debug_info    0x0005089a     0xb8f6 AVR32_LIBS/SERVICES/USB/CLASS/CDC/EXAMPLES/uart_usb_lib.o
 .debug_info    0x0005c190     0xbdc1 spike_fw_update.o
 .debug_info    0x00067f51      0xe90 main.o
 .debug_info    0x00068de1      0xdce main_app.o
 .debug_info    0x00069baf       0xf3 security_task.o
 .debug_info    0x00069ca2      0xba2 terminal/printf-stdarg.o
 .debug_info    0x0006a844     0xc2aa terminal/usb/usb.o
 .debug_info    0x00076aee      0x573 c:/program files (x86)/atmel/avr studio 5.1/extensions/atmel/avrgcc/3.3.1.27/avrtoolchain/bin/../lib/gcc/avr32/4.4.3/ucr2\libgcc.a(_udivdi3.o)
 .debug_info    0x00077061       0xc5 c:/program files (x86)/atmel/avr studio 5.1/extensions/atmel/avrgcc/3.3.1.27/avrtoolchain/bin/../lib/gcc/avr32/4.4.3/../../../../avr32/lib/ucr2\libc.a(lib_a-atexit.o)
 .debug_info    0x00077126      0x8dc c:/program files (x86)/atmel/avr studio 5.1/extensions/atmel/avrgcc/3.3.1.27/avrtoolchain/bin/../lib/gcc/avr32/4.4.3/../../../../avr32/lib/ucr2\libc.a(lib_a-atoi.o)
 .debug_info    0x00077a02      0x8a6 c:/program files (x86)/atmel/avr studio 5.1/extensions/atmel/avrgcc/3.3.1.27/avrtoolchain/bin/../lib/gcc/avr32/4.4.3/../../../../avr32/lib/ucr2\libc.a(lib_a-errno.o)
 .debug_info    0x000782a8      0x8b7 c:/program files (x86)/atmel/avr studio 5.1/extensions/atmel/avrgcc/3.3.1.27/avrtoolchain/bin/../lib/gcc/avr32/4.4.3/../../../../avr32/lib/ucr2\libc.a(lib_a-exit.o)
 .debug_info    0x00078b5f      0xa22 c:/program files (x86)/atmel/avr studio 5.1/extensions/atmel/avrgcc/3.3.1.27/avrtoolchain/bin/../lib/gcc/avr32/4.4.3/../../../../avr32/lib/ucr2\libc.a(lib_a-fflush.o)
 .debug_info    0x00079581      0xc2a c:/program files (x86)/atmel/avr studio 5.1/extensions/atmel/avrgcc/3.3.1.27/avrtoolchain/bin/../lib/gcc/avr32/4.4.3/../../../../avr32/lib/ucr2\libc.a(lib_a-findfp.o)
 .debug_info    0x0007a1ab      0xa61 c:/program files (x86)/atmel/avr studio 5.1/extensions/atmel/avrgcc/3.3.1.27/avrtoolchain/bin/../lib/gcc/avr32/4.4.3/../../../../avr32/lib/ucr2\libc.a(lib_a-fwalk.o)
 .debug_info    0x0007ac0c      0x960 c:/program files (x86)/atmel/avr studio 5.1/extensions/atmel/avrgcc/3.3.1.27/avrtoolchain/bin/../lib/gcc/avr32/4.4.3/../../../../avr32/lib/ucr2\libc.a(lib_a-impure.o)
 .debug_info    0x0007b56c      0x8ea c:/program files (x86)/atmel/avr studio 5.1/extensions/atmel/avrgcc/3.3.1.27/avrtoolchain/bin/../lib/gcc/avr32/4.4.3/../../../../avr32/lib/ucr2\libc.a(lib_a-malloc.o)
 .debug_info    0x0007be56      0xc4e c:/program files (x86)/atmel/avr studio 5.1/extensions/atmel/avrgcc/3.3.1.27/avrtoolchain/bin/../lib/gcc/avr32/4.4.3/../../../../avr32/lib/ucr2\libc.a(lib_a-mallocr.o)
 .debug_info    0x0007caa4       0xcd c:/program files (x86)/atmel/avr studio 5.1/extensions/atmel/avrgcc/3.3.1.27/avrtoolchain/bin/../lib/gcc/avr32/4.4.3/../../../../avr32/lib/ucr2\libc.a(lib_a-memset.o)
 .debug_info    0x0007cb71      0x948 c:/program files (x86)/atmel/avr studio 5.1/extensions/atmel/avrgcc/3.3.1.27/avrtoolchain/bin/../lib/gcc/avr32/4.4.3/../../../../avr32/lib/ucr2\libc.a(lib_a-printf.o)
 .debug_info    0x0007d4b9      0x8ef c:/program files (x86)/atmel/avr studio 5.1/extensions/atmel/avrgcc/3.3.1.27/avrtoolchain/bin/../lib/gcc/avr32/4.4.3/../../../../avr32/lib/ucr2\libc.a(lib_a-putchar.o)
 .debug_info    0x0007dda8      0x9d8 c:/program files (x86)/atmel/avr studio 5.1/extensions/atmel/avrgcc/3.3.1.27/avrtoolchain/bin/../lib/gcc/avr32/4.4.3/../../../../avr32/lib/ucr2\libc.a(lib_a-putc.o)
 .debug_info    0x0007e780      0x91a c:/program files (x86)/atmel/avr studio 5.1/extensions/atmel/avrgcc/3.3.1.27/avrtoolchain/bin/../lib/gcc/avr32/4.4.3/../../../../avr32/lib/ucr2\libc.a(lib_a-rand.o)
 .debug_info    0x0007f09a      0x8cf c:/program files (x86)/atmel/avr studio 5.1/extensions/atmel/avrgcc/3.3.1.27/avrtoolchain/bin/../lib/gcc/avr32/4.4.3/../../../../avr32/lib/ucr2\libc.a(lib_a-realloc.o)
 .debug_info    0x0007f969      0xb17 c:/program files (x86)/atmel/avr studio 5.1/extensions/atmel/avrgcc/3.3.1.27/avrtoolchain/bin/../lib/gcc/avr32/4.4.3/../../../../avr32/lib/ucr2\libc.a(lib_a-reallocr.o)
 .debug_info    0x00080480      0x8de c:/program files (x86)/atmel/avr studio 5.1/extensions/atmel/avrgcc/3.3.1.27/avrtoolchain/bin/../lib/gcc/avr32/4.4.3/../../../../avr32/lib/ucr2\libc.a(lib_a-sbrkr.o)
 .debug_info    0x00080d5e      0x989 c:/program files (x86)/atmel/avr studio 5.1/extensions/atmel/avrgcc/3.3.1.27/avrtoolchain/bin/../lib/gcc/avr32/4.4.3/../../../../avr32/lib/ucr2\libc.a(lib_a-sprintf.o)
 .debug_info    0x000816e7      0x9df c:/program files (x86)/atmel/avr studio 5.1/extensions/atmel/avrgcc/3.3.1.27/avrtoolchain/bin/../lib/gcc/avr32/4.4.3/../../../../avr32/lib/ucr2\libc.a(lib_a-sscanf.o)
 .debug_info    0x000820c6      0xa28 c:/program files (x86)/atmel/avr studio 5.1/extensions/atmel/avrgcc/3.3.1.27/avrtoolchain/bin/../lib/gcc/avr32/4.4.3/../../../../avr32/lib/ucr2\libc.a(lib_a-stdio.o)
 .debug_info    0x00082aee       0xc2 c:/program files (x86)/atmel/avr studio 5.1/extensions/atmel/avrgcc/3.3.1.27/avrtoolchain/bin/../lib/gcc/avr32/4.4.3/../../../../avr32/lib/ucr2\libc.a(lib_a-strcat.o)
 .debug_info    0x00082bb0       0xbe c:/program files (x86)/atmel/avr studio 5.1/extensions/atmel/avrgcc/3.3.1.27/avrtoolchain/bin/../lib/gcc/avr32/4.4.3/../../../../avr32/lib/ucr2\libc.a(lib_a-strlen.o)
 .debug_info    0x00082c6e      0x99d c:/program files (x86)/atmel/avr studio 5.1/extensions/atmel/avrgcc/3.3.1.27/avrtoolchain/bin/../lib/gcc/avr32/4.4.3/../../../../avr32/lib/ucr2\libc.a(lib_a-strtol.o)
 .debug_info    0x0008360b     0x15df c:/program files (x86)/atmel/avr studio 5.1/extensions/atmel/avrgcc/3.3.1.27/avrtoolchain/bin/../lib/gcc/avr32/4.4.3/../../../../avr32/lib/ucr2\libc.a(lib_a-vfprintf.o)
 .debug_info    0x00084bea     0x1321 c:/program files (x86)/atmel/avr studio 5.1/extensions/atmel/avrgcc/3.3.1.27/avrtoolchain/bin/../lib/gcc/avr32/4.4.3/../../../../avr32/lib/ucr2\libc.a(lib_a-vfscanf.o)
 .debug_info    0x00085f0b      0x96c c:/program files (x86)/atmel/avr studio 5.1/extensions/atmel/avrgcc/3.3.1.27/avrtoolchain/bin/../lib/gcc/avr32/4.4.3/../../../../avr32/lib/ucr2\libc.a(lib_a-vsprintf.o)
 .debug_info    0x00086877      0x9d6 c:/program files (x86)/atmel/avr studio 5.1/extensions/atmel/avrgcc/3.3.1.27/avrtoolchain/bin/../lib/gcc/avr32/4.4.3/../../../../avr32/lib/ucr2\libc.a(lib_a-wbuf.o)
 .debug_info    0x0008724d      0x90d c:/program files (x86)/atmel/avr studio 5.1/extensions/atmel/avrgcc/3.3.1.27/avrtoolchain/bin/../lib/gcc/avr32/4.4.3/../../../../avr32/lib/ucr2\libc.a(lib_a-writer.o)
 .debug_info    0x00087b5a      0x982 c:/program files (x86)/atmel/avr studio 5.1/extensions/atmel/avrgcc/3.3.1.27/avrtoolchain/bin/../lib/gcc/avr32/4.4.3/../../../../avr32/lib/ucr2\libc.a(lib_a-wsetup.o)
 .debug_info    0x000884dc      0x92c c:/program files (x86)/atmel/avr studio 5.1/extensions/atmel/avrgcc/3.3.1.27/avrtoolchain/bin/../lib/gcc/avr32/4.4.3/../../../../avr32/lib/ucr2\libc.a(lib_a-__atexit.o)
 .debug_info    0x00088e08      0x931 c:/program files (x86)/atmel/avr studio 5.1/extensions/atmel/avrgcc/3.3.1.27/avrtoolchain/bin/../lib/gcc/avr32/4.4.3/../../../../avr32/lib/ucr2\libc.a(lib_a-__call_atexit.o)
 .debug_info    0x00089739      0x8d2 c:/program files (x86)/atmel/avr studio 5.1/extensions/atmel/avrgcc/3.3.1.27/avrtoolchain/bin/../lib/gcc/avr32/4.4.3/../../../../avr32/lib/ucr2\libc.a(lib_a-closer.o)
 .debug_info    0x0008a00b       0x71 c:/program files (x86)/atmel/avr studio 5.1/extensions/atmel/avrgcc/3.3.1.27/avrtoolchain/bin/../lib/gcc/avr32/4.4.3/../../../../avr32/lib/ucr2\libc.a(lib_a-ctype_.o)
 .debug_info    0x0008a07c      0xcf7 c:/program files (x86)/atmel/avr studio 5.1/extensions/atmel/avrgcc/3.3.1.27/avrtoolchain/bin/../lib/gcc/avr32/4.4.3/../../../../avr32/lib/ucr2\libc.a(lib_a-dtoa.o)
 .debug_info    0x0008ad73      0x9bc c:/program files (x86)/atmel/avr studio 5.1/extensions/atmel/avrgcc/3.3.1.27/avrtoolchain/bin/../lib/gcc/avr32/4.4.3/../../../../avr32/lib/ucr2\libc.a(lib_a-fclose.o)
 .debug_info    0x0008b72f      0xa42 c:/program files (x86)/atmel/avr studio 5.1/extensions/atmel/avrgcc/3.3.1.27/avrtoolchain/bin/../lib/gcc/avr32/4.4.3/../../../../avr32/lib/ucr2\libc.a(lib_a-fread.o)
 .debug_info    0x0008c171      0xb3d c:/program files (x86)/atmel/avr studio 5.1/extensions/atmel/avrgcc/3.3.1.27/avrtoolchain/bin/../lib/gcc/avr32/4.4.3/../../../../avr32/lib/ucr2\libc.a(lib_a-freer.o)
 .debug_info    0x0008ccae      0x9fc c:/program files (x86)/atmel/avr studio 5.1/extensions/atmel/avrgcc/3.3.1.27/avrtoolchain/bin/../lib/gcc/avr32/4.4.3/../../../../avr32/lib/ucr2\libc.a(lib_a-fvwrite.o)
 .debug_info    0x0008d6aa       0xeb c:/program files (x86)/atmel/avr studio 5.1/extensions/atmel/avrgcc/3.3.1.27/avrtoolchain/bin/../lib/gcc/avr32/4.4.3/../../../../avr32/lib/ucr2\libc.a(lib_a-iswspace.o)
 .debug_info    0x0008d795      0xb24 c:/program files (x86)/atmel/avr studio 5.1/extensions/atmel/avrgcc/3.3.1.27/avrtoolchain/bin/../lib/gcc/avr32/4.4.3/../../../../avr32/lib/ucr2\libc.a(lib_a-locale.o)
 .debug_info    0x0008e2b9      0x8fb c:/program files (x86)/atmel/avr studio 5.1/extensions/atmel/avrgcc/3.3.1.27/avrtoolchain/bin/../lib/gcc/avr32/4.4.3/../../../../avr32/lib/ucr2\libc.a(lib_a-lseekr.o)
 .debug_info    0x0008ebb4      0xa96 c:/program files (x86)/atmel/avr studio 5.1/extensions/atmel/avrgcc/3.3.1.27/avrtoolchain/bin/../lib/gcc/avr32/4.4.3/../../../../avr32/lib/ucr2\libc.a(lib_a-makebuf.o)
 .debug_info    0x0008f64a      0x97f c:/program files (x86)/atmel/avr studio 5.1/extensions/atmel/avrgcc/3.3.1.27/avrtoolchain/bin/../lib/gcc/avr32/4.4.3/../../../../avr32/lib/ucr2\libc.a(lib_a-mbrtowc.o)
 .debug_info    0x0008ffc9      0x91f c:/program files (x86)/atmel/avr studio 5.1/extensions/atmel/avrgcc/3.3.1.27/avrtoolchain/bin/../lib/gcc/avr32/4.4.3/../../../../avr32/lib/ucr2\libc.a(lib_a-mbtowc_r.o)
 .debug_info    0x000908e8       0xe7 c:/program files (x86)/atmel/avr studio 5.1/extensions/atmel/avrgcc/3.3.1.27/avrtoolchain/bin/../lib/gcc/avr32/4.4.3/../../../../avr32/lib/ucr2\libc.a(lib_a-memchr.o)
 .debug_info    0x000909cf      0x102 c:/program files (x86)/atmel/avr studio 5.1/extensions/atmel/avrgcc/3.3.1.27/avrtoolchain/bin/../lib/gcc/avr32/4.4.3/../../../../avr32/lib/ucr2\libc.a(lib_a-memmove.o)
 .debug_info    0x00090ad1     0x149a c:/program files (x86)/atmel/avr studio 5.1/extensions/atmel/avrgcc/3.3.1.27/avrtoolchain/bin/../lib/gcc/avr32/4.4.3/../../../../avr32/lib/ucr2\libc.a(lib_a-mprec.o)
 .debug_info    0x00091f6b      0x906 c:/program files (x86)/atmel/avr studio 5.1/extensions/atmel/avrgcc/3.3.1.27/avrtoolchain/bin/../lib/gcc/avr32/4.4.3/../../../../avr32/lib/ucr2\libc.a(lib_a-readr.o)
 .debug_info    0x00092871      0x973 c:/program files (x86)/atmel/avr studio 5.1/extensions/atmel/avrgcc/3.3.1.27/avrtoolchain/bin/../lib/gcc/avr32/4.4.3/../../../../avr32/lib/ucr2\libc.a(lib_a-reent.o)
 .debug_info    0x000931e4      0x9b2 c:/program files (x86)/atmel/avr studio 5.1/extensions/atmel/avrgcc/3.3.1.27/avrtoolchain/bin/../lib/gcc/avr32/4.4.3/../../../../avr32/lib/ucr2\libc.a(lib_a-refill.o)
 .debug_info    0x00093b96       0xf9 c:/program files (x86)/atmel/avr studio 5.1/extensions/atmel/avrgcc/3.3.1.27/avrtoolchain/bin/../lib/gcc/avr32/4.4.3/../../../../avr32/lib/ucr2\libc.a(lib_a-sccl.o)
 .debug_info    0x00093c8f       0xc7 c:/program files (x86)/atmel/avr studio 5.1/extensions/atmel/avrgcc/3.3.1.27/avrtoolchain/bin/../lib/gcc/avr32/4.4.3/../../../../avr32/lib/ucr2\libc.a(lib_a-sf_nan.o)
 .debug_info    0x00093d56      0x14d c:/program files (x86)/atmel/avr studio 5.1/extensions/atmel/avrgcc/3.3.1.27/avrtoolchain/bin/../lib/gcc/avr32/4.4.3/../../../../avr32/lib/ucr2\libc.a(lib_a-s_isinfd.o)
 .debug_info    0x00093ea3      0x14c c:/program files (x86)/atmel/avr studio 5.1/extensions/atmel/avrgcc/3.3.1.27/avrtoolchain/bin/../lib/gcc/avr32/4.4.3/../../../../avr32/lib/ucr2\libc.a(lib_a-s_isnand.o)
 .debug_info    0x00093fef      0xf85 c:/program files (x86)/atmel/avr studio 5.1/extensions/atmel/avrgcc/3.3.1.27/avrtoolchain/bin/../lib/gcc/avr32/4.4.3/../../../../avr32/lib/ucr2\libc.a(lib_a-strtod.o)
 .debug_info    0x00094f74      0x94a c:/program files (x86)/atmel/avr studio 5.1/extensions/atmel/avrgcc/3.3.1.27/avrtoolchain/bin/../lib/gcc/avr32/4.4.3/../../../../avr32/lib/ucr2\libc.a(lib_a-strtoll_r.o)
 .debug_info    0x000958be      0x947 c:/program files (x86)/atmel/avr studio 5.1/extensions/atmel/avrgcc/3.3.1.27/avrtoolchain/bin/../lib/gcc/avr32/4.4.3/../../../../avr32/lib/ucr2\libc.a(lib_a-strtoull_r.o)
 .debug_info    0x00096205      0x99b c:/program files (x86)/atmel/avr studio 5.1/extensions/atmel/avrgcc/3.3.1.27/avrtoolchain/bin/../lib/gcc/avr32/4.4.3/../../../../avr32/lib/ucr2\libc.a(lib_a-strtoul.o)
 .debug_info    0x00096ba0      0xa1e c:/program files (x86)/atmel/avr studio 5.1/extensions/atmel/avrgcc/3.3.1.27/avrtoolchain/bin/../lib/gcc/avr32/4.4.3/../../../../avr32/lib/ucr2\libc.a(lib_a-ungetc.o)
 .debug_info    0x000975be      0x997 c:/program files (x86)/atmel/avr studio 5.1/extensions/atmel/avrgcc/3.3.1.27/avrtoolchain/bin/../lib/gcc/avr32/4.4.3/../../../../avr32/lib/ucr2\libc.a(lib_a-callocr.o)
 .debug_info    0x00097f55      0xa76 c:/program files (x86)/atmel/avr studio 5.1/extensions/atmel/avrgcc/3.3.1.27/avrtoolchain/bin/../lib/gcc/avr32/4.4.3/../../../../avr32/lib/ucr2\libc.a(lib_a-fstatr.o)
 .debug_info    0x000989cb      0xd63 c:/program files (x86)/atmel/avr studio 5.1/extensions/atmel/avrgcc/3.3.1.27/avrtoolchain/bin/../lib/gcc/avr32/4.4.3/../../../../avr32/lib/ucr2\libc.a(lib_a-gdtoa-gethex.o)
 .debug_info    0x0009972e      0x2fb c:/program files (x86)/atmel/avr studio 5.1/extensions/atmel/avrgcc/3.3.1.27/avrtoolchain/bin/../lib/gcc/avr32/4.4.3/../../../../avr32/lib/ucr2\libc.a(lib_a-gdtoa-hexnan.o)
 .debug_info    0x00099a29      0x55a c:/program files (x86)/atmel/avr studio 5.1/extensions/atmel/avrgcc/3.3.1.27/avrtoolchain/bin/../lib/gcc/avr32/4.4.3/ucr2\libgcc.a(_umoddi3.o)

.debug_abbrev   0x00000000     0xa702
 *(.debug_abbrev)
 .debug_abbrev  0x00000000      0x190 AVR32_LIBS/COMPONENTS/AD5410/ad5410.o
 .debug_abbrev  0x00000190      0x1e0 AVR32_LIBS/COMPONENTS/AT86RF231/at86rf231.o
 .debug_abbrev  0x00000370      0x248 AVR32_LIBS/COMPONENTS/AT86RF231/pal_trx_access.o
 .debug_abbrev  0x000005b8      0x18b AVR32_LIBS/COMPONENTS/TCA6424/tca6424.o
 .debug_abbrev  0x00000743      0x145 AVR32_LIBS/DRIVERS/ADC/adc.o
 .debug_abbrev  0x00000888      0x170 AVR32_LIBS/DRIVERS/EIC/eic.o
 .debug_abbrev  0x000009f8      0x285 AVR32_LIBS/DRIVERS/FLASHC/flashc.o
 .debug_abbrev  0x00000c7d      0x1b2 AVR32_LIBS/DRIVERS/GPIO/gpio.o
 .debug_abbrev  0x00000e2f      0x183 AVR32_LIBS/DRIVERS/INTC/intc.o
 .debug_abbrev  0x00000fb2      0x222 AVR32_LIBS/DRIVERS/PDCA/pdca.o
 .debug_abbrev  0x000011d4      0x21c AVR32_LIBS/DRIVERS/PM/pm.o
 .debug_abbrev  0x000013f0      0x18e AVR32_LIBS/DRIVERS/PM/pm_conf_clocks.o
 .debug_abbrev  0x0000157e      0x189 AVR32_LIBS/DRIVERS/PWM/pwm.o
 .debug_abbrev  0x00001707      0x1f8 AVR32_LIBS/DRIVERS/RTC/rtc.o
 .debug_abbrev  0x000018ff      0x222 AVR32_LIBS/DRIVERS/SPI/spi.o
 .debug_abbrev  0x00001b21      0x1f0 AVR32_LIBS/DRIVERS/TWI/twi.o
 .debug_abbrev  0x00001d11      0x230 AVR32_LIBS/DRIVERS/USART/usart.o
 .debug_abbrev  0x00001f41      0x159 AVR32_LIBS/DRIVERS/USBB/ENUM/DEVICE/usb_device_task.o
 .debug_abbrev  0x0000209a      0x233 AVR32_LIBS/DRIVERS/USBB/ENUM/DEVICE/usb_standard_request.o
 .debug_abbrev  0x000022cd      0x200 AVR32_LIBS/DRIVERS/USBB/ENUM/usb_task.o
 .debug_abbrev  0x000024cd      0x1f6 AVR32_LIBS/DRIVERS/USBB/usb_drv.o
 .debug_abbrev  0x000026c3      0x118 AVR32_LIBS/DRIVERS/WDT/wdt.o
 .debug_abbrev  0x000027db       0x72 AVR32_LIBS/SERVICES/DELAY/delay.o
 .debug_abbrev  0x0000284d      0x189 AVR32_LIBS/SERVICES/FREERTOS/Source/croutine.o
 .debug_abbrev  0x000029d6       0xcc AVR32_LIBS/SERVICES/FREERTOS/Source/list.o
 .debug_abbrev  0x00002aa2      0x26a AVR32_LIBS/SERVICES/FREERTOS/Source/portable/GCC/AVR32_UC3/port.o
 .debug_abbrev  0x00002d0c       0xa6 AVR32_LIBS/SERVICES/FREERTOS/Source/portable/MemMang/heap_3.o
 .debug_abbrev  0x00002db2      0x156 AVR32_LIBS/SERVICES/FREERTOS/Source/queue.o
 .debug_abbrev  0x00002f08      0x16e AVR32_LIBS/SERVICES/FREERTOS/Source/tasks.o
 .debug_abbrev  0x00003076       0xcd AVR32_LIBS/SERVICES/USB/CLASS/CDC/EXAMPLES/ENUM/DEVICE/usb_descriptors.o
 .debug_abbrev  0x00003143      0x1ee AVR32_LIBS/SERVICES/USB/CLASS/CDC/EXAMPLES/ENUM/DEVICE/usb_specific_request.o
 .debug_abbrev  0x00003331      0x1d5 AVR32_LIBS/SERVICES/USB/CLASS/CDC/EXAMPLES/uart_usb_lib.o
 .debug_abbrev  0x00003506      0x24a spike_fw_update.o
 .debug_abbrev  0x00003750      0x15a main.o
 .debug_abbrev  0x000038aa      0x296 main_app.o
 .debug_abbrev  0x00003b40       0x95 security_task.o
 .debug_abbrev  0x00003bd5      0x1e8 terminal/printf-stdarg.o
 .debug_abbrev  0x00003dbd      0x2ef terminal/usb/usb.o
 .debug_abbrev  0x000040ac      0x151 c:/program files (x86)/atmel/avr studio 5.1/extensions/atmel/avrgcc/3.3.1.27/avrtoolchain/bin/../lib/gcc/avr32/4.4.3/ucr2\libgcc.a(_udivdi3.o)
 .debug_abbrev  0x000041fd       0x81 c:/program files (x86)/atmel/avr studio 5.1/extensions/atmel/avrgcc/3.3.1.27/avrtoolchain/bin/../lib/gcc/avr32/4.4.3/../../../../avr32/lib/ucr2\libc.a(lib_a-atexit.o)
 .debug_abbrev  0x0000427e      0x167 c:/program files (x86)/atmel/avr studio 5.1/extensions/atmel/avrgcc/3.3.1.27/avrtoolchain/bin/../lib/gcc/avr32/4.4.3/../../../../avr32/lib/ucr2\libc.a(lib_a-atoi.o)
 .debug_abbrev  0x000043e5      0x150 c:/program files (x86)/atmel/avr studio 5.1/extensions/atmel/avrgcc/3.3.1.27/avrtoolchain/bin/../lib/gcc/avr32/4.4.3/../../../../avr32/lib/ucr2\libc.a(lib_a-errno.o)
 .debug_abbrev  0x00004535      0x15f c:/program files (x86)/atmel/avr studio 5.1/extensions/atmel/avrgcc/3.3.1.27/avrtoolchain/bin/../lib/gcc/avr32/4.4.3/../../../../avr32/lib/ucr2\libc.a(lib_a-exit.o)
 .debug_abbrev  0x00004694      0x1c6 c:/program files (x86)/atmel/avr studio 5.1/extensions/atmel/avrgcc/3.3.1.27/avrtoolchain/bin/../lib/gcc/avr32/4.4.3/../../../../avr32/lib/ucr2\libc.a(lib_a-fflush.o)
 .debug_abbrev  0x0000485a      0x28c c:/program files (x86)/atmel/avr studio 5.1/extensions/atmel/avrgcc/3.3.1.27/avrtoolchain/bin/../lib/gcc/avr32/4.4.3/../../../../avr32/lib/ucr2\libc.a(lib_a-findfp.o)
 .debug_abbrev  0x00004ae6      0x1df c:/program files (x86)/atmel/avr studio 5.1/extensions/atmel/avrgcc/3.3.1.27/avrtoolchain/bin/../lib/gcc/avr32/4.4.3/../../../../avr32/lib/ucr2\libc.a(lib_a-fwalk.o)
 .debug_abbrev  0x00004cc5      0x160 c:/program files (x86)/atmel/avr studio 5.1/extensions/atmel/avrgcc/3.3.1.27/avrtoolchain/bin/../lib/gcc/avr32/4.4.3/../../../../avr32/lib/ucr2\libc.a(lib_a-impure.o)
 .debug_abbrev  0x00004e25      0x178 c:/program files (x86)/atmel/avr studio 5.1/extensions/atmel/avrgcc/3.3.1.27/avrtoolchain/bin/../lib/gcc/avr32/4.4.3/../../../../avr32/lib/ucr2\libc.a(lib_a-malloc.o)
 .debug_abbrev  0x00004f9d      0x205 c:/program files (x86)/atmel/avr studio 5.1/extensions/atmel/avrgcc/3.3.1.27/avrtoolchain/bin/../lib/gcc/avr32/4.4.3/../../../../avr32/lib/ucr2\libc.a(lib_a-mallocr.o)
 .debug_abbrev  0x000051a2       0x85 c:/program files (x86)/atmel/avr studio 5.1/extensions/atmel/avrgcc/3.3.1.27/avrtoolchain/bin/../lib/gcc/avr32/4.4.3/../../../../avr32/lib/ucr2\libc.a(lib_a-memset.o)
 .debug_abbrev  0x00005227      0x1a4 c:/program files (x86)/atmel/avr studio 5.1/extensions/atmel/avrgcc/3.3.1.27/avrtoolchain/bin/../lib/gcc/avr32/4.4.3/../../../../avr32/lib/ucr2\libc.a(lib_a-printf.o)
 .debug_abbrev  0x000053cb      0x17a c:/program files (x86)/atmel/avr studio 5.1/extensions/atmel/avrgcc/3.3.1.27/avrtoolchain/bin/../lib/gcc/avr32/4.4.3/../../../../avr32/lib/ucr2\libc.a(lib_a-putchar.o)
 .debug_abbrev  0x00005545      0x192 c:/program files (x86)/atmel/avr studio 5.1/extensions/atmel/avrgcc/3.3.1.27/avrtoolchain/bin/../lib/gcc/avr32/4.4.3/../../../../avr32/lib/ucr2\libc.a(lib_a-putc.o)
 .debug_abbrev  0x000056d7      0x1b3 c:/program files (x86)/atmel/avr studio 5.1/extensions/atmel/avrgcc/3.3.1.27/avrtoolchain/bin/../lib/gcc/avr32/4.4.3/../../../../avr32/lib/ucr2\libc.a(lib_a-rand.o)
 .debug_abbrev  0x0000588a      0x170 c:/program files (x86)/atmel/avr studio 5.1/extensions/atmel/avrgcc/3.3.1.27/avrtoolchain/bin/../lib/gcc/avr32/4.4.3/../../../../avr32/lib/ucr2\libc.a(lib_a-realloc.o)
 .debug_abbrev  0x000059fa      0x1c1 c:/program files (x86)/atmel/avr studio 5.1/extensions/atmel/avrgcc/3.3.1.27/avrtoolchain/bin/../lib/gcc/avr32/4.4.3/../../../../avr32/lib/ucr2\libc.a(lib_a-reallocr.o)
 .debug_abbrev  0x00005bbb      0x17f c:/program files (x86)/atmel/avr studio 5.1/extensions/atmel/avrgcc/3.3.1.27/avrtoolchain/bin/../lib/gcc/avr32/4.4.3/../../../../avr32/lib/ucr2\libc.a(lib_a-sbrkr.o)
 .debug_abbrev  0x00005d3a      0x1a4 c:/program files (x86)/atmel/avr studio 5.1/extensions/atmel/avrgcc/3.3.1.27/avrtoolchain/bin/../lib/gcc/avr32/4.4.3/../../../../avr32/lib/ucr2\libc.a(lib_a-sprintf.o)
 .debug_abbrev  0x00005ede      0x1d9 c:/program files (x86)/atmel/avr studio 5.1/extensions/atmel/avrgcc/3.3.1.27/avrtoolchain/bin/../lib/gcc/avr32/4.4.3/../../../../avr32/lib/ucr2\libc.a(lib_a-sscanf.o)
 .debug_abbrev  0x000060b7      0x192 c:/program files (x86)/atmel/avr studio 5.1/extensions/atmel/avrgcc/3.3.1.27/avrtoolchain/bin/../lib/gcc/avr32/4.4.3/../../../../avr32/lib/ucr2\libc.a(lib_a-stdio.o)
 .debug_abbrev  0x00006249       0x85 c:/program files (x86)/atmel/avr studio 5.1/extensions/atmel/avrgcc/3.3.1.27/avrtoolchain/bin/../lib/gcc/avr32/4.4.3/../../../../avr32/lib/ucr2\libc.a(lib_a-strcat.o)
 .debug_abbrev  0x000062ce       0x83 c:/program files (x86)/atmel/avr studio 5.1/extensions/atmel/avrgcc/3.3.1.27/avrtoolchain/bin/../lib/gcc/avr32/4.4.3/../../../../avr32/lib/ucr2\libc.a(lib_a-strlen.o)
 .debug_abbrev  0x00006351      0x1cc c:/program files (x86)/atmel/avr studio 5.1/extensions/atmel/avrgcc/3.3.1.27/avrtoolchain/bin/../lib/gcc/avr32/4.4.3/../../../../avr32/lib/ucr2\libc.a(lib_a-strtol.o)
 .debug_abbrev  0x0000651d      0x3dd c:/program files (x86)/atmel/avr studio 5.1/extensions/atmel/avrgcc/3.3.1.27/avrtoolchain/bin/../lib/gcc/avr32/4.4.3/../../../../avr32/lib/ucr2\libc.a(lib_a-vfprintf.o)
 .debug_abbrev  0x000068fa      0x2cb c:/program files (x86)/atmel/avr studio 5.1/extensions/atmel/avrgcc/3.3.1.27/avrtoolchain/bin/../lib/gcc/avr32/4.4.3/../../../../avr32/lib/ucr2\libc.a(lib_a-vfscanf.o)
 .debug_abbrev  0x00006bc5      0x19f c:/program files (x86)/atmel/avr studio 5.1/extensions/atmel/avrgcc/3.3.1.27/avrtoolchain/bin/../lib/gcc/avr32/4.4.3/../../../../avr32/lib/ucr2\libc.a(lib_a-vsprintf.o)
 .debug_abbrev  0x00006d64      0x192 c:/program files (x86)/atmel/avr studio 5.1/extensions/atmel/avrgcc/3.3.1.27/avrtoolchain/bin/../lib/gcc/avr32/4.4.3/../../../../avr32/lib/ucr2\libc.a(lib_a-wbuf.o)
 .debug_abbrev  0x00006ef6      0x175 c:/program files (x86)/atmel/avr studio 5.1/extensions/atmel/avrgcc/3.3.1.27/avrtoolchain/bin/../lib/gcc/avr32/4.4.3/../../../../avr32/lib/ucr2\libc.a(lib_a-writer.o)
 .debug_abbrev  0x0000706b      0x16a c:/program files (x86)/atmel/avr studio 5.1/extensions/atmel/avrgcc/3.3.1.27/avrtoolchain/bin/../lib/gcc/avr32/4.4.3/../../../../avr32/lib/ucr2\libc.a(lib_a-wsetup.o)
 .debug_abbrev  0x000071d5      0x1b5 c:/program files (x86)/atmel/avr studio 5.1/extensions/atmel/avrgcc/3.3.1.27/avrtoolchain/bin/../lib/gcc/avr32/4.4.3/../../../../avr32/lib/ucr2\libc.a(lib_a-__atexit.o)
 .debug_abbrev  0x0000738a      0x1bc c:/program files (x86)/atmel/avr studio 5.1/extensions/atmel/avrgcc/3.3.1.27/avrtoolchain/bin/../lib/gcc/avr32/4.4.3/../../../../avr32/lib/ucr2\libc.a(lib_a-__call_atexit.o)
 .debug_abbrev  0x00007546      0x170 c:/program files (x86)/atmel/avr studio 5.1/extensions/atmel/avrgcc/3.3.1.27/avrtoolchain/bin/../lib/gcc/avr32/4.4.3/../../../../avr32/lib/ucr2\libc.a(lib_a-closer.o)
 .debug_abbrev  0x000076b6       0x59 c:/program files (x86)/atmel/avr studio 5.1/extensions/atmel/avrgcc/3.3.1.27/avrtoolchain/bin/../lib/gcc/avr32/4.4.3/../../../../avr32/lib/ucr2\libc.a(lib_a-ctype_.o)
 .debug_abbrev  0x0000770f      0x251 c:/program files (x86)/atmel/avr studio 5.1/extensions/atmel/avrgcc/3.3.1.27/avrtoolchain/bin/../lib/gcc/avr32/4.4.3/../../../../avr32/lib/ucr2\libc.a(lib_a-dtoa.o)
 .debug_abbrev  0x00007960      0x1a1 c:/program files (x86)/atmel/avr studio 5.1/extensions/atmel/avrgcc/3.3.1.27/avrtoolchain/bin/../lib/gcc/avr32/4.4.3/../../../../avr32/lib/ucr2\libc.a(lib_a-fclose.o)
 .debug_abbrev  0x00007b01      0x1ca c:/program files (x86)/atmel/avr studio 5.1/extensions/atmel/avrgcc/3.3.1.27/avrtoolchain/bin/../lib/gcc/avr32/4.4.3/../../../../avr32/lib/ucr2\libc.a(lib_a-fread.o)
 .debug_abbrev  0x00007ccb      0x1d9 c:/program files (x86)/atmel/avr studio 5.1/extensions/atmel/avrgcc/3.3.1.27/avrtoolchain/bin/../lib/gcc/avr32/4.4.3/../../../../avr32/lib/ucr2\libc.a(lib_a-freer.o)
 .debug_abbrev  0x00007ea4      0x1b4 c:/program files (x86)/atmel/avr studio 5.1/extensions/atmel/avrgcc/3.3.1.27/avrtoolchain/bin/../lib/gcc/avr32/4.4.3/../../../../avr32/lib/ucr2\libc.a(lib_a-fvwrite.o)
 .debug_abbrev  0x00008058       0xa8 c:/program files (x86)/atmel/avr studio 5.1/extensions/atmel/avrgcc/3.3.1.27/avrtoolchain/bin/../lib/gcc/avr32/4.4.3/../../../../avr32/lib/ucr2\libc.a(lib_a-iswspace.o)
 .debug_abbrev  0x00008100      0x210 c:/program files (x86)/atmel/avr studio 5.1/extensions/atmel/avrgcc/3.3.1.27/avrtoolchain/bin/../lib/gcc/avr32/4.4.3/../../../../avr32/lib/ucr2\libc.a(lib_a-locale.o)
 .debug_abbrev  0x00008310      0x17f c:/program files (x86)/atmel/avr studio 5.1/extensions/atmel/avrgcc/3.3.1.27/avrtoolchain/bin/../lib/gcc/avr32/4.4.3/../../../../avr32/lib/ucr2\libc.a(lib_a-lseekr.o)
 .debug_abbrev  0x0000848f      0x17b c:/program files (x86)/atmel/avr studio 5.1/extensions/atmel/avrgcc/3.3.1.27/avrtoolchain/bin/../lib/gcc/avr32/4.4.3/../../../../avr32/lib/ucr2\libc.a(lib_a-makebuf.o)
 .debug_abbrev  0x0000860a      0x170 c:/program files (x86)/atmel/avr studio 5.1/extensions/atmel/avrgcc/3.3.1.27/avrtoolchain/bin/../lib/gcc/avr32/4.4.3/../../../../avr32/lib/ucr2\libc.a(lib_a-mbrtowc.o)
 .debug_abbrev  0x0000877a      0x18a c:/program files (x86)/atmel/avr studio 5.1/extensions/atmel/avrgcc/3.3.1.27/avrtoolchain/bin/../lib/gcc/avr32/4.4.3/../../../../avr32/lib/ucr2\libc.a(lib_a-mbtowc_r.o)
 .debug_abbrev  0x00008904       0xb1 c:/program files (x86)/atmel/avr studio 5.1/extensions/atmel/avrgcc/3.3.1.27/avrtoolchain/bin/../lib/gcc/avr32/4.4.3/../../../../avr32/lib/ucr2\libc.a(lib_a-memchr.o)
 .debug_abbrev  0x000089b5       0xa2 c:/program files (x86)/atmel/avr studio 5.1/extensions/atmel/avrgcc/3.3.1.27/avrtoolchain/bin/../lib/gcc/avr32/4.4.3/../../../../avr32/lib/ucr2\libc.a(lib_a-memmove.o)
 .debug_abbrev  0x00008a57      0x30e c:/program files (x86)/atmel/avr studio 5.1/extensions/atmel/avrgcc/3.3.1.27/avrtoolchain/bin/../lib/gcc/avr32/4.4.3/../../../../avr32/lib/ucr2\libc.a(lib_a-mprec.o)
 .debug_abbrev  0x00008d65      0x170 c:/program files (x86)/atmel/avr studio 5.1/extensions/atmel/avrgcc/3.3.1.27/avrtoolchain/bin/../lib/gcc/avr32/4.4.3/../../../../avr32/lib/ucr2\libc.a(lib_a-readr.o)
 .debug_abbrev  0x00008ed5      0x1e6 c:/program files (x86)/atmel/avr studio 5.1/extensions/atmel/avrgcc/3.3.1.27/avrtoolchain/bin/../lib/gcc/avr32/4.4.3/../../../../avr32/lib/ucr2\libc.a(lib_a-reent.o)
 .debug_abbrev  0x000090bb      0x181 c:/program files (x86)/atmel/avr studio 5.1/extensions/atmel/avrgcc/3.3.1.27/avrtoolchain/bin/../lib/gcc/avr32/4.4.3/../../../../avr32/lib/ucr2\libc.a(lib_a-refill.o)
 .debug_abbrev  0x0000923c       0x9c c:/program files (x86)/atmel/avr studio 5.1/extensions/atmel/avrgcc/3.3.1.27/avrtoolchain/bin/../lib/gcc/avr32/4.4.3/../../../../avr32/lib/ucr2\libc.a(lib_a-sccl.o)
 .debug_abbrev  0x000092d8       0x76 c:/program files (x86)/atmel/avr studio 5.1/extensions/atmel/avrgcc/3.3.1.27/avrtoolchain/bin/../lib/gcc/avr32/4.4.3/../../../../avr32/lib/ucr2\libc.a(lib_a-sf_nan.o)
 .debug_abbrev  0x0000934e       0xdd c:/program files (x86)/atmel/avr studio 5.1/extensions/atmel/avrgcc/3.3.1.27/avrtoolchain/bin/../lib/gcc/avr32/4.4.3/../../../../avr32/lib/ucr2\libc.a(lib_a-s_isinfd.o)
 .debug_abbrev  0x0000942b       0xce c:/program files (x86)/atmel/avr studio 5.1/extensions/atmel/avrgcc/3.3.1.27/avrtoolchain/bin/../lib/gcc/avr32/4.4.3/../../../../avr32/lib/ucr2\libc.a(lib_a-s_isnand.o)
 .debug_abbrev  0x000094f9      0x2e4 c:/program files (x86)/atmel/avr studio 5.1/extensions/atmel/avrgcc/3.3.1.27/avrtoolchain/bin/../lib/gcc/avr32/4.4.3/../../../../avr32/lib/ucr2\libc.a(lib_a-strtod.o)
 .debug_abbrev  0x000097dd      0x19d c:/program files (x86)/atmel/avr studio 5.1/extensions/atmel/avrgcc/3.3.1.27/avrtoolchain/bin/../lib/gcc/avr32/4.4.3/../../../../avr32/lib/ucr2\libc.a(lib_a-strtoll_r.o)
 .debug_abbrev  0x0000997a      0x19b c:/program files (x86)/atmel/avr studio 5.1/extensions/atmel/avrgcc/3.3.1.27/avrtoolchain/bin/../lib/gcc/avr32/4.4.3/../../../../avr32/lib/ucr2\libc.a(lib_a-strtoull_r.o)
 .debug_abbrev  0x00009b15      0x1bd c:/program files (x86)/atmel/avr studio 5.1/extensions/atmel/avrgcc/3.3.1.27/avrtoolchain/bin/../lib/gcc/avr32/4.4.3/../../../../avr32/lib/ucr2\libc.a(lib_a-strtoul.o)
 .debug_abbrev  0x00009cd2      0x1a1 c:/program files (x86)/atmel/avr studio 5.1/extensions/atmel/avrgcc/3.3.1.27/avrtoolchain/bin/../lib/gcc/avr32/4.4.3/../../../../avr32/lib/ucr2\libc.a(lib_a-ungetc.o)
 .debug_abbrev  0x00009e73      0x193 c:/program files (x86)/atmel/avr studio 5.1/extensions/atmel/avrgcc/3.3.1.27/avrtoolchain/bin/../lib/gcc/avr32/4.4.3/../../../../avr32/lib/ucr2\libc.a(lib_a-callocr.o)
 .debug_abbrev  0x0000a006      0x17f c:/program files (x86)/atmel/avr studio 5.1/extensions/atmel/avrgcc/3.3.1.27/avrtoolchain/bin/../lib/gcc/avr32/4.4.3/../../../../avr32/lib/ucr2\libc.a(lib_a-fstatr.o)
 .debug_abbrev  0x0000a185      0x2ba c:/program files (x86)/atmel/avr studio 5.1/extensions/atmel/avrgcc/3.3.1.27/avrtoolchain/bin/../lib/gcc/avr32/4.4.3/../../../../avr32/lib/ucr2\libc.a(lib_a-gdtoa-gethex.o)
 .debug_abbrev  0x0000a43f      0x16c c:/program files (x86)/atmel/avr studio 5.1/extensions/atmel/avrgcc/3.3.1.27/avrtoolchain/bin/../lib/gcc/avr32/4.4.3/../../../../avr32/lib/ucr2\libc.a(lib_a-gdtoa-hexnan.o)
 .debug_abbrev  0x0000a5ab      0x157 c:/program files (x86)/atmel/avr studio 5.1/extensions/atmel/avrgcc/3.3.1.27/avrtoolchain/bin/../lib/gcc/avr32/4.4.3/ucr2\libgcc.a(_umoddi3.o)

.debug_line     0x00000000    0x20d05
 *(.debug_line)
 .debug_line    0x00000000      0x7df AVR32_LIBS/COMPONENTS/AD5410/ad5410.o
 .debug_line    0x000007df      0xbae AVR32_LIBS/COMPONENTS/AT86RF231/at86rf231.o
 .debug_line    0x0000138d      0x8d4 AVR32_LIBS/COMPONENTS/AT86RF231/pal_trx_access.o
 .debug_line    0x00001c61      0xa70 AVR32_LIBS/COMPONENTS/TCA6424/tca6424.o
 .debug_line    0x000026d1      0x627 AVR32_LIBS/DRIVERS/ADC/adc.o
 .debug_line    0x00002cf8      0x6ea AVR32_LIBS/DRIVERS/EIC/eic.o
 .debug_line    0x000033e2      0xbb4 AVR32_LIBS/DRIVERS/FLASHC/flashc.o
 .debug_line    0x00003f96      0x771 AVR32_LIBS/DRIVERS/GPIO/gpio.o
 .debug_line    0x00004707      0x5eb AVR32_LIBS/DRIVERS/INTC/intc.o
 .debug_line    0x00004cf2      0x707 AVR32_LIBS/DRIVERS/PDCA/pdca.o
 .debug_line    0x000053f9      0x8d2 AVR32_LIBS/DRIVERS/PM/pm.o
 .debug_line    0x00005ccb      0x661 AVR32_LIBS/DRIVERS/PM/pm_conf_clocks.o
 .debug_line    0x0000632c      0x620 AVR32_LIBS/DRIVERS/PWM/pwm.o
 .debug_line    0x0000694c      0x6d4 AVR32_LIBS/DRIVERS/RTC/rtc.o
 .debug_line    0x00007020      0x876 AVR32_LIBS/DRIVERS/SPI/spi.o
 .debug_line    0x00007896      0x700 AVR32_LIBS/DRIVERS/TWI/twi.o
 .debug_line    0x00007f96      0x921 AVR32_LIBS/DRIVERS/USART/usart.o
 .debug_line    0x000088b7      0x84a AVR32_LIBS/DRIVERS/USBB/ENUM/DEVICE/usb_device_task.o
 .debug_line    0x00009101      0x8ce AVR32_LIBS/DRIVERS/USBB/ENUM/DEVICE/usb_standard_request.o
 .debug_line    0x000099cf      0x8c7 AVR32_LIBS/DRIVERS/USBB/ENUM/usb_task.o
 .debug_line    0x0000a296      0x7b6 AVR32_LIBS/DRIVERS/USBB/usb_drv.o
 .debug_line    0x0000aa4c      0x619 AVR32_LIBS/DRIVERS/WDT/wdt.o
 .debug_line    0x0000b065      0x6b4 AVR32_LIBS/SERVICES/DELAY/delay.o
 .debug_line    0x0000b719      0x789 AVR32_LIBS/SERVICES/FREERTOS/Source/croutine.o
 .debug_line    0x0000bea2      0x6fc AVR32_LIBS/SERVICES/FREERTOS/Source/list.o
 .debug_line    0x0000c59e      0x83f AVR32_LIBS/SERVICES/FREERTOS/Source/portable/GCC/AVR32_UC3/port.o
 .debug_line    0x0000cddd      0x6cc AVR32_LIBS/SERVICES/FREERTOS/Source/portable/MemMang/heap_3.o
 .debug_line    0x0000d4a9      0x8e8 AVR32_LIBS/SERVICES/FREERTOS/Source/queue.o
 .debug_line    0x0000dd91      0xb3d AVR32_LIBS/SERVICES/FREERTOS/Source/tasks.o
 .debug_line    0x0000e8ce      0x6fb AVR32_LIBS/SERVICES/USB/CLASS/CDC/EXAMPLES/ENUM/DEVICE/usb_descriptors.o
 .debug_line    0x0000efc9      0x833 AVR32_LIBS/SERVICES/USB/CLASS/CDC/EXAMPLES/ENUM/DEVICE/usb_specific_request.o
 .debug_line    0x0000f7fc      0xad8 AVR32_LIBS/SERVICES/USB/CLASS/CDC/EXAMPLES/uart_usb_lib.o
 .debug_line    0x000102d4      0xcd1 spike_fw_update.o
 .debug_line    0x00010fa5      0x997 main.o
 .debug_line    0x0001193c      0xdd4 main_app.o
 .debug_line    0x00012710      0x704 security_task.o
 .debug_line    0x00012e14      0x3fe terminal/printf-stdarg.o
 .debug_line    0x00013212     0x102b terminal/usb/usb.o
 .debug_line    0x0001423d      0x1e5 c:/program files (x86)/atmel/avr studio 5.1/extensions/atmel/avrgcc/3.3.1.27/avrtoolchain/bin/../lib/gcc/avr32/4.4.3/ucr2\libgcc.a(_udivdi3.o)
 .debug_line    0x00014422       0xfc c:/program files (x86)/atmel/avr studio 5.1/extensions/atmel/avrgcc/3.3.1.27/avrtoolchain/bin/../lib/gcc/avr32/4.4.3/../../../../avr32/lib/ucr2\libc.a(lib_a-atexit.o)
 .debug_line    0x0001451e      0x1fb c:/program files (x86)/atmel/avr studio 5.1/extensions/atmel/avrgcc/3.3.1.27/avrtoolchain/bin/../lib/gcc/avr32/4.4.3/../../../../avr32/lib/ucr2\libc.a(lib_a-atoi.o)
 .debug_line    0x00014719      0x18c c:/program files (x86)/atmel/avr studio 5.1/extensions/atmel/avrgcc/3.3.1.27/avrtoolchain/bin/../lib/gcc/avr32/4.4.3/../../../../avr32/lib/ucr2\libc.a(lib_a-errno.o)
 .debug_line    0x000148a5      0x1f5 c:/program files (x86)/atmel/avr studio 5.1/extensions/atmel/avrgcc/3.3.1.27/avrtoolchain/bin/../lib/gcc/avr32/4.4.3/../../../../avr32/lib/ucr2\libc.a(lib_a-exit.o)
 .debug_line    0x00014a9a      0x2fd c:/program files (x86)/atmel/avr studio 5.1/extensions/atmel/avrgcc/3.3.1.27/avrtoolchain/bin/../lib/gcc/avr32/4.4.3/../../../../avr32/lib/ucr2\libc.a(lib_a-fflush.o)
 .debug_line    0x00014d97      0x555 c:/program files (x86)/atmel/avr studio 5.1/extensions/atmel/avrgcc/3.3.1.27/avrtoolchain/bin/../lib/gcc/avr32/4.4.3/../../../../avr32/lib/ucr2\libc.a(lib_a-findfp.o)
 .debug_line    0x000152ec      0x2a2 c:/program files (x86)/atmel/avr studio 5.1/extensions/atmel/avrgcc/3.3.1.27/avrtoolchain/bin/../lib/gcc/avr32/4.4.3/../../../../avr32/lib/ucr2\libc.a(lib_a-fwalk.o)
 .debug_line    0x0001558e      0x166 c:/program files (x86)/atmel/avr studio 5.1/extensions/atmel/avrgcc/3.3.1.27/avrtoolchain/bin/../lib/gcc/avr32/4.4.3/../../../../avr32/lib/ucr2\libc.a(lib_a-impure.o)
 .debug_line    0x000156f4      0x1fd c:/program files (x86)/atmel/avr studio 5.1/extensions/atmel/avrgcc/3.3.1.27/avrtoolchain/bin/../lib/gcc/avr32/4.4.3/../../../../avr32/lib/ucr2\libc.a(lib_a-malloc.o)
 .debug_line    0x000158f1      0x52f c:/program files (x86)/atmel/avr studio 5.1/extensions/atmel/avrgcc/3.3.1.27/avrtoolchain/bin/../lib/gcc/avr32/4.4.3/../../../../avr32/lib/ucr2\libc.a(lib_a-mallocr.o)
 .debug_line    0x00015e20      0x17c c:/program files (x86)/atmel/avr studio 5.1/extensions/atmel/avrgcc/3.3.1.27/avrtoolchain/bin/../lib/gcc/avr32/4.4.3/../../../../avr32/lib/ucr2\libc.a(lib_a-memset.o)
 .debug_line    0x00015f9c      0x229 c:/program files (x86)/atmel/avr studio 5.1/extensions/atmel/avrgcc/3.3.1.27/avrtoolchain/bin/../lib/gcc/avr32/4.4.3/../../../../avr32/lib/ucr2\libc.a(lib_a-printf.o)
 .debug_line    0x000161c5      0x21a c:/program files (x86)/atmel/avr studio 5.1/extensions/atmel/avrgcc/3.3.1.27/avrtoolchain/bin/../lib/gcc/avr32/4.4.3/../../../../avr32/lib/ucr2\libc.a(lib_a-putchar.o)
 .debug_line    0x000163df      0x205 c:/program files (x86)/atmel/avr studio 5.1/extensions/atmel/avrgcc/3.3.1.27/avrtoolchain/bin/../lib/gcc/avr32/4.4.3/../../../../avr32/lib/ucr2\libc.a(lib_a-putc.o)
 .debug_line    0x000165e4      0x219 c:/program files (x86)/atmel/avr studio 5.1/extensions/atmel/avrgcc/3.3.1.27/avrtoolchain/bin/../lib/gcc/avr32/4.4.3/../../../../avr32/lib/ucr2\libc.a(lib_a-rand.o)
 .debug_line    0x000167fd      0x1e0 c:/program files (x86)/atmel/avr studio 5.1/extensions/atmel/avrgcc/3.3.1.27/avrtoolchain/bin/../lib/gcc/avr32/4.4.3/../../../../avr32/lib/ucr2\libc.a(lib_a-realloc.o)
 .debug_line    0x000169dd      0x347 c:/program files (x86)/atmel/avr studio 5.1/extensions/atmel/avrgcc/3.3.1.27/avrtoolchain/bin/../lib/gcc/avr32/4.4.3/../../../../avr32/lib/ucr2\libc.a(lib_a-reallocr.o)
 .debug_line    0x00016d24      0x200 c:/program files (x86)/atmel/avr studio 5.1/extensions/atmel/avrgcc/3.3.1.27/avrtoolchain/bin/../lib/gcc/avr32/4.4.3/../../../../avr32/lib/ucr2\libc.a(lib_a-sbrkr.o)
 .debug_line    0x00016f24      0x262 c:/program files (x86)/atmel/avr studio 5.1/extensions/atmel/avrgcc/3.3.1.27/avrtoolchain/bin/../lib/gcc/avr32/4.4.3/../../../../avr32/lib/ucr2\libc.a(lib_a-sprintf.o)
 .debug_line    0x00017186      0x2b4 c:/program files (x86)/atmel/avr studio 5.1/extensions/atmel/avrgcc/3.3.1.27/avrtoolchain/bin/../lib/gcc/avr32/4.4.3/../../../../avr32/lib/ucr2\libc.a(lib_a-sscanf.o)
 .debug_line    0x0001743a      0x299 c:/program files (x86)/atmel/avr studio 5.1/extensions/atmel/avrgcc/3.3.1.27/avrtoolchain/bin/../lib/gcc/avr32/4.4.3/../../../../avr32/lib/ucr2\libc.a(lib_a-stdio.o)
 .debug_line    0x000176d3      0x109 c:/program files (x86)/atmel/avr studio 5.1/extensions/atmel/avrgcc/3.3.1.27/avrtoolchain/bin/../lib/gcc/avr32/4.4.3/../../../../avr32/lib/ucr2\libc.a(lib_a-strcat.o)
 .debug_line    0x000177dc      0x182 c:/program files (x86)/atmel/avr studio 5.1/extensions/atmel/avrgcc/3.3.1.27/avrtoolchain/bin/../lib/gcc/avr32/4.4.3/../../../../avr32/lib/ucr2\libc.a(lib_a-strlen.o)
 .debug_line    0x0001795e      0x31c c:/program files (x86)/atmel/avr studio 5.1/extensions/atmel/avrgcc/3.3.1.27/avrtoolchain/bin/../lib/gcc/avr32/4.4.3/../../../../avr32/lib/ucr2\libc.a(lib_a-strtol.o)
 .debug_line    0x00017c7a      0xc23 c:/program files (x86)/atmel/avr studio 5.1/extensions/atmel/avrgcc/3.3.1.27/avrtoolchain/bin/../lib/gcc/avr32/4.4.3/../../../../avr32/lib/ucr2\libc.a(lib_a-vfprintf.o)
 .debug_line    0x0001889d      0xd8a c:/program files (x86)/atmel/avr studio 5.1/extensions/atmel/avrgcc/3.3.1.27/avrtoolchain/bin/../lib/gcc/avr32/4.4.3/../../../../avr32/lib/ucr2\libc.a(lib_a-vfscanf.o)
 .debug_line    0x00019627      0x22b c:/program files (x86)/atmel/avr studio 5.1/extensions/atmel/avrgcc/3.3.1.27/avrtoolchain/bin/../lib/gcc/avr32/4.4.3/../../../../avr32/lib/ucr2\libc.a(lib_a-vsprintf.o)
 .debug_line    0x00019852      0x246 c:/program files (x86)/atmel/avr studio 5.1/extensions/atmel/avrgcc/3.3.1.27/avrtoolchain/bin/../lib/gcc/avr32/4.4.3/../../../../avr32/lib/ucr2\libc.a(lib_a-wbuf.o)
 .debug_line    0x00019a98      0x20d c:/program files (x86)/atmel/avr studio 5.1/extensions/atmel/avrgcc/3.3.1.27/avrtoolchain/bin/../lib/gcc/avr32/4.4.3/../../../../avr32/lib/ucr2\libc.a(lib_a-writer.o)
 .debug_line    0x00019ca5      0x249 c:/program files (x86)/atmel/avr studio 5.1/extensions/atmel/avrgcc/3.3.1.27/avrtoolchain/bin/../lib/gcc/avr32/4.4.3/../../../../avr32/lib/ucr2\libc.a(lib_a-wsetup.o)
 .debug_line    0x00019eee      0x221 c:/program files (x86)/atmel/avr studio 5.1/extensions/atmel/avrgcc/3.3.1.27/avrtoolchain/bin/../lib/gcc/avr32/4.4.3/../../../../avr32/lib/ucr2\libc.a(lib_a-__atexit.o)
 .debug_line    0x0001a10f      0x264 c:/program files (x86)/atmel/avr studio 5.1/extensions/atmel/avrgcc/3.3.1.27/avrtoolchain/bin/../lib/gcc/avr32/4.4.3/../../../../avr32/lib/ucr2\libc.a(lib_a-__call_atexit.o)
 .debug_line    0x0001a373      0x201 c:/program files (x86)/atmel/avr studio 5.1/extensions/atmel/avrgcc/3.3.1.27/avrtoolchain/bin/../lib/gcc/avr32/4.4.3/../../../../avr32/lib/ucr2\libc.a(lib_a-closer.o)
 .debug_line    0x0001a574       0x78 c:/program files (x86)/atmel/avr studio 5.1/extensions/atmel/avrgcc/3.3.1.27/avrtoolchain/bin/../lib/gcc/avr32/4.4.3/../../../../avr32/lib/ucr2\libc.a(lib_a-ctype_.o)
 .debug_line    0x0001a5ec      0xb95 c:/program files (x86)/atmel/avr studio 5.1/extensions/atmel/avrgcc/3.3.1.27/avrtoolchain/bin/../lib/gcc/avr32/4.4.3/../../../../avr32/lib/ucr2\libc.a(lib_a-dtoa.o)
 .debug_line    0x0001b181      0x267 c:/program files (x86)/atmel/avr studio 5.1/extensions/atmel/avrgcc/3.3.1.27/avrtoolchain/bin/../lib/gcc/avr32/4.4.3/../../../../avr32/lib/ucr2\libc.a(lib_a-fclose.o)
 .debug_line    0x0001b3e8      0x27e c:/program files (x86)/atmel/avr studio 5.1/extensions/atmel/avrgcc/3.3.1.27/avrtoolchain/bin/../lib/gcc/avr32/4.4.3/../../../../avr32/lib/ucr2\libc.a(lib_a-fread.o)
 .debug_line    0x0001b666      0x30a c:/program files (x86)/atmel/avr studio 5.1/extensions/atmel/avrgcc/3.3.1.27/avrtoolchain/bin/../lib/gcc/avr32/4.4.3/../../../../avr32/lib/ucr2\libc.a(lib_a-freer.o)
 .debug_line    0x0001b970      0x42b c:/program files (x86)/atmel/avr studio 5.1/extensions/atmel/avrgcc/3.3.1.27/avrtoolchain/bin/../lib/gcc/avr32/4.4.3/../../../../avr32/lib/ucr2\libc.a(lib_a-fvwrite.o)
 .debug_line    0x0001bd9b      0x182 c:/program files (x86)/atmel/avr studio 5.1/extensions/atmel/avrgcc/3.3.1.27/avrtoolchain/bin/../lib/gcc/avr32/4.4.3/../../../../avr32/lib/ucr2\libc.a(lib_a-iswspace.o)
 .debug_line    0x0001bf1d      0x267 c:/program files (x86)/atmel/avr studio 5.1/extensions/atmel/avrgcc/3.3.1.27/avrtoolchain/bin/../lib/gcc/avr32/4.4.3/../../../../avr32/lib/ucr2\libc.a(lib_a-locale.o)
 .debug_line    0x0001c184      0x20d c:/program files (x86)/atmel/avr studio 5.1/extensions/atmel/avrgcc/3.3.1.27/avrtoolchain/bin/../lib/gcc/avr32/4.4.3/../../../../avr32/lib/ucr2\libc.a(lib_a-lseekr.o)
 .debug_line    0x0001c391      0x2b3 c:/program files (x86)/atmel/avr studio 5.1/extensions/atmel/avrgcc/3.3.1.27/avrtoolchain/bin/../lib/gcc/avr32/4.4.3/../../../../avr32/lib/ucr2\libc.a(lib_a-makebuf.o)
 .debug_line    0x0001c644      0x21f c:/program files (x86)/atmel/avr studio 5.1/extensions/atmel/avrgcc/3.3.1.27/avrtoolchain/bin/../lib/gcc/avr32/4.4.3/../../../../avr32/lib/ucr2\libc.a(lib_a-mbrtowc.o)
 .debug_line    0x0001c863      0x205 c:/program files (x86)/atmel/avr studio 5.1/extensions/atmel/avrgcc/3.3.1.27/avrtoolchain/bin/../lib/gcc/avr32/4.4.3/../../../../avr32/lib/ucr2\libc.a(lib_a-mbtowc_r.o)
 .debug_line    0x0001ca68      0x17d c:/program files (x86)/atmel/avr studio 5.1/extensions/atmel/avrgcc/3.3.1.27/avrtoolchain/bin/../lib/gcc/avr32/4.4.3/../../../../avr32/lib/ucr2\libc.a(lib_a-memchr.o)
 .debug_line    0x0001cbe5      0x190 c:/program files (x86)/atmel/avr studio 5.1/extensions/atmel/avrgcc/3.3.1.27/avrtoolchain/bin/../lib/gcc/avr32/4.4.3/../../../../avr32/lib/ucr2\libc.a(lib_a-memmove.o)
 .debug_line    0x0001cd75      0xd0b c:/program files (x86)/atmel/avr studio 5.1/extensions/atmel/avrgcc/3.3.1.27/avrtoolchain/bin/../lib/gcc/avr32/4.4.3/../../../../avr32/lib/ucr2\libc.a(lib_a-mprec.o)
 .debug_line    0x0001da80      0x20c c:/program files (x86)/atmel/avr studio 5.1/extensions/atmel/avrgcc/3.3.1.27/avrtoolchain/bin/../lib/gcc/avr32/4.4.3/../../../../avr32/lib/ucr2\libc.a(lib_a-readr.o)
 .debug_line    0x0001dc8c      0x2aa c:/program files (x86)/atmel/avr studio 5.1/extensions/atmel/avrgcc/3.3.1.27/avrtoolchain/bin/../lib/gcc/avr32/4.4.3/../../../../avr32/lib/ucr2\libc.a(lib_a-reent.o)
 .debug_line    0x0001df36      0x2e3 c:/program files (x86)/atmel/avr studio 5.1/extensions/atmel/avrgcc/3.3.1.27/avrtoolchain/bin/../lib/gcc/avr32/4.4.3/../../../../avr32/lib/ucr2\libc.a(lib_a-refill.o)
 .debug_line    0x0001e219      0x170 c:/program files (x86)/atmel/avr studio 5.1/extensions/atmel/avrgcc/3.3.1.27/avrtoolchain/bin/../lib/gcc/avr32/4.4.3/../../../../avr32/lib/ucr2\libc.a(lib_a-sccl.o)
 .debug_line    0x0001e389       0xe6 c:/program files (x86)/atmel/avr studio 5.1/extensions/atmel/avrgcc/3.3.1.27/avrtoolchain/bin/../lib/gcc/avr32/4.4.3/../../../../avr32/lib/ucr2\libc.a(lib_a-sf_nan.o)
 .debug_line    0x0001e46f      0x17a c:/program files (x86)/atmel/avr studio 5.1/extensions/atmel/avrgcc/3.3.1.27/avrtoolchain/bin/../lib/gcc/avr32/4.4.3/../../../../avr32/lib/ucr2\libc.a(lib_a-s_isinfd.o)
 .debug_line    0x0001e5e9      0x16f c:/program files (x86)/atmel/avr studio 5.1/extensions/atmel/avrgcc/3.3.1.27/avrtoolchain/bin/../lib/gcc/avr32/4.4.3/../../../../avr32/lib/ucr2\libc.a(lib_a-s_isnand.o)
 .debug_line    0x0001e758      0xa85 c:/program files (x86)/atmel/avr studio 5.1/extensions/atmel/avrgcc/3.3.1.27/avrtoolchain/bin/../lib/gcc/avr32/4.4.3/../../../../avr32/lib/ucr2\libc.a(lib_a-strtod.o)
 .debug_line    0x0001f1dd      0x319 c:/program files (x86)/atmel/avr studio 5.1/extensions/atmel/avrgcc/3.3.1.27/avrtoolchain/bin/../lib/gcc/avr32/4.4.3/../../../../avr32/lib/ucr2\libc.a(lib_a-strtoll_r.o)
 .debug_line    0x0001f4f6      0x2eb c:/program files (x86)/atmel/avr studio 5.1/extensions/atmel/avrgcc/3.3.1.27/avrtoolchain/bin/../lib/gcc/avr32/4.4.3/../../../../avr32/lib/ucr2\libc.a(lib_a-strtoull_r.o)
 .debug_line    0x0001f7e1      0x2e7 c:/program files (x86)/atmel/avr studio 5.1/extensions/atmel/avrgcc/3.3.1.27/avrtoolchain/bin/../lib/gcc/avr32/4.4.3/../../../../avr32/lib/ucr2\libc.a(lib_a-strtoul.o)
 .debug_line    0x0001fac8      0x33e c:/program files (x86)/atmel/avr studio 5.1/extensions/atmel/avrgcc/3.3.1.27/avrtoolchain/bin/../lib/gcc/avr32/4.4.3/../../../../avr32/lib/ucr2\libc.a(lib_a-ungetc.o)
 .debug_line    0x0001fe06      0x191 c:/program files (x86)/atmel/avr studio 5.1/extensions/atmel/avrgcc/3.3.1.27/avrtoolchain/bin/../lib/gcc/avr32/4.4.3/../../../../avr32/lib/ucr2\libc.a(lib_a-callocr.o)
 .debug_line    0x0001ff97      0x216 c:/program files (x86)/atmel/avr studio 5.1/extensions/atmel/avrgcc/3.3.1.27/avrtoolchain/bin/../lib/gcc/avr32/4.4.3/../../../../avr32/lib/ucr2\libc.a(lib_a-fstatr.o)
 .debug_line    0x000201ad      0x6b5 c:/program files (x86)/atmel/avr studio 5.1/extensions/atmel/avrgcc/3.3.1.27/avrtoolchain/bin/../lib/gcc/avr32/4.4.3/../../../../avr32/lib/ucr2\libc.a(lib_a-gdtoa-gethex.o)
 .debug_line    0x00020862      0x29c c:/program files (x86)/atmel/avr studio 5.1/extensions/atmel/avrgcc/3.3.1.27/avrtoolchain/bin/../lib/gcc/avr32/4.4.3/../../../../avr32/lib/ucr2\libc.a(lib_a-gdtoa-hexnan.o)
 .debug_line    0x00020afe      0x207 c:/program files (x86)/atmel/avr studio 5.1/extensions/atmel/avrgcc/3.3.1.27/avrtoolchain/bin/../lib/gcc/avr32/4.4.3/ucr2\libgcc.a(_umoddi3.o)

.debug_frame    0x00000000     0x5340
 *(.debug_frame)
 .debug_frame   0x00000000       0x4c c:/program files (x86)/atmel/avr studio 5.1/extensions/atmel/avrgcc/3.3.1.27/avrtoolchain/bin/../lib/gcc/avr32/4.4.3/ucr2/crtbegin.o
 .debug_frame   0x0000004c       0xf0 AVR32_LIBS/COMPONENTS/AD5410/ad5410.o
 .debug_frame   0x0000013c      0x144 AVR32_LIBS/COMPONENTS/AT86RF231/at86rf231.o
 .debug_frame   0x00000280      0x154 AVR32_LIBS/COMPONENTS/AT86RF231/pal_trx_access.o
 .debug_frame   0x000003d4       0x9c AVR32_LIBS/COMPONENTS/TCA6424/tca6424.o
 .debug_frame   0x00000470       0xf0 AVR32_LIBS/DRIVERS/ADC/adc.o
 .debug_frame   0x00000560      0x1ec AVR32_LIBS/DRIVERS/EIC/eic.o
 .debug_frame   0x0000074c      0x760 AVR32_LIBS/DRIVERS/FLASHC/flashc.o
 .debug_frame   0x00000eac      0x25c AVR32_LIBS/DRIVERS/GPIO/gpio.o
 .debug_frame   0x00001108       0x80 AVR32_LIBS/DRIVERS/INTC/intc.o
 .debug_frame   0x00001188      0x208 AVR32_LIBS/DRIVERS/PDCA/pdca.o
 .debug_frame   0x00001390      0x4a8 AVR32_LIBS/DRIVERS/PM/pm.o
 .debug_frame   0x00001838       0x64 AVR32_LIBS/DRIVERS/PM/pm_conf_clocks.o
 .debug_frame   0x0000189c       0xb8 AVR32_LIBS/DRIVERS/PWM/pwm.o
 .debug_frame   0x00001954      0x1b4 AVR32_LIBS/DRIVERS/RTC/rtc.o
 .debug_frame   0x00001b08      0x224 AVR32_LIBS/DRIVERS/SPI/spi.o
 .debug_frame   0x00001d2c      0x110 AVR32_LIBS/DRIVERS/TWI/twi.o
 .debug_frame   0x00001e3c      0x358 AVR32_LIBS/DRIVERS/USART/usart.o
 .debug_frame   0x00002194       0x68 AVR32_LIBS/DRIVERS/USBB/ENUM/DEVICE/usb_device_task.o
 .debug_frame   0x000021fc      0x128 AVR32_LIBS/DRIVERS/USBB/ENUM/DEVICE/usb_standard_request.o
 .debug_frame   0x00002324       0x94 AVR32_LIBS/DRIVERS/USBB/ENUM/usb_task.o
 .debug_frame   0x000023b8       0x80 AVR32_LIBS/DRIVERS/USBB/usb_drv.o
 .debug_frame   0x00002438       0xe0 AVR32_LIBS/DRIVERS/WDT/wdt.o
 .debug_frame   0x00002518       0x48 AVR32_LIBS/SERVICES/DELAY/delay.o
 .debug_frame   0x00002560       0xd4 AVR32_LIBS/SERVICES/FREERTOS/Source/croutine.o
 .debug_frame   0x00002634       0x9c AVR32_LIBS/SERVICES/FREERTOS/Source/list.o
 .debug_frame   0x000026d0      0x180 AVR32_LIBS/SERVICES/FREERTOS/Source/portable/GCC/AVR32_UC3/port.o
 .debug_frame   0x00002850       0x48 AVR32_LIBS/SERVICES/FREERTOS/Source/portable/MemMang/heap_3.o
 .debug_frame   0x00002898      0x1d0 AVR32_LIBS/SERVICES/FREERTOS/Source/queue.o
 .debug_frame   0x00002a68      0x458 AVR32_LIBS/SERVICES/FREERTOS/Source/tasks.o
 .debug_frame   0x00002ec0       0xb8 AVR32_LIBS/SERVICES/USB/CLASS/CDC/EXAMPLES/ENUM/DEVICE/usb_specific_request.o
 .debug_frame   0x00002f78       0xf0 AVR32_LIBS/SERVICES/USB/CLASS/CDC/EXAMPLES/uart_usb_lib.o
 .debug_frame   0x00003068      0x160 spike_fw_update.o
 .debug_frame   0x000031c8       0x70 main.o
 .debug_frame   0x00003238      0x1f4 main_app.o
 .debug_frame   0x0000342c       0x4c security_task.o
 .debug_frame   0x00003478      0x104 terminal/printf-stdarg.o
 .debug_frame   0x0000357c      0x2b4 terminal/usb/usb.o
 .debug_frame   0x00003830       0x48 ../AVR32_LIBS/UTILS/LIBS/NEWLIB_ADDONS/AT32UCR2\libnewlib_addons-at32ucr2-speed_opt.a(cpu.o)
 .debug_frame   0x00003878      0x248 ../AVR32_LIBS/UTILS/LIBS/NEWLIB_ADDONS/AT32UCR2\libnewlib_addons-at32ucr2-speed_opt.a(syscalls.o)
 .debug_frame   0x00003ac0       0x94 ../AVR32_LIBS/UTILS/LIBS/NEWLIB_ADDONS/AT32UCR2\libnewlib_addons-at32ucr2-speed_opt.a(usart.o)
 .debug_frame   0x00003b54       0x6c ../AVR32_LIBS/UTILS/LIBS/NEWLIB_ADDONS/AT32UCR2\libnewlib_addons-at32ucr2-speed_opt.a(exception_handling.o)
 .debug_frame   0x00003bc0       0x44 c:/program files (x86)/atmel/avr studio 5.1/extensions/atmel/avrgcc/3.3.1.27/avrtoolchain/bin/../lib/gcc/avr32/4.4.3/ucr2\libgcc.a(_udivdi3.o)
 .debug_frame   0x00003c04       0x28 c:/program files (x86)/atmel/avr studio 5.1/extensions/atmel/avrgcc/3.3.1.27/avrtoolchain/bin/../lib/gcc/avr32/4.4.3/../../../../avr32/lib/ucr2\libc.a(lib_a-atexit.o)
 .debug_frame   0x00003c2c       0x40 c:/program files (x86)/atmel/avr studio 5.1/extensions/atmel/avrgcc/3.3.1.27/avrtoolchain/bin/../lib/gcc/avr32/4.4.3/../../../../avr32/lib/ucr2\libc.a(lib_a-atoi.o)
 .debug_frame   0x00003c6c       0x20 c:/program files (x86)/atmel/avr studio 5.1/extensions/atmel/avrgcc/3.3.1.27/avrtoolchain/bin/../lib/gcc/avr32/4.4.3/../../../../avr32/lib/ucr2\libc.a(lib_a-errno.o)
 .debug_frame   0x00003c8c       0x34 c:/program files (x86)/atmel/avr studio 5.1/extensions/atmel/avrgcc/3.3.1.27/avrtoolchain/bin/../lib/gcc/avr32/4.4.3/../../../../avr32/lib/ucr2\libc.a(lib_a-exit.o)
 .debug_frame   0x00003cc0       0x4c c:/program files (x86)/atmel/avr studio 5.1/extensions/atmel/avrgcc/3.3.1.27/avrtoolchain/bin/../lib/gcc/avr32/4.4.3/../../../../avr32/lib/ucr2\libc.a(lib_a-fflush.o)
 .debug_frame   0x00003d0c      0x13c c:/program files (x86)/atmel/avr studio 5.1/extensions/atmel/avrgcc/3.3.1.27/avrtoolchain/bin/../lib/gcc/avr32/4.4.3/../../../../avr32/lib/ucr2\libc.a(lib_a-findfp.o)
 .debug_frame   0x00003e48       0x70 c:/program files (x86)/atmel/avr studio 5.1/extensions/atmel/avrgcc/3.3.1.27/avrtoolchain/bin/../lib/gcc/avr32/4.4.3/../../../../avr32/lib/ucr2\libc.a(lib_a-fwalk.o)
 .debug_frame   0x00003eb8       0x40 c:/program files (x86)/atmel/avr studio 5.1/extensions/atmel/avrgcc/3.3.1.27/avrtoolchain/bin/../lib/gcc/avr32/4.4.3/../../../../avr32/lib/ucr2\libc.a(lib_a-malloc.o)
 .debug_frame   0x00003ef8       0x40 c:/program files (x86)/atmel/avr studio 5.1/extensions/atmel/avrgcc/3.3.1.27/avrtoolchain/bin/../lib/gcc/avr32/4.4.3/../../../../avr32/lib/ucr2\libc.a(lib_a-mallocr.o)
 .debug_frame   0x00003f38       0x20 c:/program files (x86)/atmel/avr studio 5.1/extensions/atmel/avrgcc/3.3.1.27/avrtoolchain/bin/../lib/gcc/avr32/4.4.3/../../../../avr32/lib/ucr2\libc.a(lib_a-memset.o)
 .debug_frame   0x00003f58       0x58 c:/program files (x86)/atmel/avr studio 5.1/extensions/atmel/avrgcc/3.3.1.27/avrtoolchain/bin/../lib/gcc/avr32/4.4.3/../../../../avr32/lib/ucr2\libc.a(lib_a-printf.o)
 .debug_frame   0x00003fb0       0x5c c:/program files (x86)/atmel/avr studio 5.1/extensions/atmel/avrgcc/3.3.1.27/avrtoolchain/bin/../lib/gcc/avr32/4.4.3/../../../../avr32/lib/ucr2\libc.a(lib_a-putchar.o)
 .debug_frame   0x0000400c       0x50 c:/program files (x86)/atmel/avr studio 5.1/extensions/atmel/avrgcc/3.3.1.27/avrtoolchain/bin/../lib/gcc/avr32/4.4.3/../../../../avr32/lib/ucr2\libc.a(lib_a-putc.o)
 .debug_frame   0x0000405c       0x58 c:/program files (x86)/atmel/avr studio 5.1/extensions/atmel/avrgcc/3.3.1.27/avrtoolchain/bin/../lib/gcc/avr32/4.4.3/../../../../avr32/lib/ucr2\libc.a(lib_a-rand.o)
 .debug_frame   0x000040b4       0x28 c:/program files (x86)/atmel/avr studio 5.1/extensions/atmel/avrgcc/3.3.1.27/avrtoolchain/bin/../lib/gcc/avr32/4.4.3/../../../../avr32/lib/ucr2\libc.a(lib_a-realloc.o)
 .debug_frame   0x000040dc       0x44 c:/program files (x86)/atmel/avr studio 5.1/extensions/atmel/avrgcc/3.3.1.27/avrtoolchain/bin/../lib/gcc/avr32/4.4.3/../../../../avr32/lib/ucr2\libc.a(lib_a-reallocr.o)
 .debug_frame   0x00004120       0x34 c:/program files (x86)/atmel/avr studio 5.1/extensions/atmel/avrgcc/3.3.1.27/avrtoolchain/bin/../lib/gcc/avr32/4.4.3/../../../../avr32/lib/ucr2\libc.a(lib_a-sbrkr.o)
 .debug_frame   0x00004154       0x48 c:/program files (x86)/atmel/avr studio 5.1/extensions/atmel/avrgcc/3.3.1.27/avrtoolchain/bin/../lib/gcc/avr32/4.4.3/../../../../avr32/lib/ucr2\libc.a(lib_a-sprintf.o)
 .debug_frame   0x0000419c       0x70 c:/program files (x86)/atmel/avr studio 5.1/extensions/atmel/avrgcc/3.3.1.27/avrtoolchain/bin/../lib/gcc/avr32/4.4.3/../../../../avr32/lib/ucr2\libc.a(lib_a-sscanf.o)
 .debug_frame   0x0000420c       0x94 c:/program files (x86)/atmel/avr studio 5.1/extensions/atmel/avrgcc/3.3.1.27/avrtoolchain/bin/../lib/gcc/avr32/4.4.3/../../../../avr32/lib/ucr2\libc.a(lib_a-stdio.o)
 .debug_frame   0x000042a0       0x20 c:/program files (x86)/atmel/avr studio 5.1/extensions/atmel/avrgcc/3.3.1.27/avrtoolchain/bin/../lib/gcc/avr32/4.4.3/../../../../avr32/lib/ucr2\libc.a(lib_a-strcat.o)
 .debug_frame   0x000042c0       0x20 c:/program files (x86)/atmel/avr studio 5.1/extensions/atmel/avrgcc/3.3.1.27/avrtoolchain/bin/../lib/gcc/avr32/4.4.3/../../../../avr32/lib/ucr2\libc.a(lib_a-strlen.o)
 .debug_frame   0x000042e0       0x5c c:/program files (x86)/atmel/avr studio 5.1/extensions/atmel/avrgcc/3.3.1.27/avrtoolchain/bin/../lib/gcc/avr32/4.4.3/../../../../avr32/lib/ucr2\libc.a(lib_a-strtol.o)
 .debug_frame   0x0000433c      0x258 c:/program files (x86)/atmel/avr studio 5.1/extensions/atmel/avrgcc/3.3.1.27/avrtoolchain/bin/../lib/gcc/avr32/4.4.3/../../../../avr32/lib/ucr2\libc.a(lib_a-vfprintf.o)
 .debug_frame   0x00004594       0xb8 c:/program files (x86)/atmel/avr studio 5.1/extensions/atmel/avrgcc/3.3.1.27/avrtoolchain/bin/../lib/gcc/avr32/4.4.3/../../../../avr32/lib/ucr2\libc.a(lib_a-vfscanf.o)
 .debug_frame   0x0000464c       0x44 c:/program files (x86)/atmel/avr studio 5.1/extensions/atmel/avrgcc/3.3.1.27/avrtoolchain/bin/../lib/gcc/avr32/4.4.3/../../../../avr32/lib/ucr2\libc.a(lib_a-vsprintf.o)
 .debug_frame   0x00004690       0x4c c:/program files (x86)/atmel/avr studio 5.1/extensions/atmel/avrgcc/3.3.1.27/avrtoolchain/bin/../lib/gcc/avr32/4.4.3/../../../../avr32/lib/ucr2\libc.a(lib_a-wbuf.o)
 .debug_frame   0x000046dc       0x34 c:/program files (x86)/atmel/avr studio 5.1/extensions/atmel/avrgcc/3.3.1.27/avrtoolchain/bin/../lib/gcc/avr32/4.4.3/../../../../avr32/lib/ucr2\libc.a(lib_a-writer.o)
 .debug_frame   0x00004710       0x34 c:/program files (x86)/atmel/avr studio 5.1/extensions/atmel/avrgcc/3.3.1.27/avrtoolchain/bin/../lib/gcc/avr32/4.4.3/../../../../avr32/lib/ucr2\libc.a(lib_a-wsetup.o)
 .debug_frame   0x00004744       0x40 c:/program files (x86)/atmel/avr studio 5.1/extensions/atmel/avrgcc/3.3.1.27/avrtoolchain/bin/../lib/gcc/avr32/4.4.3/../../../../avr32/lib/ucr2\libc.a(lib_a-__atexit.o)
 .debug_frame   0x00004784       0x44 c:/program files (x86)/atmel/avr studio 5.1/extensions/atmel/avrgcc/3.3.1.27/avrtoolchain/bin/../lib/gcc/avr32/4.4.3/../../../../avr32/lib/ucr2\libc.a(lib_a-__call_atexit.o)
 .debug_frame   0x000047c8       0x34 c:/program files (x86)/atmel/avr studio 5.1/extensions/atmel/avrgcc/3.3.1.27/avrtoolchain/bin/../lib/gcc/avr32/4.4.3/../../../../avr32/lib/ucr2\libc.a(lib_a-closer.o)
 .debug_frame   0x000047fc       0x78 c:/program files (x86)/atmel/avr studio 5.1/extensions/atmel/avrgcc/3.3.1.27/avrtoolchain/bin/../lib/gcc/avr32/4.4.3/../../../../avr32/lib/ucr2\libc.a(lib_a-dtoa.o)
 .debug_frame   0x00004874       0x4c c:/program files (x86)/atmel/avr studio 5.1/extensions/atmel/avrgcc/3.3.1.27/avrtoolchain/bin/../lib/gcc/avr32/4.4.3/../../../../avr32/lib/ucr2\libc.a(lib_a-fclose.o)
 .debug_frame   0x000048c0       0x58 c:/program files (x86)/atmel/avr studio 5.1/extensions/atmel/avrgcc/3.3.1.27/avrtoolchain/bin/../lib/gcc/avr32/4.4.3/../../../../avr32/lib/ucr2\libc.a(lib_a-fread.o)
 .debug_frame   0x00004918       0x58 c:/program files (x86)/atmel/avr studio 5.1/extensions/atmel/avrgcc/3.3.1.27/avrtoolchain/bin/../lib/gcc/avr32/4.4.3/../../../../avr32/lib/ucr2\libc.a(lib_a-freer.o)
 .debug_frame   0x00004970       0x44 c:/program files (x86)/atmel/avr studio 5.1/extensions/atmel/avrgcc/3.3.1.27/avrtoolchain/bin/../lib/gcc/avr32/4.4.3/../../../../avr32/lib/ucr2\libc.a(lib_a-fvwrite.o)
 .debug_frame   0x000049b4       0x20 c:/program files (x86)/atmel/avr studio 5.1/extensions/atmel/avrgcc/3.3.1.27/avrtoolchain/bin/../lib/gcc/avr32/4.4.3/../../../../avr32/lib/ucr2\libc.a(lib_a-iswspace.o)
 .debug_frame   0x000049d4       0x7c c:/program files (x86)/atmel/avr studio 5.1/extensions/atmel/avrgcc/3.3.1.27/avrtoolchain/bin/../lib/gcc/avr32/4.4.3/../../../../avr32/lib/ucr2\libc.a(lib_a-locale.o)
 .debug_frame   0x00004a50       0x34 c:/program files (x86)/atmel/avr studio 5.1/extensions/atmel/avrgcc/3.3.1.27/avrtoolchain/bin/../lib/gcc/avr32/4.4.3/../../../../avr32/lib/ucr2\libc.a(lib_a-lseekr.o)
 .debug_frame   0x00004a84       0x38 c:/program files (x86)/atmel/avr studio 5.1/extensions/atmel/avrgcc/3.3.1.27/avrtoolchain/bin/../lib/gcc/avr32/4.4.3/../../../../avr32/lib/ucr2\libc.a(lib_a-makebuf.o)
 .debug_frame   0x00004abc       0x4c c:/program files (x86)/atmel/avr studio 5.1/extensions/atmel/avrgcc/3.3.1.27/avrtoolchain/bin/../lib/gcc/avr32/4.4.3/../../../../avr32/lib/ucr2\libc.a(lib_a-mbrtowc.o)
 .debug_frame   0x00004b08       0x24 c:/program files (x86)/atmel/avr studio 5.1/extensions/atmel/avrgcc/3.3.1.27/avrtoolchain/bin/../lib/gcc/avr32/4.4.3/../../../../avr32/lib/ucr2\libc.a(lib_a-mbtowc_r.o)
 .debug_frame   0x00004b2c       0x20 c:/program files (x86)/atmel/avr studio 5.1/extensions/atmel/avrgcc/3.3.1.27/avrtoolchain/bin/../lib/gcc/avr32/4.4.3/../../../../avr32/lib/ucr2\libc.a(lib_a-memchr.o)
 .debug_frame   0x00004b4c       0x28 c:/program files (x86)/atmel/avr studio 5.1/extensions/atmel/avrgcc/3.3.1.27/avrtoolchain/bin/../lib/gcc/avr32/4.4.3/../../../../avr32/lib/ucr2\libc.a(lib_a-memmove.o)
 .debug_frame   0x00004b74      0x2b4 c:/program files (x86)/atmel/avr studio 5.1/extensions/atmel/avrgcc/3.3.1.27/avrtoolchain/bin/../lib/gcc/avr32/4.4.3/../../../../avr32/lib/ucr2\libc.a(lib_a-mprec.o)
 .debug_frame   0x00004e28       0x34 c:/program files (x86)/atmel/avr studio 5.1/extensions/atmel/avrgcc/3.3.1.27/avrtoolchain/bin/../lib/gcc/avr32/4.4.3/../../../../avr32/lib/ucr2\libc.a(lib_a-readr.o)
 .debug_frame   0x00004e5c       0x80 c:/program files (x86)/atmel/avr studio 5.1/extensions/atmel/avrgcc/3.3.1.27/avrtoolchain/bin/../lib/gcc/avr32/4.4.3/../../../../avr32/lib/ucr2\libc.a(lib_a-reent.o)
 .debug_frame   0x00004edc       0x4c c:/program files (x86)/atmel/avr studio 5.1/extensions/atmel/avrgcc/3.3.1.27/avrtoolchain/bin/../lib/gcc/avr32/4.4.3/../../../../avr32/lib/ucr2\libc.a(lib_a-refill.o)
 .debug_frame   0x00004f28       0x40 c:/program files (x86)/atmel/avr studio 5.1/extensions/atmel/avrgcc/3.3.1.27/avrtoolchain/bin/../lib/gcc/avr32/4.4.3/../../../../avr32/lib/ucr2\libc.a(lib_a-sccl.o)
 .debug_frame   0x00004f68       0x20 c:/program files (x86)/atmel/avr studio 5.1/extensions/atmel/avrgcc/3.3.1.27/avrtoolchain/bin/../lib/gcc/avr32/4.4.3/../../../../avr32/lib/ucr2\libc.a(lib_a-sf_nan.o)
 .debug_frame   0x00004f88       0x20 c:/program files (x86)/atmel/avr studio 5.1/extensions/atmel/avrgcc/3.3.1.27/avrtoolchain/bin/../lib/gcc/avr32/4.4.3/../../../../avr32/lib/ucr2\libc.a(lib_a-s_isinfd.o)
 .debug_frame   0x00004fa8       0x20 c:/program files (x86)/atmel/avr studio 5.1/extensions/atmel/avrgcc/3.3.1.27/avrtoolchain/bin/../lib/gcc/avr32/4.4.3/../../../../avr32/lib/ucr2\libc.a(lib_a-s_isnand.o)
 .debug_frame   0x00004fc8       0x90 c:/program files (x86)/atmel/avr studio 5.1/extensions/atmel/avrgcc/3.3.1.27/avrtoolchain/bin/../lib/gcc/avr32/4.4.3/../../../../avr32/lib/ucr2\libc.a(lib_a-strtod.o)
 .debug_frame   0x00005058       0x44 c:/program files (x86)/atmel/avr studio 5.1/extensions/atmel/avrgcc/3.3.1.27/avrtoolchain/bin/../lib/gcc/avr32/4.4.3/../../../../avr32/lib/ucr2\libc.a(lib_a-strtoll_r.o)
 .debug_frame   0x0000509c       0x44 c:/program files (x86)/atmel/avr studio 5.1/extensions/atmel/avrgcc/3.3.1.27/avrtoolchain/bin/../lib/gcc/avr32/4.4.3/../../../../avr32/lib/ucr2\libc.a(lib_a-strtoull_r.o)
 .debug_frame   0x000050e0       0x5c c:/program files (x86)/atmel/avr studio 5.1/extensions/atmel/avrgcc/3.3.1.27/avrtoolchain/bin/../lib/gcc/avr32/4.4.3/../../../../avr32/lib/ucr2\libc.a(lib_a-strtoul.o)
 .debug_frame   0x0000513c       0x70 c:/program files (x86)/atmel/avr studio 5.1/extensions/atmel/avrgcc/3.3.1.27/avrtoolchain/bin/../lib/gcc/avr32/4.4.3/../../../../avr32/lib/ucr2\libc.a(lib_a-ungetc.o)
 .debug_frame   0x000051ac       0x34 c:/program files (x86)/atmel/avr studio 5.1/extensions/atmel/avrgcc/3.3.1.27/avrtoolchain/bin/../lib/gcc/avr32/4.4.3/../../../../avr32/lib/ucr2\libc.a(lib_a-callocr.o)
 .debug_frame   0x000051e0       0x34 c:/program files (x86)/atmel/avr studio 5.1/extensions/atmel/avrgcc/3.3.1.27/avrtoolchain/bin/../lib/gcc/avr32/4.4.3/../../../../avr32/lib/ucr2\libc.a(lib_a-fstatr.o)
 .debug_frame   0x00005214       0x78 c:/program files (x86)/atmel/avr studio 5.1/extensions/atmel/avrgcc/3.3.1.27/avrtoolchain/bin/../lib/gcc/avr32/4.4.3/../../../../avr32/lib/ucr2\libc.a(lib_a-gdtoa-gethex.o)
 .debug_frame   0x0000528c       0x44 c:/program files (x86)/atmel/avr studio 5.1/extensions/atmel/avrgcc/3.3.1.27/avrtoolchain/bin/../lib/gcc/avr32/4.4.3/../../../../avr32/lib/ucr2\libc.a(lib_a-gdtoa-hexnan.o)
 .debug_frame   0x000052d0       0x44 c:/program files (x86)/atmel/avr studio 5.1/extensions/atmel/avrgcc/3.3.1.27/avrtoolchain/bin/../lib/gcc/avr32/4.4.3/ucr2\libgcc.a(_umoddi3.o)
 .debug_frame   0x00005314       0x2c c:/program files (x86)/atmel/avr studio 5.1/extensions/atmel/avrgcc/3.3.1.27/avrtoolchain/bin/../lib/gcc/avr32/4.4.3/ucr2/crtend.o

.debug_str      0x00000000     0xba57
 *(.debug_str)
 .debug_str     0x00000000      0x3c9 AVR32_LIBS/COMPONENTS/AD5410/ad5410.o
                                0x46d (size before relaxing)
 .debug_str     0x000003c9      0x718 AVR32_LIBS/COMPONENTS/AT86RF231/at86rf231.o
                                0x843 (size before relaxing)
 .debug_str     0x00000ae1      0x381 AVR32_LIBS/COMPONENTS/AT86RF231/pal_trx_access.o
                                0x829 (size before relaxing)
 .debug_str     0x00000e62      0x216 AVR32_LIBS/COMPONENTS/TCA6424/tca6424.o
                                0x3b8 (size before relaxing)
 .debug_str     0x00001078      0x2da AVR32_LIBS/DRIVERS/ADC/adc.o
                                0x427 (size before relaxing)
 .debug_str     0x00001352      0x1e5 AVR32_LIBS/DRIVERS/EIC/eic.o
                                0x4c9 (size before relaxing)
 .debug_str     0x00001537      0xa49 AVR32_LIBS/DRIVERS/FLASHC/flashc.o
                                0xbf3 (size before relaxing)
 .debug_str     0x00001f80      0x35f AVR32_LIBS/DRIVERS/GPIO/gpio.o
                                0x480 (size before relaxing)
 .debug_str     0x000022df      0x359 AVR32_LIBS/DRIVERS/INTC/intc.o
                                0x469 (size before relaxing)
 .debug_str     0x00002638      0x31d AVR32_LIBS/DRIVERS/PDCA/pdca.o
                                0x46e (size before relaxing)
 .debug_str     0x00002955      0x707 AVR32_LIBS/DRIVERS/PM/pm.o
                                0x91c (size before relaxing)
 .debug_str     0x0000305c       0xae AVR32_LIBS/DRIVERS/PM/pm_conf_clocks.o
                                0x545 (size before relaxing)
 .debug_str     0x0000310a      0x1e0 AVR32_LIBS/DRIVERS/PWM/pwm.o
                                0x325 (size before relaxing)
 .debug_str     0x000032ea      0x1a7 AVR32_LIBS/DRIVERS/RTC/rtc.o
                                0x63e (size before relaxing)
 .debug_str     0x00003491      0x21e AVR32_LIBS/DRIVERS/SPI/spi.o
                                0x58f (size before relaxing)
 .debug_str     0x000036af      0x15a AVR32_LIBS/DRIVERS/TWI/twi.o
                                0x471 (size before relaxing)
 .debug_str     0x00003809      0x6dd AVR32_LIBS/DRIVERS/USART/usart.o
                                0x88b (size before relaxing)
 .debug_str     0x00003ee6     0x2f0a AVR32_LIBS/DRIVERS/USBB/ENUM/DEVICE/usb_device_task.o
                               0x31b3 (size before relaxing)
 .debug_str     0x00006df0      0x3fb AVR32_LIBS/DRIVERS/USBB/ENUM/DEVICE/usb_standard_request.o
                               0x352c (size before relaxing)
 .debug_str     0x000071eb       0xa5 AVR32_LIBS/DRIVERS/USBB/ENUM/usb_task.o
                               0x356d (size before relaxing)
 .debug_str     0x00007290       0xfd AVR32_LIBS/DRIVERS/USBB/usb_drv.o
                               0x326d (size before relaxing)
 .debug_str     0x0000738d       0xa0 AVR32_LIBS/DRIVERS/WDT/wdt.o
                                0x1c3 (size before relaxing)
 .debug_str     0x0000742d       0x41 AVR32_LIBS/SERVICES/DELAY/delay.o
                                0x149 (size before relaxing)
 .debug_str     0x0000746e      0x355 AVR32_LIBS/SERVICES/FREERTOS/Source/croutine.o
                                0x472 (size before relaxing)
 .debug_str     0x000077c3       0xc1 AVR32_LIBS/SERVICES/FREERTOS/Source/list.o
                                0x261 (size before relaxing)
 .debug_str     0x00007884      0x470 AVR32_LIBS/SERVICES/FREERTOS/Source/portable/GCC/AVR32_UC3/port.o
                                0x631 (size before relaxing)
 .debug_str     0x00007cf4       0x58 AVR32_LIBS/SERVICES/FREERTOS/Source/portable/MemMang/heap_3.o
                                0x176 (size before relaxing)
 .debug_str     0x00007d4c      0x30b AVR32_LIBS/SERVICES/FREERTOS/Source/queue.o
                                0x4dd (size before relaxing)
 .debug_str     0x00008057      0x6c7 AVR32_LIBS/SERVICES/FREERTOS/Source/tasks.o
                                0x96b (size before relaxing)
 .debug_str     0x0000871e      0x13e AVR32_LIBS/SERVICES/USB/CLASS/CDC/EXAMPLES/ENUM/DEVICE/usb_descriptors.o
                                0x4a4 (size before relaxing)
 .debug_str     0x0000885c      0x142 AVR32_LIBS/SERVICES/USB/CLASS/CDC/EXAMPLES/ENUM/DEVICE/usb_specific_request.o
                               0x36d6 (size before relaxing)
 .debug_str     0x0000899e      0x105 AVR32_LIBS/SERVICES/USB/CLASS/CDC/EXAMPLES/uart_usb_lib.o
                               0x326c (size before relaxing)
 .debug_str     0x00008aa3      0x257 spike_fw_update.o
                               0x369c (size before relaxing)
 .debug_str     0x00008cfa       0x24 main.o
                                0x49d (size before relaxing)
 .debug_str     0x00008d1e      0x336 main_app.o
                                0x8b0 (size before relaxing)
 .debug_str     0x00009054       0x40 security_task.o
                                0x16d (size before relaxing)
 .debug_str     0x00009094       0x8d terminal/printf-stdarg.o
                                0x540 (size before relaxing)
 .debug_str     0x00009121      0x194 terminal/usb/usb.o
                               0x3898 (size before relaxing)
 .debug_str     0x000092b5      0x126 c:/program files (x86)/atmel/avr studio 5.1/extensions/atmel/avrgcc/3.3.1.27/avrtoolchain/bin/../lib/gcc/avr32/4.4.3/ucr2\libgcc.a(_udivdi3.o)
                                0x1db (size before relaxing)
 .debug_str     0x000093db       0x88 c:/program files (x86)/atmel/avr studio 5.1/extensions/atmel/avrgcc/3.3.1.27/avrtoolchain/bin/../lib/gcc/avr32/4.4.3/../../../../avr32/lib/ucr2\libc.a(lib_a-atexit.o)
                                0x124 (size before relaxing)
 .debug_str     0x00009463       0x63 c:/program files (x86)/atmel/avr studio 5.1/extensions/atmel/avrgcc/3.3.1.27/avrtoolchain/bin/../lib/gcc/avr32/4.4.3/../../../../avr32/lib/ucr2\libc.a(lib_a-atoi.o)
                                0x48e (size before relaxing)
 .debug_str     0x000094c6       0x5e c:/program files (x86)/atmel/avr studio 5.1/extensions/atmel/avrgcc/3.3.1.27/avrtoolchain/bin/../lib/gcc/avr32/4.4.3/../../../../avr32/lib/ucr2\libc.a(lib_a-errno.o)
                                0x495 (size before relaxing)
 .debug_str     0x00009524       0x69 c:/program files (x86)/atmel/avr studio 5.1/extensions/atmel/avrgcc/3.3.1.27/avrtoolchain/bin/../lib/gcc/avr32/4.4.3/../../../../avr32/lib/ucr2\libc.a(lib_a-exit.o)
                                0x49e (size before relaxing)
 .debug_str     0x0000958d       0xae c:/program files (x86)/atmel/avr studio 5.1/extensions/atmel/avrgcc/3.3.1.27/avrtoolchain/bin/../lib/gcc/avr32/4.4.3/../../../../avr32/lib/ucr2\libc.a(lib_a-fflush.o)
                                0x504 (size before relaxing)
 .debug_str     0x0000963b      0x11f c:/program files (x86)/atmel/avr studio 5.1/extensions/atmel/avrgcc/3.3.1.27/avrtoolchain/bin/../lib/gcc/avr32/4.4.3/../../../../avr32/lib/ucr2\libc.a(lib_a-findfp.o)
                                0x5c6 (size before relaxing)
 .debug_str     0x0000975a       0x7b c:/program files (x86)/atmel/avr studio 5.1/extensions/atmel/avrgcc/3.3.1.27/avrtoolchain/bin/../lib/gcc/avr32/4.4.3/../../../../avr32/lib/ucr2\libc.a(lib_a-fwalk.o)
                                0x4c8 (size before relaxing)
 .debug_str     0x000097d5       0x63 c:/program files (x86)/atmel/avr studio 5.1/extensions/atmel/avrgcc/3.3.1.27/avrtoolchain/bin/../lib/gcc/avr32/4.4.3/../../../../avr32/lib/ucr2\libc.a(lib_a-impure.o)
                                0x4ec (size before relaxing)
 .debug_str     0x00009838       0x64 c:/program files (x86)/atmel/avr studio 5.1/extensions/atmel/avrgcc/3.3.1.27/avrtoolchain/bin/../lib/gcc/avr32/4.4.3/../../../../avr32/lib/ucr2\libc.a(lib_a-malloc.o)
                                0x4ae (size before relaxing)
 .debug_str     0x0000989c      0x225 c:/program files (x86)/atmel/avr studio 5.1/extensions/atmel/avrgcc/3.3.1.27/avrtoolchain/bin/../lib/gcc/avr32/4.4.3/../../../../avr32/lib/ucr2\libc.a(lib_a-mallocr.o)
                                0x683 (size before relaxing)
 .debug_str     0x00009ac1       0x5f c:/program files (x86)/atmel/avr studio 5.1/extensions/atmel/avrgcc/3.3.1.27/avrtoolchain/bin/../lib/gcc/avr32/4.4.3/../../../../avr32/lib/ucr2\libc.a(lib_a-memset.o)
                                 0xfb (size before relaxing)
 .debug_str     0x00009b20       0x61 c:/program files (x86)/atmel/avr studio 5.1/extensions/atmel/avrgcc/3.3.1.27/avrtoolchain/bin/../lib/gcc/avr32/4.4.3/../../../../avr32/lib/ucr2\libc.a(lib_a-printf.o)
                                0x4c8 (size before relaxing)
 .debug_str     0x00009b81       0x63 c:/program files (x86)/atmel/avr studio 5.1/extensions/atmel/avrgcc/3.3.1.27/avrtoolchain/bin/../lib/gcc/avr32/4.4.3/../../../../avr32/lib/ucr2\libc.a(lib_a-putchar.o)
                                0x4a2 (size before relaxing)
 .debug_str     0x00009be4       0x62 c:/program files (x86)/atmel/avr studio 5.1/extensions/atmel/avrgcc/3.3.1.27/avrtoolchain/bin/../lib/gcc/avr32/4.4.3/../../../../avr32/lib/ucr2\libc.a(lib_a-putc.o)
                                0x4e4 (size before relaxing)
 .debug_str     0x00009c46       0x5c c:/program files (x86)/atmel/avr studio 5.1/extensions/atmel/avrgcc/3.3.1.27/avrtoolchain/bin/../lib/gcc/avr32/4.4.3/../../../../avr32/lib/ucr2\libc.a(lib_a-rand.o)
                                0x49d (size before relaxing)
 .debug_str     0x00009ca2       0x61 c:/program files (x86)/atmel/avr studio 5.1/extensions/atmel/avrgcc/3.3.1.27/avrtoolchain/bin/../lib/gcc/avr32/4.4.3/../../../../avr32/lib/ucr2\libc.a(lib_a-realloc.o)
                                0x4a6 (size before relaxing)
 .debug_str     0x00009d03       0x61 c:/program files (x86)/atmel/avr studio 5.1/extensions/atmel/avrgcc/3.3.1.27/avrtoolchain/bin/../lib/gcc/avr32/4.4.3/../../../../avr32/lib/ucr2\libc.a(lib_a-reallocr.o)
                                0x555 (size before relaxing)
 .debug_str     0x00009d64       0x6d c:/program files (x86)/atmel/avr studio 5.1/extensions/atmel/avrgcc/3.3.1.27/avrtoolchain/bin/../lib/gcc/avr32/4.4.3/../../../../avr32/lib/ucr2\libc.a(lib_a-sbrkr.o)
                                0x49e (size before relaxing)
 .debug_str     0x00009dd1       0x63 c:/program files (x86)/atmel/avr studio 5.1/extensions/atmel/avrgcc/3.3.1.27/avrtoolchain/bin/../lib/gcc/avr32/4.4.3/../../../../avr32/lib/ucr2\libc.a(lib_a-sprintf.o)
                                0x4d0 (size before relaxing)
 .debug_str     0x00009e34       0x70 c:/program files (x86)/atmel/avr studio 5.1/extensions/atmel/avrgcc/3.3.1.27/avrtoolchain/bin/../lib/gcc/avr32/4.4.3/../../../../avr32/lib/ucr2\libc.a(lib_a-sscanf.o)
                                0x4dc (size before relaxing)
 .debug_str     0x00009ea4       0x86 c:/program files (x86)/atmel/avr studio 5.1/extensions/atmel/avrgcc/3.3.1.27/avrtoolchain/bin/../lib/gcc/avr32/4.4.3/../../../../avr32/lib/ucr2\libc.a(lib_a-stdio.o)
                                0x4c4 (size before relaxing)
 .debug_str     0x00009f2a       0x5f c:/program files (x86)/atmel/avr studio 5.1/extensions/atmel/avrgcc/3.3.1.27/avrtoolchain/bin/../lib/gcc/avr32/4.4.3/../../../../avr32/lib/ucr2\libc.a(lib_a-strcat.o)
                                 0xf4 (size before relaxing)
 .debug_str     0x00009f89       0x5f c:/program files (x86)/atmel/avr studio 5.1/extensions/atmel/avrgcc/3.3.1.27/avrtoolchain/bin/../lib/gcc/avr32/4.4.3/../../../../avr32/lib/ucr2\libc.a(lib_a-strlen.o)
                                0x101 (size before relaxing)
 .debug_str     0x00009fe8       0x8f c:/program files (x86)/atmel/avr studio 5.1/extensions/atmel/avrgcc/3.3.1.27/avrtoolchain/bin/../lib/gcc/avr32/4.4.3/../../../../avr32/lib/ucr2\libc.a(lib_a-strtol.o)
                                0x4d0 (size before relaxing)
 .debug_str     0x0000a077      0x3b9 c:/program files (x86)/atmel/avr studio 5.1/extensions/atmel/avrgcc/3.3.1.27/avrtoolchain/bin/../lib/gcc/avr32/4.4.3/../../../../avr32/lib/ucr2\libc.a(lib_a-vfprintf.o)
                                0x983 (size before relaxing)
 .debug_str     0x0000a430      0x15a c:/program files (x86)/atmel/avr studio 5.1/extensions/atmel/avrgcc/3.3.1.27/avrtoolchain/bin/../lib/gcc/avr32/4.4.3/../../../../avr32/lib/ucr2\libc.a(lib_a-vfscanf.o)
                                0x6a9 (size before relaxing)
 .debug_str     0x0000a58a       0x6e c:/program files (x86)/atmel/avr studio 5.1/extensions/atmel/avrgcc/3.3.1.27/avrtoolchain/bin/../lib/gcc/avr32/4.4.3/../../../../avr32/lib/ucr2\libc.a(lib_a-vsprintf.o)
                                0x4d3 (size before relaxing)
 .debug_str     0x0000a5f8       0x67 c:/program files (x86)/atmel/avr studio 5.1/extensions/atmel/avrgcc/3.3.1.27/avrtoolchain/bin/../lib/gcc/avr32/4.4.3/../../../../avr32/lib/ucr2\libc.a(lib_a-wbuf.o)
                                0x4e2 (size before relaxing)
 .debug_str     0x0000a65f       0x69 c:/program files (x86)/atmel/avr studio 5.1/extensions/atmel/avrgcc/3.3.1.27/avrtoolchain/bin/../lib/gcc/avr32/4.4.3/../../../../avr32/lib/ucr2\libc.a(lib_a-writer.o)
                                0x4a1 (size before relaxing)
 .debug_str     0x0000a6c8       0x63 c:/program files (x86)/atmel/avr studio 5.1/extensions/atmel/avrgcc/3.3.1.27/avrtoolchain/bin/../lib/gcc/avr32/4.4.3/../../../../avr32/lib/ucr2\libc.a(lib_a-wsetup.o)
                                0x4de (size before relaxing)
 .debug_str     0x0000a72b       0x6e c:/program files (x86)/atmel/avr studio 5.1/extensions/atmel/avrgcc/3.3.1.27/avrtoolchain/bin/../lib/gcc/avr32/4.4.3/../../../../avr32/lib/ucr2\libc.a(lib_a-__atexit.o)
                                0x4eb (size before relaxing)
 .debug_str     0x0000a799       0x7e c:/program files (x86)/atmel/avr studio 5.1/extensions/atmel/avrgcc/3.3.1.27/avrtoolchain/bin/../lib/gcc/avr32/4.4.3/../../../../avr32/lib/ucr2\libc.a(lib_a-__call_atexit.o)
                                0x4c6 (size before relaxing)
 .debug_str     0x0000a817       0x60 c:/program files (x86)/atmel/avr studio 5.1/extensions/atmel/avrgcc/3.3.1.27/avrtoolchain/bin/../lib/gcc/avr32/4.4.3/../../../../avr32/lib/ucr2\libc.a(lib_a-closer.o)
                                0x491 (size before relaxing)
 .debug_str     0x0000a877       0x5f c:/program files (x86)/atmel/avr studio 5.1/extensions/atmel/avrgcc/3.3.1.27/avrtoolchain/bin/../lib/gcc/avr32/4.4.3/../../../../avr32/lib/ucr2\libc.a(lib_a-ctype_.o)
                                 0x7c (size before relaxing)
 .debug_str     0x0000a8d6      0x119 c:/program files (x86)/atmel/avr studio 5.1/extensions/atmel/avrgcc/3.3.1.27/avrtoolchain/bin/../lib/gcc/avr32/4.4.3/../../../../avr32/lib/ucr2\libc.a(lib_a-dtoa.o)
                                0x593 (size before relaxing)
 .debug_str     0x0000a9ef       0x68 c:/program files (x86)/atmel/avr studio 5.1/extensions/atmel/avrgcc/3.3.1.27/avrtoolchain/bin/../lib/gcc/avr32/4.4.3/../../../../avr32/lib/ucr2\libc.a(lib_a-fclose.o)
                                0x4e8 (size before relaxing)
 .debug_str     0x0000aa57       0x5f c:/program files (x86)/atmel/avr studio 5.1/extensions/atmel/avrgcc/3.3.1.27/avrtoolchain/bin/../lib/gcc/avr32/4.4.3/../../../../avr32/lib/ucr2\libc.a(lib_a-fread.o)
                                0x4fe (size before relaxing)
 .debug_str     0x0000aab6       0x3c c:/program files (x86)/atmel/avr studio 5.1/extensions/atmel/avrgcc/3.3.1.27/avrtoolchain/bin/../lib/gcc/avr32/4.4.3/../../../../avr32/lib/ucr2\libc.a(lib_a-freer.o)
                                0x5d5 (size before relaxing)
 .debug_str     0x0000aaf2       0x7b c:/program files (x86)/atmel/avr studio 5.1/extensions/atmel/avrgcc/3.3.1.27/avrtoolchain/bin/../lib/gcc/avr32/4.4.3/../../../../avr32/lib/ucr2\libc.a(lib_a-fvwrite.o)
                                0x4f6 (size before relaxing)
 .debug_str     0x0000ab6d       0x75 c:/program files (x86)/atmel/avr studio 5.1/extensions/atmel/avrgcc/3.3.1.27/avrtoolchain/bin/../lib/gcc/avr32/4.4.3/../../../../avr32/lib/ucr2\libc.a(lib_a-iswspace.o)
                                0x11d (size before relaxing)
 .debug_str     0x0000abe2      0x19e c:/program files (x86)/atmel/avr studio 5.1/extensions/atmel/avrgcc/3.3.1.27/avrtoolchain/bin/../lib/gcc/avr32/4.4.3/../../../../avr32/lib/ucr2\libc.a(lib_a-locale.o)
                                0x63b (size before relaxing)
 .debug_str     0x0000ad80       0x60 c:/program files (x86)/atmel/avr studio 5.1/extensions/atmel/avrgcc/3.3.1.27/avrtoolchain/bin/../lib/gcc/avr32/4.4.3/../../../../avr32/lib/ucr2\libc.a(lib_a-lseekr.o)
                                0x49f (size before relaxing)
 .debug_str     0x0000ade0      0x132 c:/program files (x86)/atmel/avr studio 5.1/extensions/atmel/avrgcc/3.3.1.27/avrtoolchain/bin/../lib/gcc/avr32/4.4.3/../../../../avr32/lib/ucr2\libc.a(lib_a-makebuf.o)
                                0x599 (size before relaxing)
 .debug_str     0x0000af12       0x6c c:/program files (x86)/atmel/avr studio 5.1/extensions/atmel/avrgcc/3.3.1.27/avrtoolchain/bin/../lib/gcc/avr32/4.4.3/../../../../avr32/lib/ucr2\libc.a(lib_a-mbrtowc.o)
                                0x4c3 (size before relaxing)
 .debug_str     0x0000af7e       0x64 c:/program files (x86)/atmel/avr studio 5.1/extensions/atmel/avrgcc/3.3.1.27/avrtoolchain/bin/../lib/gcc/avr32/4.4.3/../../../../avr32/lib/ucr2\libc.a(lib_a-mbtowc_r.o)
                                0x4b4 (size before relaxing)
 .debug_str     0x0000afe2       0x68 c:/program files (x86)/atmel/avr studio 5.1/extensions/atmel/avrgcc/3.3.1.27/avrtoolchain/bin/../lib/gcc/avr32/4.4.3/../../../../avr32/lib/ucr2\libc.a(lib_a-memchr.o)
                                0x10b (size before relaxing)
 .debug_str     0x0000b04a       0x6a c:/program files (x86)/atmel/avr studio 5.1/extensions/atmel/avrgcc/3.3.1.27/avrtoolchain/bin/../lib/gcc/avr32/4.4.3/../../../../avr32/lib/ucr2\libc.a(lib_a-memmove.o)
                                0x116 (size before relaxing)
 .debug_str     0x0000b0b4      0x115 c:/program files (x86)/atmel/avr studio 5.1/extensions/atmel/avrgcc/3.3.1.27/avrtoolchain/bin/../lib/gcc/avr32/4.4.3/../../../../avr32/lib/ucr2\libc.a(lib_a-mprec.o)
                                0x5a0 (size before relaxing)
 .debug_str     0x0000b1c9       0x5e c:/program files (x86)/atmel/avr studio 5.1/extensions/atmel/avrgcc/3.3.1.27/avrtoolchain/bin/../lib/gcc/avr32/4.4.3/../../../../avr32/lib/ucr2\libc.a(lib_a-readr.o)
                                0x49f (size before relaxing)
 .debug_str     0x0000b227       0x90 c:/program files (x86)/atmel/avr studio 5.1/extensions/atmel/avrgcc/3.3.1.27/avrtoolchain/bin/../lib/gcc/avr32/4.4.3/../../../../avr32/lib/ucr2\libc.a(lib_a-reent.o)
                                0x4d2 (size before relaxing)
 .debug_str     0x0000b2b7       0x6a c:/program files (x86)/atmel/avr studio 5.1/extensions/atmel/avrgcc/3.3.1.27/avrtoolchain/bin/../lib/gcc/avr32/4.4.3/../../../../avr32/lib/ucr2\libc.a(lib_a-refill.o)
                                0x4ec (size before relaxing)
 .debug_str     0x0000b321       0x6c c:/program files (x86)/atmel/avr studio 5.1/extensions/atmel/avrgcc/3.3.1.27/avrtoolchain/bin/../lib/gcc/avr32/4.4.3/../../../../avr32/lib/ucr2\libc.a(lib_a-sccl.o)
                                0x101 (size before relaxing)
 .debug_str     0x0000b38d       0x64 c:/program files (x86)/atmel/avr studio 5.1/extensions/atmel/avrgcc/3.3.1.27/avrtoolchain/bin/../lib/gcc/avr32/4.4.3/../../../../avr32/lib/ucr2\libc.a(lib_a-sf_nan.o)
                                0x112 (size before relaxing)
 .debug_str     0x0000b3f1       0x8f c:/program files (x86)/atmel/avr studio 5.1/extensions/atmel/avrgcc/3.3.1.27/avrtoolchain/bin/../lib/gcc/avr32/4.4.3/../../../../avr32/lib/ucr2\libc.a(lib_a-s_isinfd.o)
                                0x14e (size before relaxing)
 .debug_str     0x0000b480       0x63 c:/program files (x86)/atmel/avr studio 5.1/extensions/atmel/avrgcc/3.3.1.27/avrtoolchain/bin/../lib/gcc/avr32/4.4.3/../../../../avr32/lib/ucr2\libc.a(lib_a-s_isnand.o)
                                0x14e (size before relaxing)
 .debug_str     0x0000b4e3      0x1db c:/program files (x86)/atmel/avr studio 5.1/extensions/atmel/avrgcc/3.3.1.27/avrtoolchain/bin/../lib/gcc/avr32/4.4.3/../../../../avr32/lib/ucr2\libc.a(lib_a-strtod.o)
                                0x67d (size before relaxing)
 .debug_str     0x0000b6be       0x66 c:/program files (x86)/atmel/avr studio 5.1/extensions/atmel/avrgcc/3.3.1.27/avrtoolchain/bin/../lib/gcc/avr32/4.4.3/../../../../avr32/lib/ucr2\libc.a(lib_a-strtoll_r.o)
                                0x4c1 (size before relaxing)
 .debug_str     0x0000b724       0x68 c:/program files (x86)/atmel/avr studio 5.1/extensions/atmel/avrgcc/3.3.1.27/avrtoolchain/bin/../lib/gcc/avr32/4.4.3/../../../../avr32/lib/ucr2\libc.a(lib_a-strtoull_r.o)
                                0x4c3 (size before relaxing)
 .debug_str     0x0000b78c       0x6c c:/program files (x86)/atmel/avr studio 5.1/extensions/atmel/avrgcc/3.3.1.27/avrtoolchain/bin/../lib/gcc/avr32/4.4.3/../../../../avr32/lib/ucr2\libc.a(lib_a-strtoul.o)
                                0x4d3 (size before relaxing)
 .debug_str     0x0000b7f8       0x72 c:/program files (x86)/atmel/avr studio 5.1/extensions/atmel/avrgcc/3.3.1.27/avrtoolchain/bin/../lib/gcc/avr32/4.4.3/../../../../avr32/lib/ucr2\libc.a(lib_a-ungetc.o)
                                0x4f2 (size before relaxing)
 .debug_str     0x0000b86a       0x19 c:/program files (x86)/atmel/avr studio 5.1/extensions/atmel/avrgcc/3.3.1.27/avrtoolchain/bin/../lib/gcc/avr32/4.4.3/../../../../avr32/lib/ucr2\libc.a(lib_a-callocr.o)
                                0x4d4 (size before relaxing)
 .debug_str     0x0000b883       0x66 c:/program files (x86)/atmel/avr studio 5.1/extensions/atmel/avrgcc/3.3.1.27/avrtoolchain/bin/../lib/gcc/avr32/4.4.3/../../../../avr32/lib/ucr2\libc.a(lib_a-fstatr.o)
                                0x584 (size before relaxing)
 .debug_str     0x0000b8e9       0xf5 c:/program files (x86)/atmel/avr studio 5.1/extensions/atmel/avrgcc/3.3.1.27/avrtoolchain/bin/../lib/gcc/avr32/4.4.3/../../../../avr32/lib/ucr2\libc.a(lib_a-gdtoa-gethex.o)
                                0x652 (size before relaxing)
 .debug_str     0x0000b9de       0x6f c:/program files (x86)/atmel/avr studio 5.1/extensions/atmel/avrgcc/3.3.1.27/avrtoolchain/bin/../lib/gcc/avr32/4.4.3/../../../../avr32/lib/ucr2\libc.a(lib_a-gdtoa-hexnan.o)
                                0x22a (size before relaxing)
 .debug_str     0x0000ba4d        0xa c:/program files (x86)/atmel/avr studio 5.1/extensions/atmel/avrgcc/3.3.1.27/avrtoolchain/bin/../lib/gcc/avr32/4.4.3/ucr2\libgcc.a(_umoddi3.o)
                                0x1db (size before relaxing)

.debug_loc      0x00000000    0x10b7f
 *(.debug_loc)
 .debug_loc     0x00000000      0x158 AVR32_LIBS/COMPONENTS/AD5410/ad5410.o
 .debug_loc     0x00000158      0x1d9 AVR32_LIBS/COMPONENTS/AT86RF231/at86rf231.o
 .debug_loc     0x00000331      0x1d9 AVR32_LIBS/COMPONENTS/AT86RF231/pal_trx_access.o
 .debug_loc     0x0000050a       0xd7 AVR32_LIBS/COMPONENTS/TCA6424/tca6424.o
 .debug_loc     0x000005e1      0x158 AVR32_LIBS/DRIVERS/ADC/adc.o
 .debug_loc     0x00000739      0x2db AVR32_LIBS/DRIVERS/EIC/eic.o
 .debug_loc     0x00000a14      0xac0 AVR32_LIBS/DRIVERS/FLASHC/flashc.o
 .debug_loc     0x000014d4      0x387 AVR32_LIBS/DRIVERS/GPIO/gpio.o
 .debug_loc     0x0000185b       0xac AVR32_LIBS/DRIVERS/INTC/intc.o
 .debug_loc     0x00001907      0x306 AVR32_LIBS/DRIVERS/PDCA/pdca.o
 .debug_loc     0x00001c0d      0x70e AVR32_LIBS/DRIVERS/PM/pm.o
 .debug_loc     0x0000231b       0x56 AVR32_LIBS/DRIVERS/PM/pm_conf_clocks.o
 .debug_loc     0x00002371      0x102 AVR32_LIBS/DRIVERS/PWM/pwm.o
 .debug_loc     0x00002473      0x285 AVR32_LIBS/DRIVERS/RTC/rtc.o
 .debug_loc     0x000026f8      0x331 AVR32_LIBS/DRIVERS/SPI/spi.o
 .debug_loc     0x00002a29      0x183 AVR32_LIBS/DRIVERS/TWI/twi.o
 .debug_loc     0x00002bac      0x50a AVR32_LIBS/DRIVERS/USART/usart.o
 .debug_loc     0x000030b6       0x81 AVR32_LIBS/DRIVERS/USBB/ENUM/DEVICE/usb_device_task.o
 .debug_loc     0x00003137      0x1ae AVR32_LIBS/DRIVERS/USBB/ENUM/DEVICE/usb_standard_request.o
 .debug_loc     0x000032e5       0xac AVR32_LIBS/DRIVERS/USBB/ENUM/usb_task.o
 .debug_loc     0x00003391       0xac AVR32_LIBS/DRIVERS/USBB/usb_drv.o
 .debug_loc     0x0000343d      0x12d AVR32_LIBS/DRIVERS/WDT/wdt.o
 .debug_loc     0x0000356a       0x56 AVR32_LIBS/SERVICES/DELAY/delay.o
 .debug_loc     0x000035c0      0x12d AVR32_LIBS/SERVICES/FREERTOS/Source/croutine.o
 .debug_loc     0x000036ed       0xd7 AVR32_LIBS/SERVICES/FREERTOS/Source/list.o
 .debug_loc     0x000037c4      0x204 AVR32_LIBS/SERVICES/FREERTOS/Source/portable/GCC/AVR32_UC3/port.o
 .debug_loc     0x000039c8       0x56 AVR32_LIBS/SERVICES/FREERTOS/Source/portable/MemMang/heap_3.o
 .debug_loc     0x00003a1e      0x2b0 AVR32_LIBS/SERVICES/FREERTOS/Source/queue.o
 .debug_loc     0x00003cce      0x662 AVR32_LIBS/SERVICES/FREERTOS/Source/tasks.o
 .debug_loc     0x00004330      0x102 AVR32_LIBS/SERVICES/USB/CLASS/CDC/EXAMPLES/ENUM/DEVICE/usb_specific_request.o
 .debug_loc     0x00004432      0x158 AVR32_LIBS/SERVICES/USB/CLASS/CDC/EXAMPLES/uart_usb_lib.o
 .debug_loc     0x0000458a      0x183 spike_fw_update.o
 .debug_loc     0x0000470d       0x81 main.o
 .debug_loc     0x0000478e      0x285 main_app.o
 .debug_loc     0x00004a13       0x56 security_task.o
 .debug_loc     0x00004a69      0x12d terminal/printf-stdarg.o
 .debug_loc     0x00004b96      0x25a terminal/usb/usb.o
 .debug_loc     0x00004df0      0x6d9 c:/program files (x86)/atmel/avr studio 5.1/extensions/atmel/avrgcc/3.3.1.27/avrtoolchain/bin/../lib/gcc/avr32/4.4.3/ucr2\libgcc.a(_udivdi3.o)
 .debug_loc     0x000054c9       0x32 c:/program files (x86)/atmel/avr studio 5.1/extensions/atmel/avrgcc/3.3.1.27/avrtoolchain/bin/../lib/gcc/avr32/4.4.3/../../../../avr32/lib/ucr2\libc.a(lib_a-atexit.o)
 .debug_loc     0x000054fb       0x77 c:/program files (x86)/atmel/avr studio 5.1/extensions/atmel/avrgcc/3.3.1.27/avrtoolchain/bin/../lib/gcc/avr32/4.4.3/../../../../avr32/lib/ucr2\libc.a(lib_a-atoi.o)
 .debug_loc     0x00005572       0x3d c:/program files (x86)/atmel/avr studio 5.1/extensions/atmel/avrgcc/3.3.1.27/avrtoolchain/bin/../lib/gcc/avr32/4.4.3/../../../../avr32/lib/ucr2\libc.a(lib_a-exit.o)
 .debug_loc     0x000055af      0x13f c:/program files (x86)/atmel/avr studio 5.1/extensions/atmel/avrgcc/3.3.1.27/avrtoolchain/bin/../lib/gcc/avr32/4.4.3/../../../../avr32/lib/ucr2\libc.a(lib_a-fflush.o)
 .debug_loc     0x000056ee      0x202 c:/program files (x86)/atmel/avr studio 5.1/extensions/atmel/avrgcc/3.3.1.27/avrtoolchain/bin/../lib/gcc/avr32/4.4.3/../../../../avr32/lib/ucr2\libc.a(lib_a-findfp.o)
 .debug_loc     0x000058f0       0xe7 c:/program files (x86)/atmel/avr studio 5.1/extensions/atmel/avrgcc/3.3.1.27/avrtoolchain/bin/../lib/gcc/avr32/4.4.3/../../../../avr32/lib/ucr2\libc.a(lib_a-fwalk.o)
 .debug_loc     0x000059d7       0x64 c:/program files (x86)/atmel/avr studio 5.1/extensions/atmel/avrgcc/3.3.1.27/avrtoolchain/bin/../lib/gcc/avr32/4.4.3/../../../../avr32/lib/ucr2\libc.a(lib_a-malloc.o)
 .debug_loc     0x00005a3b      0x5a5 c:/program files (x86)/atmel/avr studio 5.1/extensions/atmel/avrgcc/3.3.1.27/avrtoolchain/bin/../lib/gcc/avr32/4.4.3/../../../../avr32/lib/ucr2\libc.a(lib_a-mallocr.o)
 .debug_loc     0x00005fe0       0x98 c:/program files (x86)/atmel/avr studio 5.1/extensions/atmel/avrgcc/3.3.1.27/avrtoolchain/bin/../lib/gcc/avr32/4.4.3/../../../../avr32/lib/ucr2\libc.a(lib_a-printf.o)
 .debug_loc     0x00006078       0xa4 c:/program files (x86)/atmel/avr studio 5.1/extensions/atmel/avrgcc/3.3.1.27/avrtoolchain/bin/../lib/gcc/avr32/4.4.3/../../../../avr32/lib/ucr2\libc.a(lib_a-putchar.o)
 .debug_loc     0x0000611c       0xfe c:/program files (x86)/atmel/avr studio 5.1/extensions/atmel/avrgcc/3.3.1.27/avrtoolchain/bin/../lib/gcc/avr32/4.4.3/../../../../avr32/lib/ucr2\libc.a(lib_a-putc.o)
 .debug_loc     0x0000621a       0x6f c:/program files (x86)/atmel/avr studio 5.1/extensions/atmel/avrgcc/3.3.1.27/avrtoolchain/bin/../lib/gcc/avr32/4.4.3/../../../../avr32/lib/ucr2\libc.a(lib_a-rand.o)
 .debug_loc     0x00006289       0x45 c:/program files (x86)/atmel/avr studio 5.1/extensions/atmel/avrgcc/3.3.1.27/avrtoolchain/bin/../lib/gcc/avr32/4.4.3/../../../../avr32/lib/ucr2\libc.a(lib_a-realloc.o)
 .debug_loc     0x000062ce      0x56e c:/program files (x86)/atmel/avr studio 5.1/extensions/atmel/avrgcc/3.3.1.27/avrtoolchain/bin/../lib/gcc/avr32/4.4.3/../../../../avr32/lib/ucr2\libc.a(lib_a-reallocr.o)
 .debug_loc     0x0000683c       0x63 c:/program files (x86)/atmel/avr studio 5.1/extensions/atmel/avrgcc/3.3.1.27/avrtoolchain/bin/../lib/gcc/avr32/4.4.3/../../../../avr32/lib/ucr2\libc.a(lib_a-sbrkr.o)
 .debug_loc     0x0000689f       0xb7 c:/program files (x86)/atmel/avr studio 5.1/extensions/atmel/avrgcc/3.3.1.27/avrtoolchain/bin/../lib/gcc/avr32/4.4.3/../../../../avr32/lib/ucr2\libc.a(lib_a-sprintf.o)
 .debug_loc     0x00006956       0xe0 c:/program files (x86)/atmel/avr studio 5.1/extensions/atmel/avrgcc/3.3.1.27/avrtoolchain/bin/../lib/gcc/avr32/4.4.3/../../../../avr32/lib/ucr2\libc.a(lib_a-sscanf.o)
 .debug_loc     0x00006a36      0x1ee c:/program files (x86)/atmel/avr studio 5.1/extensions/atmel/avrgcc/3.3.1.27/avrtoolchain/bin/../lib/gcc/avr32/4.4.3/../../../../avr32/lib/ucr2\libc.a(lib_a-stdio.o)
 .debug_loc     0x00006c24       0x1e c:/program files (x86)/atmel/avr studio 5.1/extensions/atmel/avrgcc/3.3.1.27/avrtoolchain/bin/../lib/gcc/avr32/4.4.3/../../../../avr32/lib/ucr2\libc.a(lib_a-strcat.o)
 .debug_loc     0x00006c42       0x1e c:/program files (x86)/atmel/avr studio 5.1/extensions/atmel/avrgcc/3.3.1.27/avrtoolchain/bin/../lib/gcc/avr32/4.4.3/../../../../avr32/lib/ucr2\libc.a(lib_a-strlen.o)
 .debug_loc     0x00006c60      0x176 c:/program files (x86)/atmel/avr studio 5.1/extensions/atmel/avrgcc/3.3.1.27/avrtoolchain/bin/../lib/gcc/avr32/4.4.3/../../../../avr32/lib/ucr2\libc.a(lib_a-strtol.o)
 .debug_loc     0x00006dd6     0x2f89 c:/program files (x86)/atmel/avr studio 5.1/extensions/atmel/avrgcc/3.3.1.27/avrtoolchain/bin/../lib/gcc/avr32/4.4.3/../../../../avr32/lib/ucr2\libc.a(lib_a-vfprintf.o)
 .debug_loc     0x00009d5f     0x13f6 c:/program files (x86)/atmel/avr studio 5.1/extensions/atmel/avrgcc/3.3.1.27/avrtoolchain/bin/../lib/gcc/avr32/4.4.3/../../../../avr32/lib/ucr2\libc.a(lib_a-vfscanf.o)
 .debug_loc     0x0000b155       0xd0 c:/program files (x86)/atmel/avr studio 5.1/extensions/atmel/avrgcc/3.3.1.27/avrtoolchain/bin/../lib/gcc/avr32/4.4.3/../../../../avr32/lib/ucr2\libc.a(lib_a-vsprintf.o)
 .debug_loc     0x0000b225       0xe7 c:/program files (x86)/atmel/avr studio 5.1/extensions/atmel/avrgcc/3.3.1.27/avrtoolchain/bin/../lib/gcc/avr32/4.4.3/../../../../avr32/lib/ucr2\libc.a(lib_a-wbuf.o)
 .debug_loc     0x0000b30c       0x94 c:/program files (x86)/atmel/avr studio 5.1/extensions/atmel/avrgcc/3.3.1.27/avrtoolchain/bin/../lib/gcc/avr32/4.4.3/../../../../avr32/lib/ucr2\libc.a(lib_a-writer.o)
 .debug_loc     0x0000b3a0       0x5b c:/program files (x86)/atmel/avr studio 5.1/extensions/atmel/avrgcc/3.3.1.27/avrtoolchain/bin/../lib/gcc/avr32/4.4.3/../../../../avr32/lib/ucr2\libc.a(lib_a-wsetup.o)
 .debug_loc     0x0000b3fb       0xe9 c:/program files (x86)/atmel/avr studio 5.1/extensions/atmel/avrgcc/3.3.1.27/avrtoolchain/bin/../lib/gcc/avr32/4.4.3/../../../../avr32/lib/ucr2\libc.a(lib_a-__atexit.o)
 .debug_loc     0x0000b4e4       0xf0 c:/program files (x86)/atmel/avr studio 5.1/extensions/atmel/avrgcc/3.3.1.27/avrtoolchain/bin/../lib/gcc/avr32/4.4.3/../../../../avr32/lib/ucr2\libc.a(lib_a-__call_atexit.o)
 .debug_loc     0x0000b5d4       0x63 c:/program files (x86)/atmel/avr studio 5.1/extensions/atmel/avrgcc/3.3.1.27/avrtoolchain/bin/../lib/gcc/avr32/4.4.3/../../../../avr32/lib/ucr2\libc.a(lib_a-closer.o)
 .debug_loc     0x0000b637      0xb95 c:/program files (x86)/atmel/avr studio 5.1/extensions/atmel/avrgcc/3.3.1.27/avrtoolchain/bin/../lib/gcc/avr32/4.4.3/../../../../avr32/lib/ucr2\libc.a(lib_a-dtoa.o)
 .debug_loc     0x0000c1cc       0xb6 c:/program files (x86)/atmel/avr studio 5.1/extensions/atmel/avrgcc/3.3.1.27/avrtoolchain/bin/../lib/gcc/avr32/4.4.3/../../../../avr32/lib/ucr2\libc.a(lib_a-fclose.o)
 .debug_loc     0x0000c282      0x180 c:/program files (x86)/atmel/avr studio 5.1/extensions/atmel/avrgcc/3.3.1.27/avrtoolchain/bin/../lib/gcc/avr32/4.4.3/../../../../avr32/lib/ucr2\libc.a(lib_a-fread.o)
 .debug_loc     0x0000c402      0x384 c:/program files (x86)/atmel/avr studio 5.1/extensions/atmel/avrgcc/3.3.1.27/avrtoolchain/bin/../lib/gcc/avr32/4.4.3/../../../../avr32/lib/ucr2\libc.a(lib_a-freer.o)
 .debug_loc     0x0000c786      0x28e c:/program files (x86)/atmel/avr studio 5.1/extensions/atmel/avrgcc/3.3.1.27/avrtoolchain/bin/../lib/gcc/avr32/4.4.3/../../../../avr32/lib/ucr2\libc.a(lib_a-fvwrite.o)
 .debug_loc     0x0000ca14       0x1e c:/program files (x86)/atmel/avr studio 5.1/extensions/atmel/avrgcc/3.3.1.27/avrtoolchain/bin/../lib/gcc/avr32/4.4.3/../../../../avr32/lib/ucr2\libc.a(lib_a-iswspace.o)
 .debug_loc     0x0000ca32       0xd1 c:/program files (x86)/atmel/avr studio 5.1/extensions/atmel/avrgcc/3.3.1.27/avrtoolchain/bin/../lib/gcc/avr32/4.4.3/../../../../avr32/lib/ucr2\libc.a(lib_a-locale.o)
 .debug_loc     0x0000cb03       0x94 c:/program files (x86)/atmel/avr studio 5.1/extensions/atmel/avrgcc/3.3.1.27/avrtoolchain/bin/../lib/gcc/avr32/4.4.3/../../../../avr32/lib/ucr2\libc.a(lib_a-lseekr.o)
 .debug_loc     0x0000cb97       0xc2 c:/program files (x86)/atmel/avr studio 5.1/extensions/atmel/avrgcc/3.3.1.27/avrtoolchain/bin/../lib/gcc/avr32/4.4.3/../../../../avr32/lib/ucr2\libc.a(lib_a-makebuf.o)
 .debug_loc     0x0000cc59      0x133 c:/program files (x86)/atmel/avr studio 5.1/extensions/atmel/avrgcc/3.3.1.27/avrtoolchain/bin/../lib/gcc/avr32/4.4.3/../../../../avr32/lib/ucr2\libc.a(lib_a-mbrtowc.o)
 .debug_loc     0x0000cd8c       0x6e c:/program files (x86)/atmel/avr studio 5.1/extensions/atmel/avrgcc/3.3.1.27/avrtoolchain/bin/../lib/gcc/avr32/4.4.3/../../../../avr32/lib/ucr2\libc.a(lib_a-mbtowc_r.o)
 .debug_loc     0x0000cdfa       0x31 c:/program files (x86)/atmel/avr studio 5.1/extensions/atmel/avrgcc/3.3.1.27/avrtoolchain/bin/../lib/gcc/avr32/4.4.3/../../../../avr32/lib/ucr2\libc.a(lib_a-memchr.o)
 .debug_loc     0x0000ce2b       0x81 c:/program files (x86)/atmel/avr studio 5.1/extensions/atmel/avrgcc/3.3.1.27/avrtoolchain/bin/../lib/gcc/avr32/4.4.3/../../../../avr32/lib/ucr2\libc.a(lib_a-memmove.o)
 .debug_loc     0x0000ceac     0x122d c:/program files (x86)/atmel/avr studio 5.1/extensions/atmel/avrgcc/3.3.1.27/avrtoolchain/bin/../lib/gcc/avr32/4.4.3/../../../../avr32/lib/ucr2\libc.a(lib_a-mprec.o)
 .debug_loc     0x0000e0d9       0x94 c:/program files (x86)/atmel/avr studio 5.1/extensions/atmel/avrgcc/3.3.1.27/avrtoolchain/bin/../lib/gcc/avr32/4.4.3/../../../../avr32/lib/ucr2\libc.a(lib_a-readr.o)
 .debug_loc     0x0000e16d      0x10a c:/program files (x86)/atmel/avr studio 5.1/extensions/atmel/avrgcc/3.3.1.27/avrtoolchain/bin/../lib/gcc/avr32/4.4.3/../../../../avr32/lib/ucr2\libc.a(lib_a-reent.o)
 .debug_loc     0x0000e277       0x98 c:/program files (x86)/atmel/avr studio 5.1/extensions/atmel/avrgcc/3.3.1.27/avrtoolchain/bin/../lib/gcc/avr32/4.4.3/../../../../avr32/lib/ucr2\libc.a(lib_a-refill.o)
 .debug_loc     0x0000e30f       0xef c:/program files (x86)/atmel/avr studio 5.1/extensions/atmel/avrgcc/3.3.1.27/avrtoolchain/bin/../lib/gcc/avr32/4.4.3/../../../../avr32/lib/ucr2\libc.a(lib_a-sccl.o)
 .debug_loc     0x0000e3fe       0x13 c:/program files (x86)/atmel/avr studio 5.1/extensions/atmel/avrgcc/3.3.1.27/avrtoolchain/bin/../lib/gcc/avr32/4.4.3/../../../../avr32/lib/ucr2\libc.a(lib_a-sf_nan.o)
 .debug_loc     0x0000e411       0x43 c:/program files (x86)/atmel/avr studio 5.1/extensions/atmel/avrgcc/3.3.1.27/avrtoolchain/bin/../lib/gcc/avr32/4.4.3/../../../../avr32/lib/ucr2\libc.a(lib_a-s_isinfd.o)
 .debug_loc     0x0000e454       0x18 c:/program files (x86)/atmel/avr studio 5.1/extensions/atmel/avrgcc/3.3.1.27/avrtoolchain/bin/../lib/gcc/avr32/4.4.3/../../../../avr32/lib/ucr2\libc.a(lib_a-s_isnand.o)
 .debug_loc     0x0000e46c      0xfa8 c:/program files (x86)/atmel/avr studio 5.1/extensions/atmel/avrgcc/3.3.1.27/avrtoolchain/bin/../lib/gcc/avr32/4.4.3/../../../../avr32/lib/ucr2\libc.a(lib_a-strtod.o)
 .debug_loc     0x0000f414      0x1e0 c:/program files (x86)/atmel/avr studio 5.1/extensions/atmel/avrgcc/3.3.1.27/avrtoolchain/bin/../lib/gcc/avr32/4.4.3/../../../../avr32/lib/ucr2\libc.a(lib_a-strtoll_r.o)
 .debug_loc     0x0000f5f4      0x170 c:/program files (x86)/atmel/avr studio 5.1/extensions/atmel/avrgcc/3.3.1.27/avrtoolchain/bin/../lib/gcc/avr32/4.4.3/../../../../avr32/lib/ucr2\libc.a(lib_a-strtoull_r.o)
 .debug_loc     0x0000f764      0x14d c:/program files (x86)/atmel/avr studio 5.1/extensions/atmel/avrgcc/3.3.1.27/avrtoolchain/bin/../lib/gcc/avr32/4.4.3/../../../../avr32/lib/ucr2\libc.a(lib_a-strtoul.o)
 .debug_loc     0x0000f8b1      0x1b8 c:/program files (x86)/atmel/avr studio 5.1/extensions/atmel/avrgcc/3.3.1.27/avrtoolchain/bin/../lib/gcc/avr32/4.4.3/../../../../avr32/lib/ucr2\libc.a(lib_a-ungetc.o)
 .debug_loc     0x0000fa69       0xbd c:/program files (x86)/atmel/avr studio 5.1/extensions/atmel/avrgcc/3.3.1.27/avrtoolchain/bin/../lib/gcc/avr32/4.4.3/../../../../avr32/lib/ucr2\libc.a(lib_a-callocr.o)
 .debug_loc     0x0000fb26       0x76 c:/program files (x86)/atmel/avr studio 5.1/extensions/atmel/avrgcc/3.3.1.27/avrtoolchain/bin/../lib/gcc/avr32/4.4.3/../../../../avr32/lib/ucr2\libc.a(lib_a-fstatr.o)
 .debug_loc     0x0000fb9c      0x6e6 c:/program files (x86)/atmel/avr studio 5.1/extensions/atmel/avrgcc/3.3.1.27/avrtoolchain/bin/../lib/gcc/avr32/4.4.3/../../../../avr32/lib/ucr2\libc.a(lib_a-gdtoa-gethex.o)
 .debug_loc     0x00010282      0x2df c:/program files (x86)/atmel/avr studio 5.1/extensions/atmel/avrgcc/3.3.1.27/avrtoolchain/bin/../lib/gcc/avr32/4.4.3/../../../../avr32/lib/ucr2\libc.a(lib_a-gdtoa-hexnan.o)
 .debug_loc     0x00010561      0x61e c:/program files (x86)/atmel/avr studio 5.1/extensions/atmel/avrgcc/3.3.1.27/avrtoolchain/bin/../lib/gcc/avr32/4.4.3/ucr2\libgcc.a(_umoddi3.o)

.debug_macinfo  0x00000000  0x21018f0
 *(.debug_macinfo)
 .debug_macinfo
                0x00000000    0xdd2d1 AVR32_LIBS/COMPONENTS/AD5410/ad5410.o
 .debug_macinfo
                0x000dd2d1    0xe48ff AVR32_LIBS/COMPONENTS/AT86RF231/at86rf231.o
 .debug_macinfo
                0x001c1bd0    0xe16e0 AVR32_LIBS/COMPONENTS/AT86RF231/pal_trx_access.o
 .debug_macinfo
                0x002a32b0    0xe51c5 AVR32_LIBS/COMPONENTS/TCA6424/tca6424.o
 .debug_macinfo
                0x00388475    0xd9303 AVR32_LIBS/DRIVERS/ADC/adc.o
 .debug_macinfo
                0x00461778    0xd9581 AVR32_LIBS/DRIVERS/EIC/eic.o
 .debug_macinfo
                0x0053acf9    0xd93d7 AVR32_LIBS/DRIVERS/FLASHC/flashc.o
 .debug_macinfo
                0x006140d0    0xd936a AVR32_LIBS/DRIVERS/GPIO/gpio.o
 .debug_macinfo
                0x006ed43a    0xd9499 AVR32_LIBS/DRIVERS/INTC/intc.o
 .debug_macinfo
                0x007c68d3    0xd9435 AVR32_LIBS/DRIVERS/PDCA/pdca.o
 .debug_macinfo
                0x0089fd08    0xd9361 AVR32_LIBS/DRIVERS/PM/pm.o
 .debug_macinfo
                0x00979069    0xd93ee AVR32_LIBS/DRIVERS/PM/pm_conf_clocks.o
 .debug_macinfo
                0x00a52457    0xd93c8 AVR32_LIBS/DRIVERS/PWM/pwm.o
 .debug_macinfo
                0x00b2b81f    0xd93c1 AVR32_LIBS/DRIVERS/RTC/rtc.o
 .debug_macinfo
                0x00c04be0    0xddc0e AVR32_LIBS/DRIVERS/SPI/spi.o
 .debug_macinfo
                0x00ce27ee    0xd9415 AVR32_LIBS/DRIVERS/TWI/twi.o
 .debug_macinfo
                0x00dbbc03    0xd9704 AVR32_LIBS/DRIVERS/USART/usart.o
 .debug_macinfo
                0x00e95307    0xfad5a AVR32_LIBS/DRIVERS/USBB/ENUM/DEVICE/usb_device_task.o
 .debug_macinfo
                0x00f90061    0xf7cf3 AVR32_LIBS/DRIVERS/USBB/ENUM/DEVICE/usb_standard_request.o
 .debug_macinfo
                0x01087d54    0xfba0f AVR32_LIBS/DRIVERS/USBB/ENUM/usb_task.o
 .debug_macinfo
                0x01183763    0xf7ccf AVR32_LIBS/DRIVERS/USBB/usb_drv.o
 .debug_macinfo
                0x0127b432    0xda587 AVR32_LIBS/DRIVERS/WDT/wdt.o
 .debug_macinfo
                0x013559b9    0xdd551 AVR32_LIBS/SERVICES/DELAY/delay.o
 .debug_macinfo
                0x01432f0a    0xddbe2 AVR32_LIBS/SERVICES/FREERTOS/Source/croutine.o
 .debug_macinfo
                0x01510aec    0xdd2ba AVR32_LIBS/SERVICES/FREERTOS/Source/list.o
 .debug_macinfo
                0x015edda6    0xde962 AVR32_LIBS/SERVICES/FREERTOS/Source/portable/GCC/AVR32_UC3/port.o
 .debug_macinfo
                0x016cc708    0xdd450 AVR32_LIBS/SERVICES/FREERTOS/Source/portable/MemMang/heap_3.o
 .debug_macinfo
                0x017a9b58    0xddd1c AVR32_LIBS/SERVICES/FREERTOS/Source/queue.o
 .debug_macinfo
                0x01887874    0xde7dd AVR32_LIBS/SERVICES/FREERTOS/Source/tasks.o
 .debug_macinfo
                0x01966051    0xf7cef AVR32_LIBS/SERVICES/USB/CLASS/CDC/EXAMPLES/ENUM/DEVICE/usb_descriptors.o
 .debug_macinfo
                0x01a5dd40    0xf8242 AVR32_LIBS/SERVICES/USB/CLASS/CDC/EXAMPLES/ENUM/DEVICE/usb_specific_request.o
 .debug_macinfo
                0x01b55f82    0xfd729 AVR32_LIBS/SERVICES/USB/CLASS/CDC/EXAMPLES/uart_usb_lib.o
 .debug_macinfo
                0x01c536ab   0x101dce spike_fw_update.o
 .debug_macinfo
                0x01d55479    0xe1c6d main.o
 .debug_macinfo
                0x01e370e6    0xe6bad main_app.o
 .debug_macinfo
                0x01f1dc93    0xdecd3 security_task.o
 .debug_macinfo
                0x01ffc966     0x2837 terminal/printf-stdarg.o
 .debug_macinfo
                0x01fff19d   0x102753 terminal/usb/usb.o

.debug_weaknames
 *(.debug_weaknames)

.debug_funcnames
 *(.debug_funcnames)

.debug_typenames
 *(.debug_typenames)

.debug_varnames
 *(.debug_varnames)

.stack          0x0000f000     0x1000
                0x0000f000                _stack = .
 *(.stack)
                0x00001000                . = _stack_size
 *fill*         0x0000f000     0x1000 00
                0x00010000                _estack = .

.userpage
 *(.userpage .userpage.*)

.factorypage
 *(.factorypage .factorypage.*)

/DISCARD/
 *(.note.GNU-stack)
OUTPUT(WEPO41105A00.elf elf32-avr32)

.debug_ranges   0x00000000     0x1cb8
 .debug_ranges  0x00000000       0x50 AVR32_LIBS/COMPONENTS/AD5410/ad5410.o
 .debug_ranges  0x00000050       0x68 AVR32_LIBS/COMPONENTS/AT86RF231/at86rf231.o
 .debug_ranges  0x000000b8       0x70 AVR32_LIBS/COMPONENTS/AT86RF231/pal_trx_access.o
 .debug_ranges  0x00000128       0x38 AVR32_LIBS/COMPONENTS/TCA6424/tca6424.o
 .debug_ranges  0x00000160       0x50 AVR32_LIBS/DRIVERS/ADC/adc.o
 .debug_ranges  0x000001b0       0x98 AVR32_LIBS/DRIVERS/EIC/eic.o
 .debug_ranges  0x00000248      0x210 AVR32_LIBS/DRIVERS/FLASHC/flashc.o
 .debug_ranges  0x00000458       0xb8 AVR32_LIBS/DRIVERS/GPIO/gpio.o
 .debug_ranges  0x00000510       0x30 AVR32_LIBS/DRIVERS/INTC/intc.o
 .debug_ranges  0x00000540       0xa0 AVR32_LIBS/DRIVERS/PDCA/pdca.o
 .debug_ranges  0x000005e0      0x160 AVR32_LIBS/DRIVERS/PM/pm.o
 .debug_ranges  0x00000740       0x20 AVR32_LIBS/DRIVERS/PM/pm_conf_clocks.o
 .debug_ranges  0x00000760       0x40 AVR32_LIBS/DRIVERS/PWM/pwm.o
 .debug_ranges  0x000007a0       0x88 AVR32_LIBS/DRIVERS/RTC/rtc.o
 .debug_ranges  0x00000828       0xa8 AVR32_LIBS/DRIVERS/SPI/spi.o
 .debug_ranges  0x000008d0       0x58 AVR32_LIBS/DRIVERS/TWI/twi.o
 .debug_ranges  0x00000928      0x100 AVR32_LIBS/DRIVERS/USART/usart.o
 .debug_ranges  0x00000a28       0x28 AVR32_LIBS/DRIVERS/USBB/ENUM/DEVICE/usb_device_task.o
 .debug_ranges  0x00000a50       0x60 AVR32_LIBS/DRIVERS/USBB/ENUM/DEVICE/usb_standard_request.o
 .debug_ranges  0x00000ab0       0x38 AVR32_LIBS/DRIVERS/USBB/ENUM/usb_task.o
 .debug_ranges  0x00000ae8       0x30 AVR32_LIBS/DRIVERS/USBB/usb_drv.o
 .debug_ranges  0x00000b18       0x48 AVR32_LIBS/DRIVERS/WDT/wdt.o
 .debug_ranges  0x00000b60       0x20 AVR32_LIBS/SERVICES/DELAY/delay.o
 .debug_ranges  0x00000b80       0x48 AVR32_LIBS/SERVICES/FREERTOS/Source/croutine.o
 .debug_ranges  0x00000bc8       0x38 AVR32_LIBS/SERVICES/FREERTOS/Source/list.o
 .debug_ranges  0x00000c00       0x80 AVR32_LIBS/SERVICES/FREERTOS/Source/portable/GCC/AVR32_UC3/port.o
 .debug_ranges  0x00000c80       0x20 AVR32_LIBS/SERVICES/FREERTOS/Source/portable/MemMang/heap_3.o
 .debug_ranges  0x00000ca0       0x90 AVR32_LIBS/SERVICES/FREERTOS/Source/queue.o
 .debug_ranges  0x00000d30      0x140 AVR32_LIBS/SERVICES/FREERTOS/Source/tasks.o
 .debug_ranges  0x00000e70       0x40 AVR32_LIBS/SERVICES/USB/CLASS/CDC/EXAMPLES/ENUM/DEVICE/usb_specific_request.o
 .debug_ranges  0x00000eb0       0x50 AVR32_LIBS/SERVICES/USB/CLASS/CDC/EXAMPLES/uart_usb_lib.o
 .debug_ranges  0x00000f00       0x58 spike_fw_update.o
 .debug_ranges  0x00000f58       0x28 main.o
 .debug_ranges  0x00000f80       0x88 main_app.o
 .debug_ranges  0x00001008       0x20 security_task.o
 .debug_ranges  0x00001028       0x48 terminal/printf-stdarg.o
 .debug_ranges  0x00001070       0x80 terminal/usb/usb.o
 .debug_ranges  0x000010f0       0xd0 c:/program files (x86)/atmel/avr studio 5.1/extensions/atmel/avrgcc/3.3.1.27/avrtoolchain/bin/../lib/gcc/avr32/4.4.3/ucr2\libgcc.a(_udivdi3.o)
 .debug_ranges  0x000011c0       0x18 c:/program files (x86)/atmel/avr studio 5.1/extensions/atmel/avrgcc/3.3.1.27/avrtoolchain/bin/../lib/gcc/avr32/4.4.3/../../../../avr32/lib/ucr2\libc.a(lib_a-atexit.o)
 .debug_ranges  0x000011d8       0x20 c:/program files (x86)/atmel/avr studio 5.1/extensions/atmel/avrgcc/3.3.1.27/avrtoolchain/bin/../lib/gcc/avr32/4.4.3/../../../../avr32/lib/ucr2\libc.a(lib_a-atoi.o)
 .debug_ranges  0x000011f8       0x18 c:/program files (x86)/atmel/avr studio 5.1/extensions/atmel/avrgcc/3.3.1.27/avrtoolchain/bin/../lib/gcc/avr32/4.4.3/../../../../avr32/lib/ucr2\libc.a(lib_a-errno.o)
 .debug_ranges  0x00001210       0x18 c:/program files (x86)/atmel/avr studio 5.1/extensions/atmel/avrgcc/3.3.1.27/avrtoolchain/bin/../lib/gcc/avr32/4.4.3/../../../../avr32/lib/ucr2\libc.a(lib_a-exit.o)
 .debug_ranges  0x00001228       0x20 c:/program files (x86)/atmel/avr studio 5.1/extensions/atmel/avrgcc/3.3.1.27/avrtoolchain/bin/../lib/gcc/avr32/4.4.3/../../../../avr32/lib/ucr2\libc.a(lib_a-fflush.o)
 .debug_ranges  0x00001248       0xb0 c:/program files (x86)/atmel/avr studio 5.1/extensions/atmel/avrgcc/3.3.1.27/avrtoolchain/bin/../lib/gcc/avr32/4.4.3/../../../../avr32/lib/ucr2\libc.a(lib_a-findfp.o)
 .debug_ranges  0x000012f8       0xa0 c:/program files (x86)/atmel/avr studio 5.1/extensions/atmel/avrgcc/3.3.1.27/avrtoolchain/bin/../lib/gcc/avr32/4.4.3/../../../../avr32/lib/ucr2\libc.a(lib_a-fwalk.o)
 .debug_ranges  0x00001398       0x20 c:/program files (x86)/atmel/avr studio 5.1/extensions/atmel/avrgcc/3.3.1.27/avrtoolchain/bin/../lib/gcc/avr32/4.4.3/../../../../avr32/lib/ucr2\libc.a(lib_a-malloc.o)
 .debug_ranges  0x000013b8       0x18 c:/program files (x86)/atmel/avr studio 5.1/extensions/atmel/avrgcc/3.3.1.27/avrtoolchain/bin/../lib/gcc/avr32/4.4.3/../../../../avr32/lib/ucr2\libc.a(lib_a-mallocr.o)
 .debug_ranges  0x000013d0       0x18 c:/program files (x86)/atmel/avr studio 5.1/extensions/atmel/avrgcc/3.3.1.27/avrtoolchain/bin/../lib/gcc/avr32/4.4.3/../../../../avr32/lib/ucr2\libc.a(lib_a-memset.o)
 .debug_ranges  0x000013e8       0x20 c:/program files (x86)/atmel/avr studio 5.1/extensions/atmel/avrgcc/3.3.1.27/avrtoolchain/bin/../lib/gcc/avr32/4.4.3/../../../../avr32/lib/ucr2\libc.a(lib_a-printf.o)
 .debug_ranges  0x00001408       0x20 c:/program files (x86)/atmel/avr studio 5.1/extensions/atmel/avrgcc/3.3.1.27/avrtoolchain/bin/../lib/gcc/avr32/4.4.3/../../../../avr32/lib/ucr2\libc.a(lib_a-putchar.o)
 .debug_ranges  0x00001428       0x20 c:/program files (x86)/atmel/avr studio 5.1/extensions/atmel/avrgcc/3.3.1.27/avrtoolchain/bin/../lib/gcc/avr32/4.4.3/../../../../avr32/lib/ucr2\libc.a(lib_a-putc.o)
 .debug_ranges  0x00001448       0x68 c:/program files (x86)/atmel/avr studio 5.1/extensions/atmel/avrgcc/3.3.1.27/avrtoolchain/bin/../lib/gcc/avr32/4.4.3/../../../../avr32/lib/ucr2\libc.a(lib_a-rand.o)
 .debug_ranges  0x000014b0       0x18 c:/program files (x86)/atmel/avr studio 5.1/extensions/atmel/avrgcc/3.3.1.27/avrtoolchain/bin/../lib/gcc/avr32/4.4.3/../../../../avr32/lib/ucr2\libc.a(lib_a-realloc.o)
 .debug_ranges  0x000014c8       0x30 c:/program files (x86)/atmel/avr studio 5.1/extensions/atmel/avrgcc/3.3.1.27/avrtoolchain/bin/../lib/gcc/avr32/4.4.3/../../../../avr32/lib/ucr2\libc.a(lib_a-reallocr.o)
 .debug_ranges  0x000014f8       0x18 c:/program files (x86)/atmel/avr studio 5.1/extensions/atmel/avrgcc/3.3.1.27/avrtoolchain/bin/../lib/gcc/avr32/4.4.3/../../../../avr32/lib/ucr2\libc.a(lib_a-sbrkr.o)
 .debug_ranges  0x00001510       0x20 c:/program files (x86)/atmel/avr studio 5.1/extensions/atmel/avrgcc/3.3.1.27/avrtoolchain/bin/../lib/gcc/avr32/4.4.3/../../../../avr32/lib/ucr2\libc.a(lib_a-sprintf.o)
 .debug_ranges  0x00001530       0x28 c:/program files (x86)/atmel/avr studio 5.1/extensions/atmel/avrgcc/3.3.1.27/avrtoolchain/bin/../lib/gcc/avr32/4.4.3/../../../../avr32/lib/ucr2\libc.a(lib_a-sscanf.o)
 .debug_ranges  0x00001558       0x30 c:/program files (x86)/atmel/avr studio 5.1/extensions/atmel/avrgcc/3.3.1.27/avrtoolchain/bin/../lib/gcc/avr32/4.4.3/../../../../avr32/lib/ucr2\libc.a(lib_a-stdio.o)
 .debug_ranges  0x00001588       0x18 c:/program files (x86)/atmel/avr studio 5.1/extensions/atmel/avrgcc/3.3.1.27/avrtoolchain/bin/../lib/gcc/avr32/4.4.3/../../../../avr32/lib/ucr2\libc.a(lib_a-strcat.o)
 .debug_ranges  0x000015a0       0x18 c:/program files (x86)/atmel/avr studio 5.1/extensions/atmel/avrgcc/3.3.1.27/avrtoolchain/bin/../lib/gcc/avr32/4.4.3/../../../../avr32/lib/ucr2\libc.a(lib_a-strlen.o)
 .debug_ranges  0x000015b8       0x20 c:/program files (x86)/atmel/avr studio 5.1/extensions/atmel/avrgcc/3.3.1.27/avrtoolchain/bin/../lib/gcc/avr32/4.4.3/../../../../avr32/lib/ucr2\libc.a(lib_a-strtol.o)
 .debug_ranges  0x000015d8       0xa0 c:/program files (x86)/atmel/avr studio 5.1/extensions/atmel/avrgcc/3.3.1.27/avrtoolchain/bin/../lib/gcc/avr32/4.4.3/../../../../avr32/lib/ucr2\libc.a(lib_a-vfprintf.o)
 .debug_ranges  0x00001678       0x30 c:/program files (x86)/atmel/avr studio 5.1/extensions/atmel/avrgcc/3.3.1.27/avrtoolchain/bin/../lib/gcc/avr32/4.4.3/../../../../avr32/lib/ucr2\libc.a(lib_a-vfscanf.o)
 .debug_ranges  0x000016a8       0x20 c:/program files (x86)/atmel/avr studio 5.1/extensions/atmel/avrgcc/3.3.1.27/avrtoolchain/bin/../lib/gcc/avr32/4.4.3/../../../../avr32/lib/ucr2\libc.a(lib_a-vsprintf.o)
 .debug_ranges  0x000016c8       0x20 c:/program files (x86)/atmel/avr studio 5.1/extensions/atmel/avrgcc/3.3.1.27/avrtoolchain/bin/../lib/gcc/avr32/4.4.3/../../../../avr32/lib/ucr2\libc.a(lib_a-wbuf.o)
 .debug_ranges  0x000016e8       0x18 c:/program files (x86)/atmel/avr studio 5.1/extensions/atmel/avrgcc/3.3.1.27/avrtoolchain/bin/../lib/gcc/avr32/4.4.3/../../../../avr32/lib/ucr2\libc.a(lib_a-writer.o)
 .debug_ranges  0x00001700       0x18 c:/program files (x86)/atmel/avr studio 5.1/extensions/atmel/avrgcc/3.3.1.27/avrtoolchain/bin/../lib/gcc/avr32/4.4.3/../../../../avr32/lib/ucr2\libc.a(lib_a-wsetup.o)
 .debug_ranges  0x00001718       0x18 c:/program files (x86)/atmel/avr studio 5.1/extensions/atmel/avrgcc/3.3.1.27/avrtoolchain/bin/../lib/gcc/avr32/4.4.3/../../../../avr32/lib/ucr2\libc.a(lib_a-__atexit.o)
 .debug_ranges  0x00001730       0x18 c:/program files (x86)/atmel/avr studio 5.1/extensions/atmel/avrgcc/3.3.1.27/avrtoolchain/bin/../lib/gcc/avr32/4.4.3/../../../../avr32/lib/ucr2\libc.a(lib_a-__call_atexit.o)
 .debug_ranges  0x00001748       0x18 c:/program files (x86)/atmel/avr studio 5.1/extensions/atmel/avrgcc/3.3.1.27/avrtoolchain/bin/../lib/gcc/avr32/4.4.3/../../../../avr32/lib/ucr2\libc.a(lib_a-closer.o)
 .debug_ranges  0x00001760       0x38 c:/program files (x86)/atmel/avr studio 5.1/extensions/atmel/avrgcc/3.3.1.27/avrtoolchain/bin/../lib/gcc/avr32/4.4.3/../../../../avr32/lib/ucr2\libc.a(lib_a-dtoa.o)
 .debug_ranges  0x00001798       0x20 c:/program files (x86)/atmel/avr studio 5.1/extensions/atmel/avrgcc/3.3.1.27/avrtoolchain/bin/../lib/gcc/avr32/4.4.3/../../../../avr32/lib/ucr2\libc.a(lib_a-fclose.o)
 .debug_ranges  0x000017b8       0x20 c:/program files (x86)/atmel/avr studio 5.1/extensions/atmel/avrgcc/3.3.1.27/avrtoolchain/bin/../lib/gcc/avr32/4.4.3/../../../../avr32/lib/ucr2\libc.a(lib_a-fread.o)
 .debug_ranges  0x000017d8       0x20 c:/program files (x86)/atmel/avr studio 5.1/extensions/atmel/avrgcc/3.3.1.27/avrtoolchain/bin/../lib/gcc/avr32/4.4.3/../../../../avr32/lib/ucr2\libc.a(lib_a-freer.o)
 .debug_ranges  0x000017f8       0x18 c:/program files (x86)/atmel/avr studio 5.1/extensions/atmel/avrgcc/3.3.1.27/avrtoolchain/bin/../lib/gcc/avr32/4.4.3/../../../../avr32/lib/ucr2\libc.a(lib_a-fvwrite.o)
 .debug_ranges  0x00001810       0x18 c:/program files (x86)/atmel/avr studio 5.1/extensions/atmel/avrgcc/3.3.1.27/avrtoolchain/bin/../lib/gcc/avr32/4.4.3/../../../../avr32/lib/ucr2\libc.a(lib_a-iswspace.o)
 .debug_ranges  0x00001828       0x38 c:/program files (x86)/atmel/avr studio 5.1/extensions/atmel/avrgcc/3.3.1.27/avrtoolchain/bin/../lib/gcc/avr32/4.4.3/../../../../avr32/lib/ucr2\libc.a(lib_a-locale.o)
 .debug_ranges  0x00001860       0x18 c:/program files (x86)/atmel/avr studio 5.1/extensions/atmel/avrgcc/3.3.1.27/avrtoolchain/bin/../lib/gcc/avr32/4.4.3/../../../../avr32/lib/ucr2\libc.a(lib_a-lseekr.o)
 .debug_ranges  0x00001878       0x18 c:/program files (x86)/atmel/avr studio 5.1/extensions/atmel/avrgcc/3.3.1.27/avrtoolchain/bin/../lib/gcc/avr32/4.4.3/../../../../avr32/lib/ucr2\libc.a(lib_a-makebuf.o)
 .debug_ranges  0x00001890       0x20 c:/program files (x86)/atmel/avr studio 5.1/extensions/atmel/avrgcc/3.3.1.27/avrtoolchain/bin/../lib/gcc/avr32/4.4.3/../../../../avr32/lib/ucr2\libc.a(lib_a-mbrtowc.o)
 .debug_ranges  0x000018b0       0x18 c:/program files (x86)/atmel/avr studio 5.1/extensions/atmel/avrgcc/3.3.1.27/avrtoolchain/bin/../lib/gcc/avr32/4.4.3/../../../../avr32/lib/ucr2\libc.a(lib_a-mbtowc_r.o)
 .debug_ranges  0x000018c8       0x18 c:/program files (x86)/atmel/avr studio 5.1/extensions/atmel/avrgcc/3.3.1.27/avrtoolchain/bin/../lib/gcc/avr32/4.4.3/../../../../avr32/lib/ucr2\libc.a(lib_a-memchr.o)
 .debug_ranges  0x000018e0       0x18 c:/program files (x86)/atmel/avr studio 5.1/extensions/atmel/avrgcc/3.3.1.27/avrtoolchain/bin/../lib/gcc/avr32/4.4.3/../../../../avr32/lib/ucr2\libc.a(lib_a-memmove.o)
 .debug_ranges  0x000018f8      0x120 c:/program files (x86)/atmel/avr studio 5.1/extensions/atmel/avrgcc/3.3.1.27/avrtoolchain/bin/../lib/gcc/avr32/4.4.3/../../../../avr32/lib/ucr2\libc.a(lib_a-mprec.o)
 .debug_ranges  0x00001a18       0x18 c:/program files (x86)/atmel/avr studio 5.1/extensions/atmel/avrgcc/3.3.1.27/avrtoolchain/bin/../lib/gcc/avr32/4.4.3/../../../../avr32/lib/ucr2\libc.a(lib_a-readr.o)
 .debug_ranges  0x00001a30       0x28 c:/program files (x86)/atmel/avr studio 5.1/extensions/atmel/avrgcc/3.3.1.27/avrtoolchain/bin/../lib/gcc/avr32/4.4.3/../../../../avr32/lib/ucr2\libc.a(lib_a-reent.o)
 .debug_ranges  0x00001a58       0x20 c:/program files (x86)/atmel/avr studio 5.1/extensions/atmel/avrgcc/3.3.1.27/avrtoolchain/bin/../lib/gcc/avr32/4.4.3/../../../../avr32/lib/ucr2\libc.a(lib_a-refill.o)
 .debug_ranges  0x00001a78       0x18 c:/program files (x86)/atmel/avr studio 5.1/extensions/atmel/avrgcc/3.3.1.27/avrtoolchain/bin/../lib/gcc/avr32/4.4.3/../../../../avr32/lib/ucr2\libc.a(lib_a-sccl.o)
 .debug_ranges  0x00001a90       0x18 c:/program files (x86)/atmel/avr studio 5.1/extensions/atmel/avrgcc/3.3.1.27/avrtoolchain/bin/../lib/gcc/avr32/4.4.3/../../../../avr32/lib/ucr2\libc.a(lib_a-sf_nan.o)
 .debug_ranges  0x00001aa8       0x18 c:/program files (x86)/atmel/avr studio 5.1/extensions/atmel/avrgcc/3.3.1.27/avrtoolchain/bin/../lib/gcc/avr32/4.4.3/../../../../avr32/lib/ucr2\libc.a(lib_a-s_isinfd.o)
 .debug_ranges  0x00001ac0       0x18 c:/program files (x86)/atmel/avr studio 5.1/extensions/atmel/avrgcc/3.3.1.27/avrtoolchain/bin/../lib/gcc/avr32/4.4.3/../../../../avr32/lib/ucr2\libc.a(lib_a-s_isnand.o)
 .debug_ranges  0x00001ad8       0x28 c:/program files (x86)/atmel/avr studio 5.1/extensions/atmel/avrgcc/3.3.1.27/avrtoolchain/bin/../lib/gcc/avr32/4.4.3/../../../../avr32/lib/ucr2\libc.a(lib_a-strtod.o)
 .debug_ranges  0x00001b00       0x18 c:/program files (x86)/atmel/avr studio 5.1/extensions/atmel/avrgcc/3.3.1.27/avrtoolchain/bin/../lib/gcc/avr32/4.4.3/../../../../avr32/lib/ucr2\libc.a(lib_a-strtoll_r.o)
 .debug_ranges  0x00001b18       0x18 c:/program files (x86)/atmel/avr studio 5.1/extensions/atmel/avrgcc/3.3.1.27/avrtoolchain/bin/../lib/gcc/avr32/4.4.3/../../../../avr32/lib/ucr2\libc.a(lib_a-strtoull_r.o)
 .debug_ranges  0x00001b30       0x20 c:/program files (x86)/atmel/avr studio 5.1/extensions/atmel/avrgcc/3.3.1.27/avrtoolchain/bin/../lib/gcc/avr32/4.4.3/../../../../avr32/lib/ucr2\libc.a(lib_a-strtoul.o)
 .debug_ranges  0x00001b50       0x28 c:/program files (x86)/atmel/avr studio 5.1/extensions/atmel/avrgcc/3.3.1.27/avrtoolchain/bin/../lib/gcc/avr32/4.4.3/../../../../avr32/lib/ucr2\libc.a(lib_a-ungetc.o)
 .debug_ranges  0x00001b78       0x18 c:/program files (x86)/atmel/avr studio 5.1/extensions/atmel/avrgcc/3.3.1.27/avrtoolchain/bin/../lib/gcc/avr32/4.4.3/../../../../avr32/lib/ucr2\libc.a(lib_a-callocr.o)
 .debug_ranges  0x00001b90       0x18 c:/program files (x86)/atmel/avr studio 5.1/extensions/atmel/avrgcc/3.3.1.27/avrtoolchain/bin/../lib/gcc/avr32/4.4.3/../../../../avr32/lib/ucr2\libc.a(lib_a-fstatr.o)
 .debug_ranges  0x00001ba8       0x28 c:/program files (x86)/atmel/avr studio 5.1/extensions/atmel/avrgcc/3.3.1.27/avrtoolchain/bin/../lib/gcc/avr32/4.4.3/../../../../avr32/lib/ucr2\libc.a(lib_a-gdtoa-gethex.o)
 .debug_ranges  0x00001bd0       0x18 c:/program files (x86)/atmel/avr studio 5.1/extensions/atmel/avrgcc/3.3.1.27/avrtoolchain/bin/../lib/gcc/avr32/4.4.3/../../../../avr32/lib/ucr2\libc.a(lib_a-gdtoa-hexnan.o)
 .debug_ranges  0x00001be8       0xd0 c:/program files (x86)/atmel/avr studio 5.1/extensions/atmel/avrgcc/3.3.1.27/avrtoolchain/bin/../lib/gcc/avr32/4.4.3/ucr2\libgcc.a(_umoddi3.o)
