
WEPO41104A02.elf:     file format elf32-avr

Sections:
Idx Name          Size      VMA       LMA       File off  Algn
  0 .data         00000006  00800100  000034da  000035ce  2**0
                  CONTENTS, ALLOC, LOAD, DATA
  1 .text         000034da  00000000  00000000  000000f4  2**1
                  CONTENTS, ALLOC, LOAD, READONLY, CODE
  2 .bootloader   00000458  00007000  00007000  000035d4  2**0
                  CONTENTS, ALLOC, LOAD, READONLY, CODE
  3 .bss          00000179  00800106  00800106  00003a2c  2**0
                  ALLOC
  4 .eeprom       00000067  00810000  00810000  00003a2c  2**0
                  CONTENTS, ALLOC, LOAD, DATA
  5 .signature    00000003  00840000  00840000  00003a93  2**0
                  CONTENTS, ALLOC, LOAD, READONLY, DATA
  6 .stab         00001824  00000000  00000000  00003a98  2**2
                  CONTENTS, READONLY, DEBUGGING
  7 .stabstr      00000620  00000000  00000000  000052bc  2**0
                  CONTENTS, READONLY, DEBUGGING

Disassembly of section .text:

00000000 <__vectors>:
       0:	0c 94 3e 00 	jmp	0x7c	; 0x7c <__ctors_end>
       4:	0c 94 03 05 	jmp	0xa06	; 0xa06 <__vector_1>
       8:	0c 94 5b 00 	jmp	0xb6	; 0xb6 <__bad_interrupt>
       c:	0c 94 5b 00 	jmp	0xb6	; 0xb6 <__bad_interrupt>
      10:	0c 94 5b 00 	jmp	0xb6	; 0xb6 <__bad_interrupt>
      14:	0c 94 5b 00 	jmp	0xb6	; 0xb6 <__bad_interrupt>
      18:	0c 94 5b 00 	jmp	0xb6	; 0xb6 <__bad_interrupt>
      1c:	0c 94 5b 00 	jmp	0xb6	; 0xb6 <__bad_interrupt>
      20:	0c 94 5b 00 	jmp	0xb6	; 0xb6 <__bad_interrupt>
      24:	0c 94 5b 00 	jmp	0xb6	; 0xb6 <__bad_interrupt>
      28:	0c 94 5b 00 	jmp	0xb6	; 0xb6 <__bad_interrupt>
      2c:	0c 94 5b 00 	jmp	0xb6	; 0xb6 <__bad_interrupt>
      30:	0c 94 2a 05 	jmp	0xa54	; 0xa54 <__vector_12>
      34:	0c 94 b6 18 	jmp	0x316c	; 0x316c <__vector_13>
      38:	0c 94 5b 00 	jmp	0xb6	; 0xb6 <__bad_interrupt>
      3c:	0c 94 5b 00 	jmp	0xb6	; 0xb6 <__bad_interrupt>
      40:	0c 94 5b 00 	jmp	0xb6	; 0xb6 <__bad_interrupt>
      44:	0c 94 5b 00 	jmp	0xb6	; 0xb6 <__bad_interrupt>
      48:	0c 94 5b 00 	jmp	0xb6	; 0xb6 <__bad_interrupt>
      4c:	0c 94 5b 00 	jmp	0xb6	; 0xb6 <__bad_interrupt>
      50:	0c 94 5b 00 	jmp	0xb6	; 0xb6 <__bad_interrupt>
      54:	0c 94 5b 00 	jmp	0xb6	; 0xb6 <__bad_interrupt>
      58:	0c 94 5b 00 	jmp	0xb6	; 0xb6 <__bad_interrupt>
      5c:	0c 94 c5 18 	jmp	0x318a	; 0x318a <__vector_23>
      60:	0c 94 5b 00 	jmp	0xb6	; 0xb6 <__bad_interrupt>
      64:	0c 94 5b 00 	jmp	0xb6	; 0xb6 <__bad_interrupt>
      68:	0c 94 5b 00 	jmp	0xb6	; 0xb6 <__bad_interrupt>
      6c:	0c 94 5b 00 	jmp	0xb6	; 0xb6 <__bad_interrupt>
      70:	0c 94 5b 00 	jmp	0xb6	; 0xb6 <__bad_interrupt>
      74:	0c 94 5b 00 	jmp	0xb6	; 0xb6 <__bad_interrupt>
      78:	0c 94 5b 00 	jmp	0xb6	; 0xb6 <__bad_interrupt>

0000007c <__ctors_end>:
      7c:	11 24       	eor	r1, r1
      7e:	1f be       	out	0x3f, r1	; 63
      80:	cf ef       	ldi	r28, 0xFF	; 255
      82:	d8 e0       	ldi	r29, 0x08	; 8
      84:	de bf       	out	0x3e, r29	; 62
      86:	cd bf       	out	0x3d, r28	; 61

00000088 <__do_copy_data>:
      88:	11 e0       	ldi	r17, 0x01	; 1
      8a:	a0 e0       	ldi	r26, 0x00	; 0
      8c:	b1 e0       	ldi	r27, 0x01	; 1
      8e:	ea ed       	ldi	r30, 0xDA	; 218
      90:	f4 e3       	ldi	r31, 0x34	; 52
      92:	02 c0       	rjmp	.+4      	; 0x98 <__do_copy_data+0x10>
      94:	05 90       	lpm	r0, Z+
      96:	0d 92       	st	X+, r0
      98:	a6 30       	cpi	r26, 0x06	; 6
      9a:	b1 07       	cpc	r27, r17
      9c:	d9 f7       	brne	.-10     	; 0x94 <__do_copy_data+0xc>

0000009e <__do_clear_bss>:
      9e:	12 e0       	ldi	r17, 0x02	; 2
      a0:	a6 e0       	ldi	r26, 0x06	; 6
      a2:	b1 e0       	ldi	r27, 0x01	; 1
      a4:	01 c0       	rjmp	.+2      	; 0xa8 <.do_clear_bss_start>

000000a6 <.do_clear_bss_loop>:
      a6:	1d 92       	st	X+, r1

000000a8 <.do_clear_bss_start>:
      a8:	af 37       	cpi	r26, 0x7F	; 127
      aa:	b1 07       	cpc	r27, r17
      ac:	e1 f7       	brne	.-8      	; 0xa6 <.do_clear_bss_loop>
      ae:	0e 94 eb 16 	call	0x2dd6	; 0x2dd6 <main>
      b2:	0c 94 6b 1a 	jmp	0x34d6	; 0x34d6 <_exit>

000000b6 <__bad_interrupt>:
      b6:	0c 94 00 00 	jmp	0	; 0x0 <__vectors>

000000ba <at86rf231_switch_pll_on>:
      ba:	81 e0       	ldi	r24, 0x01	; 1
      bc:	6f e1       	ldi	r22, 0x1F	; 31
      be:	40 e0       	ldi	r20, 0x00	; 0
      c0:	0e 94 26 04 	call	0x84c	; 0x84c <pal_trx_bit_read>
      c4:	88 30       	cpi	r24, 0x08	; 8
      c6:	11 f0       	breq	.+4      	; 0xcc <at86rf231_switch_pll_on+0x12>
      c8:	80 e0       	ldi	r24, 0x00	; 0
      ca:	08 95       	ret
      cc:	8f e0       	ldi	r24, 0x0F	; 15
      ce:	0e 94 d9 03 	call	0x7b2	; 0x7b2 <pal_trx_reg_read>
      d2:	82 e0       	ldi	r24, 0x02	; 2
      d4:	69 e0       	ldi	r22, 0x09	; 9
      d6:	0e 94 c8 03 	call	0x790	; 0x790 <pal_trx_reg_write>
      da:	8f e0       	ldi	r24, 0x0F	; 15
      dc:	0e 94 d9 03 	call	0x7b2	; 0x7b2 <pal_trx_reg_read>
      e0:	80 ff       	sbrs	r24, 0
      e2:	fb cf       	rjmp	.-10     	; 0xda <at86rf231_switch_pll_on+0x20>
      e4:	81 e0       	ldi	r24, 0x01	; 1
      e6:	08 95       	ret

000000e8 <at86rf231_sleep>:
      e8:	82 e0       	ldi	r24, 0x02	; 2
      ea:	63 e0       	ldi	r22, 0x03	; 3
      ec:	0e 94 c8 03 	call	0x790	; 0x790 <pal_trx_reg_write>
      f0:	82 e0       	ldi	r24, 0x02	; 2
      f2:	8a 95       	dec	r24
      f4:	f1 f7       	brne	.-4      	; 0xf2 <at86rf231_sleep+0xa>
      f6:	00 c0       	rjmp	.+0      	; 0xf8 <at86rf231_sleep+0x10>
      f8:	28 9a       	sbi	0x05, 0	; 5
      fa:	08 95       	ret

000000fc <at86rf231_rx_with_auto_ack>:
      fc:	82 e0       	ldi	r24, 0x02	; 2
      fe:	68 e0       	ldi	r22, 0x08	; 8
     100:	0e 94 c8 03 	call	0x790	; 0x790 <pal_trx_reg_write>
     104:	0e 94 5d 00 	call	0xba	; 0xba <at86rf231_switch_pll_on>
     108:	86 e0       	ldi	r24, 0x06	; 6
     10a:	80 93 7e 02 	sts	0x027E, r24
     10e:	82 e0       	ldi	r24, 0x02	; 2
     110:	66 e1       	ldi	r22, 0x16	; 22
     112:	0e 94 c8 03 	call	0x790	; 0x790 <pal_trx_reg_write>
     116:	08 95       	ret

00000118 <at86rf231_tx>:
     118:	82 e0       	ldi	r24, 0x02	; 2
     11a:	69 e0       	ldi	r22, 0x09	; 9
     11c:	0e 94 c8 03 	call	0x790	; 0x790 <pal_trx_reg_write>
     120:	81 e0       	ldi	r24, 0x01	; 1
     122:	80 93 7e 02 	sts	0x027E, r24
     126:	10 92 00 01 	sts	0x0100, r1
     12a:	28 9a       	sbi	0x05, 0	; 5
	...
     134:	00 00       	nop
     136:	28 98       	cbi	0x05, 0	; 5
     138:	60 91 80 01 	lds	r22, 0x0180
     13c:	80 e8       	ldi	r24, 0x80	; 128
     13e:	91 e0       	ldi	r25, 0x01	; 1
     140:	0e 94 10 04 	call	0x820	; 0x820 <pal_trx_frame_write>
     144:	08 95       	ret

00000146 <at86rf231_tx_with_retry>:
     146:	0f 93       	push	r16
     148:	1f 93       	push	r17
     14a:	08 2f       	mov	r16, r24
     14c:	16 2f       	mov	r17, r22
     14e:	66 23       	and	r22, r22
     150:	09 f4       	brne	.+2      	; 0x154 <at86rf231_tx_with_retry+0xe>
     152:	43 c0       	rjmp	.+134    	; 0x1da <at86rf231_tx_with_retry+0x94>
     154:	8c e2       	ldi	r24, 0x2C	; 44
     156:	60 ef       	ldi	r22, 0xF0	; 240
     158:	44 e0       	ldi	r20, 0x04	; 4
     15a:	23 e0       	ldi	r18, 0x03	; 3
     15c:	0e 94 38 04 	call	0x870	; 0x870 <pal_trx_bit_write>
     160:	8c e2       	ldi	r24, 0x2C	; 44
     162:	60 ef       	ldi	r22, 0xF0	; 240
     164:	44 e0       	ldi	r20, 0x04	; 4
     166:	28 e0       	ldi	r18, 0x08	; 8
     168:	0e 94 38 04 	call	0x870	; 0x870 <pal_trx_bit_write>
     16c:	02 30       	cpi	r16, 0x02	; 2
     16e:	08 f4       	brcc	.+2      	; 0x172 <at86rf231_tx_with_retry+0x2c>
     170:	3d c0       	rjmp	.+122    	; 0x1ec <at86rf231_tx_with_retry+0xa6>
     172:	8f e2       	ldi	r24, 0x2F	; 47
     174:	63 e5       	ldi	r22, 0x53	; 83
     176:	0e 94 c8 03 	call	0x790	; 0x790 <pal_trx_reg_write>
     17a:	8c e2       	ldi	r24, 0x2C	; 44
     17c:	6e e0       	ldi	r22, 0x0E	; 14
     17e:	41 e0       	ldi	r20, 0x01	; 1
     180:	24 e0       	ldi	r18, 0x04	; 4
     182:	0e 94 38 04 	call	0x870	; 0x870 <pal_trx_bit_write>
     186:	0e 94 5d 00 	call	0xba	; 0xba <at86rf231_switch_pll_on>
     18a:	82 e0       	ldi	r24, 0x02	; 2
     18c:	69 e1       	ldi	r22, 0x19	; 25
     18e:	0e 94 c8 03 	call	0x790	; 0x790 <pal_trx_reg_write>
     192:	82 e0       	ldi	r24, 0x02	; 2
     194:	8a 95       	dec	r24
     196:	f1 f7       	brne	.-4      	; 0x194 <at86rf231_tx_with_retry+0x4e>
     198:	00 c0       	rjmp	.+0      	; 0x19a <at86rf231_tx_with_retry+0x54>
     19a:	81 e0       	ldi	r24, 0x01	; 1
     19c:	6f e1       	ldi	r22, 0x1F	; 31
     19e:	40 e0       	ldi	r20, 0x00	; 0
     1a0:	0e 94 26 04 	call	0x84c	; 0x84c <pal_trx_bit_read>
     1a4:	89 31       	cpi	r24, 0x19	; 25
     1a6:	89 f7       	brne	.-30     	; 0x18a <at86rf231_tx_with_retry+0x44>
     1a8:	10 92 00 01 	sts	0x0100, r1
     1ac:	81 e0       	ldi	r24, 0x01	; 1
     1ae:	80 93 7e 02 	sts	0x027E, r24
     1b2:	28 9a       	sbi	0x05, 0	; 5
	...
     1bc:	00 00       	nop
     1be:	28 98       	cbi	0x05, 0	; 5
     1c0:	60 91 80 01 	lds	r22, 0x0180
     1c4:	80 e8       	ldi	r24, 0x80	; 128
     1c6:	91 e0       	ldi	r25, 0x01	; 1
     1c8:	0e 94 10 04 	call	0x820	; 0x820 <pal_trx_frame_write>
     1cc:	80 91 00 01 	lds	r24, 0x0100
     1d0:	88 23       	and	r24, r24
     1d2:	e1 f3       	breq	.-8      	; 0x1cc <at86rf231_tx_with_retry+0x86>
     1d4:	1f 91       	pop	r17
     1d6:	0f 91       	pop	r16
     1d8:	08 95       	ret
     1da:	8c e2       	ldi	r24, 0x2C	; 44
     1dc:	60 ef       	ldi	r22, 0xF0	; 240
     1de:	44 e0       	ldi	r20, 0x04	; 4
     1e0:	20 e0       	ldi	r18, 0x00	; 0
     1e2:	0e 94 38 04 	call	0x870	; 0x870 <pal_trx_bit_write>
     1e6:	02 30       	cpi	r16, 0x02	; 2
     1e8:	08 f0       	brcs	.+2      	; 0x1ec <at86rf231_tx_with_retry+0xa6>
     1ea:	c3 cf       	rjmp	.-122    	; 0x172 <at86rf231_tx_with_retry+0x2c>
     1ec:	11 23       	and	r17, r17
     1ee:	59 f0       	breq	.+22     	; 0x206 <at86rf231_tx_with_retry+0xc0>
     1f0:	8c e2       	ldi	r24, 0x2C	; 44
     1f2:	6e e0       	ldi	r22, 0x0E	; 14
     1f4:	41 e0       	ldi	r20, 0x01	; 1
     1f6:	24 e0       	ldi	r18, 0x04	; 4
     1f8:	0e 94 38 04 	call	0x870	; 0x870 <pal_trx_bit_write>
     1fc:	8f e2       	ldi	r24, 0x2F	; 47
     1fe:	60 e0       	ldi	r22, 0x00	; 0
     200:	0e 94 c8 03 	call	0x790	; 0x790 <pal_trx_reg_write>
     204:	c0 cf       	rjmp	.-128    	; 0x186 <at86rf231_tx_with_retry+0x40>
     206:	8c e2       	ldi	r24, 0x2C	; 44
     208:	6e e0       	ldi	r22, 0x0E	; 14
     20a:	41 e0       	ldi	r20, 0x01	; 1
     20c:	27 e0       	ldi	r18, 0x07	; 7
     20e:	0e 94 38 04 	call	0x870	; 0x870 <pal_trx_bit_write>
     212:	b9 cf       	rjmp	.-142    	; 0x186 <at86rf231_tx_with_retry+0x40>

00000214 <at86rf231_req_data>:
     214:	83 e4       	ldi	r24, 0x43	; 67
     216:	80 93 80 01 	sts	0x0180, r24
     21a:	83 e2       	ldi	r24, 0x23	; 35
     21c:	98 e8       	ldi	r25, 0x88	; 136
     21e:	90 93 82 01 	sts	0x0182, r25
     222:	80 93 81 01 	sts	0x0181, r24
     226:	8f ef       	ldi	r24, 0xFF	; 255
     228:	80 93 83 01 	sts	0x0183, r24
     22c:	e0 91 04 01 	lds	r30, 0x0104
     230:	f0 91 05 01 	lds	r31, 0x0105
     234:	86 a9       	ldd	r24, Z+54	; 0x36
     236:	97 a9       	ldd	r25, Z+55	; 0x37
     238:	90 93 85 01 	sts	0x0185, r25
     23c:	80 93 84 01 	sts	0x0184, r24
     240:	24 a9       	ldd	r18, Z+52	; 0x34
     242:	35 a9       	ldd	r19, Z+53	; 0x35
     244:	30 93 87 01 	sts	0x0187, r19
     248:	20 93 86 01 	sts	0x0186, r18
     24c:	90 93 89 01 	sts	0x0189, r25
     250:	80 93 88 01 	sts	0x0188, r24
     254:	82 a9       	ldd	r24, Z+50	; 0x32
     256:	93 a9       	ldd	r25, Z+51	; 0x33
     258:	90 93 8b 01 	sts	0x018B, r25
     25c:	80 93 8a 01 	sts	0x018A, r24
     260:	78 94       	sei
     262:	80 e0       	ldi	r24, 0x00	; 0
     264:	61 e0       	ldi	r22, 0x01	; 1
     266:	0e 94 a3 00 	call	0x146	; 0x146 <at86rf231_tx_with_retry>
     26a:	80 e0       	ldi	r24, 0x00	; 0
     26c:	90 e0       	ldi	r25, 0x00	; 0
     26e:	fc 01       	movw	r30, r24
     270:	e1 50       	subi	r30, 0x01	; 1
     272:	fe 4f       	sbci	r31, 0xFE	; 254
     274:	14 86       	std	Z+12, r1	; 0x0c
     276:	01 96       	adiw	r24, 0x01	; 1
     278:	83 37       	cpi	r24, 0x73	; 115
     27a:	91 05       	cpc	r25, r1
     27c:	c1 f7       	brne	.-16     	; 0x26e <at86rf231_req_data+0x5a>
     27e:	0e 94 7e 00 	call	0xfc	; 0xfc <at86rf231_rx_with_auto_ack>
     282:	08 95       	ret

00000284 <at86rf231_change_channel>:
     284:	1f 93       	push	r17
     286:	18 2f       	mov	r17, r24
     288:	40 e0       	ldi	r20, 0x00	; 0
     28a:	58 ef       	ldi	r21, 0xF8	; 248
     28c:	6f ef       	ldi	r22, 0xFF	; 255
     28e:	77 e0       	ldi	r23, 0x07	; 7
     290:	08 2e       	mov	r0, r24
     292:	04 c0       	rjmp	.+8      	; 0x29c <at86rf231_change_channel+0x18>
     294:	76 95       	lsr	r23
     296:	67 95       	ror	r22
     298:	57 95       	ror	r21
     29a:	47 95       	ror	r20
     29c:	0a 94       	dec	r0
     29e:	d2 f7       	brpl	.-12     	; 0x294 <at86rf231_change_channel+0x10>
     2a0:	41 70       	andi	r20, 0x01	; 1
     2a2:	50 70       	andi	r21, 0x00	; 0
     2a4:	41 15       	cp	r20, r1
     2a6:	51 05       	cpc	r21, r1
     2a8:	39 f4       	brne	.+14     	; 0x2b8 <at86rf231_change_channel+0x34>
     2aa:	88 e0       	ldi	r24, 0x08	; 8
     2ac:	6f e1       	ldi	r22, 0x1F	; 31
     2ae:	40 e0       	ldi	r20, 0x00	; 0
     2b0:	0e 94 26 04 	call	0x84c	; 0x84c <pal_trx_bit_read>
     2b4:	1f 91       	pop	r17
     2b6:	08 95       	ret
     2b8:	82 e0       	ldi	r24, 0x02	; 2
     2ba:	68 e0       	ldi	r22, 0x08	; 8
     2bc:	0e 94 c8 03 	call	0x790	; 0x790 <pal_trx_reg_write>
     2c0:	81 e0       	ldi	r24, 0x01	; 1
     2c2:	6f e1       	ldi	r22, 0x1F	; 31
     2c4:	40 e0       	ldi	r20, 0x00	; 0
     2c6:	0e 94 26 04 	call	0x84c	; 0x84c <pal_trx_bit_read>
     2ca:	88 30       	cpi	r24, 0x08	; 8
     2cc:	c9 f7       	brne	.-14     	; 0x2c0 <at86rf231_change_channel+0x3c>
     2ce:	6f e1       	ldi	r22, 0x1F	; 31
     2d0:	40 e0       	ldi	r20, 0x00	; 0
     2d2:	21 2f       	mov	r18, r17
     2d4:	0e 94 38 04 	call	0x870	; 0x870 <pal_trx_bit_write>
     2d8:	88 e0       	ldi	r24, 0x08	; 8
     2da:	6f e1       	ldi	r22, 0x1F	; 31
     2dc:	40 e0       	ldi	r20, 0x00	; 0
     2de:	0e 94 26 04 	call	0x84c	; 0x84c <pal_trx_bit_read>
     2e2:	1f 91       	pop	r17
     2e4:	08 95       	ret

000002e6 <at86rf231_change_channel_page>:
     2e6:	1f 93       	push	r17
     2e8:	18 2f       	mov	r17, r24
     2ea:	82 e0       	ldi	r24, 0x02	; 2
     2ec:	68 e0       	ldi	r22, 0x08	; 8
     2ee:	0e 94 c8 03 	call	0x790	; 0x790 <pal_trx_reg_write>
     2f2:	81 e0       	ldi	r24, 0x01	; 1
     2f4:	6f e1       	ldi	r22, 0x1F	; 31
     2f6:	40 e0       	ldi	r20, 0x00	; 0
     2f8:	0e 94 26 04 	call	0x84c	; 0x84c <pal_trx_bit_read>
     2fc:	88 30       	cpi	r24, 0x08	; 8
     2fe:	c9 f7       	brne	.-14     	; 0x2f2 <at86rf231_change_channel_page+0xc>
     300:	12 30       	cpi	r17, 0x02	; 2
     302:	a9 f1       	breq	.+106    	; 0x36e <at86rf231_change_channel_page+0x88>
     304:	13 30       	cpi	r17, 0x03	; 3
     306:	38 f0       	brcs	.+14     	; 0x316 <at86rf231_change_channel_page+0x30>
     308:	10 31       	cpi	r17, 0x10	; 16
     30a:	e1 f1       	breq	.+120    	; 0x384 <at86rf231_change_channel_page+0x9e>
     30c:	11 31       	cpi	r17, 0x11	; 17
     30e:	d1 f0       	breq	.+52     	; 0x344 <at86rf231_change_channel_page+0x5e>
     310:	80 e0       	ldi	r24, 0x00	; 0
     312:	1f 91       	pop	r17
     314:	08 95       	ret
     316:	11 23       	and	r17, r17
     318:	d9 f7       	brne	.-10     	; 0x310 <at86rf231_change_channel_page+0x2a>
     31a:	8c e0       	ldi	r24, 0x0C	; 12
     31c:	63 e0       	ldi	r22, 0x03	; 3
     31e:	40 e0       	ldi	r20, 0x00	; 0
     320:	20 e0       	ldi	r18, 0x00	; 0
     322:	0e 94 38 04 	call	0x870	; 0x870 <pal_trx_bit_write>
     326:	87 e1       	ldi	r24, 0x17	; 23
     328:	64 e0       	ldi	r22, 0x04	; 4
     32a:	42 e0       	ldi	r20, 0x02	; 2
     32c:	20 e0       	ldi	r18, 0x00	; 0
     32e:	0e 94 38 04 	call	0x870	; 0x870 <pal_trx_bit_write>
     332:	85 e1       	ldi	r24, 0x15	; 21
     334:	6f e0       	ldi	r22, 0x0F	; 15
     336:	40 e0       	ldi	r20, 0x00	; 0
     338:	20 e0       	ldi	r18, 0x00	; 0
     33a:	0e 94 38 04 	call	0x870	; 0x870 <pal_trx_bit_write>
     33e:	81 e0       	ldi	r24, 0x01	; 1
     340:	1f 91       	pop	r17
     342:	08 95       	ret
     344:	8c e0       	ldi	r24, 0x0C	; 12
     346:	63 e0       	ldi	r22, 0x03	; 3
     348:	40 e0       	ldi	r20, 0x00	; 0
     34a:	23 e0       	ldi	r18, 0x03	; 3
     34c:	0e 94 38 04 	call	0x870	; 0x870 <pal_trx_bit_write>
     350:	87 e1       	ldi	r24, 0x17	; 23
     352:	64 e0       	ldi	r22, 0x04	; 4
     354:	42 e0       	ldi	r20, 0x02	; 2
     356:	21 e0       	ldi	r18, 0x01	; 1
     358:	0e 94 38 04 	call	0x870	; 0x870 <pal_trx_bit_write>
     35c:	85 e1       	ldi	r24, 0x15	; 21
     35e:	6f e0       	ldi	r22, 0x0F	; 15
     360:	40 e0       	ldi	r20, 0x00	; 0
     362:	21 e0       	ldi	r18, 0x01	; 1
     364:	0e 94 38 04 	call	0x870	; 0x870 <pal_trx_bit_write>
     368:	81 e0       	ldi	r24, 0x01	; 1
     36a:	1f 91       	pop	r17
     36c:	08 95       	ret
     36e:	8c e0       	ldi	r24, 0x0C	; 12
     370:	63 e0       	ldi	r22, 0x03	; 3
     372:	40 e0       	ldi	r20, 0x00	; 0
     374:	21 e0       	ldi	r18, 0x01	; 1
     376:	0e 94 38 04 	call	0x870	; 0x870 <pal_trx_bit_write>
     37a:	87 e1       	ldi	r24, 0x17	; 23
     37c:	64 e0       	ldi	r22, 0x04	; 4
     37e:	42 e0       	ldi	r20, 0x02	; 2
     380:	21 e0       	ldi	r18, 0x01	; 1
     382:	d5 cf       	rjmp	.-86     	; 0x32e <at86rf231_change_channel_page+0x48>
     384:	8c e0       	ldi	r24, 0x0C	; 12
     386:	63 e0       	ldi	r22, 0x03	; 3
     388:	40 e0       	ldi	r20, 0x00	; 0
     38a:	22 e0       	ldi	r18, 0x02	; 2
     38c:	f4 cf       	rjmp	.-24     	; 0x376 <at86rf231_change_channel_page+0x90>

0000038e <at86rf231_init>:
     38e:	3f 9a       	sbi	0x07, 7	; 7
     390:	27 9a       	sbi	0x04, 7	; 4
     392:	3e 9a       	sbi	0x07, 6	; 7
     394:	25 9a       	sbi	0x04, 5	; 4
     396:	20 9a       	sbi	0x04, 0	; 4
     398:	26 98       	cbi	0x04, 6	; 4
     39a:	0e 94 bf 03 	call	0x77e	; 0x77e <trx_interface_init>
     39e:	80 e0       	ldi	r24, 0x00	; 0
     3a0:	6a ed       	ldi	r22, 0xDA	; 218
     3a2:	72 e0       	ldi	r23, 0x02	; 2
     3a4:	0e 94 e3 04 	call	0x9c6	; 0x9c6 <pal_trx_irq_init>
     3a8:	e8 9a       	sbi	0x1d, 0	; 29
     3aa:	46 9a       	sbi	0x08, 6	; 8
     3ac:	28 98       	cbi	0x05, 0	; 5
     3ae:	83 e9       	ldi	r24, 0x93	; 147
     3b0:	92 e0       	ldi	r25, 0x02	; 2
     3b2:	01 97       	sbiw	r24, 0x01	; 1
     3b4:	f1 f7       	brne	.-4      	; 0x3b2 <at86rf231_init+0x24>
     3b6:	00 c0       	rjmp	.+0      	; 0x3b8 <at86rf231_init+0x2a>
     3b8:	00 00       	nop
     3ba:	46 98       	cbi	0x08, 6	; 8
     3bc:	92 e0       	ldi	r25, 0x02	; 2
     3be:	9a 95       	dec	r25
     3c0:	f1 f7       	brne	.-4      	; 0x3be <at86rf231_init+0x30>
     3c2:	00 c0       	rjmp	.+0      	; 0x3c4 <at86rf231_init+0x36>
     3c4:	46 9a       	sbi	0x08, 6	; 8
     3c6:	8d e1       	ldi	r24, 0x1D	; 29
     3c8:	0e 94 d9 03 	call	0x7b2	; 0x7b2 <pal_trx_reg_read>
     3cc:	82 30       	cpi	r24, 0x02	; 2
     3ce:	d9 f7       	brne	.-10     	; 0x3c6 <at86rf231_init+0x38>
     3d0:	8c e1       	ldi	r24, 0x1C	; 28
     3d2:	0e 94 d9 03 	call	0x7b2	; 0x7b2 <pal_trx_reg_read>
     3d6:	83 30       	cpi	r24, 0x03	; 3
     3d8:	b1 f7       	brne	.-20     	; 0x3c6 <at86rf231_init+0x38>
     3da:	82 e0       	ldi	r24, 0x02	; 2
     3dc:	68 e0       	ldi	r22, 0x08	; 8
     3de:	0e 94 c8 03 	call	0x790	; 0x790 <pal_trx_reg_write>
     3e2:	81 e0       	ldi	r24, 0x01	; 1
     3e4:	6f e1       	ldi	r22, 0x1F	; 31
     3e6:	40 e0       	ldi	r20, 0x00	; 0
     3e8:	0e 94 26 04 	call	0x84c	; 0x84c <pal_trx_bit_read>
     3ec:	88 30       	cpi	r24, 0x08	; 8
     3ee:	c9 f7       	brne	.-14     	; 0x3e2 <at86rf231_init+0x54>
     3f0:	83 e0       	ldi	r24, 0x03	; 3
     3f2:	60 e3       	ldi	r22, 0x30	; 48
     3f4:	44 e0       	ldi	r20, 0x04	; 4
     3f6:	20 e0       	ldi	r18, 0x00	; 0
     3f8:	0e 94 38 04 	call	0x870	; 0x870 <pal_trx_bit_write>
     3fc:	83 e0       	ldi	r24, 0x03	; 3
     3fe:	68 e0       	ldi	r22, 0x08	; 8
     400:	43 e0       	ldi	r20, 0x03	; 3
     402:	20 e0       	ldi	r18, 0x00	; 0
     404:	0e 94 38 04 	call	0x870	; 0x870 <pal_trx_bit_write>
     408:	83 e0       	ldi	r24, 0x03	; 3
     40a:	67 e0       	ldi	r22, 0x07	; 7
     40c:	40 e0       	ldi	r20, 0x00	; 0
     40e:	21 e0       	ldi	r18, 0x01	; 1
     410:	0e 94 38 04 	call	0x870	; 0x870 <pal_trx_bit_write>
     414:	8e e2       	ldi	r24, 0x2E	; 46
     416:	60 e2       	ldi	r22, 0x20	; 32
     418:	45 e0       	ldi	r20, 0x05	; 5
     41a:	21 e0       	ldi	r18, 0x01	; 1
     41c:	0e 94 38 04 	call	0x870	; 0x870 <pal_trx_bit_write>
     420:	8c e0       	ldi	r24, 0x0C	; 12
     422:	60 e8       	ldi	r22, 0x80	; 128
     424:	47 e0       	ldi	r20, 0x07	; 7
     426:	21 e0       	ldi	r18, 0x01	; 1
     428:	0e 94 38 04 	call	0x870	; 0x870 <pal_trx_bit_write>
     42c:	84 e0       	ldi	r24, 0x04	; 4
     42e:	62 e0       	ldi	r22, 0x02	; 2
     430:	41 e0       	ldi	r20, 0x01	; 1
     432:	21 e0       	ldi	r18, 0x01	; 1
     434:	0e 94 38 04 	call	0x870	; 0x870 <pal_trx_bit_write>
     438:	8e e0       	ldi	r24, 0x0E	; 14
     43a:	68 e0       	ldi	r22, 0x08	; 8
     43c:	0e 94 c8 03 	call	0x790	; 0x790 <pal_trx_reg_write>
     440:	84 e0       	ldi	r24, 0x04	; 4
     442:	60 e4       	ldi	r22, 0x40	; 64
     444:	46 e0       	ldi	r20, 0x06	; 6
     446:	21 e0       	ldi	r18, 0x01	; 1
     448:	0e 94 38 04 	call	0x870	; 0x870 <pal_trx_bit_write>
     44c:	e0 91 04 01 	lds	r30, 0x0104
     450:	f0 91 05 01 	lds	r31, 0x0105
     454:	82 e2       	ldi	r24, 0x22	; 34
     456:	66 a9       	ldd	r22, Z+54	; 0x36
     458:	0e 94 c8 03 	call	0x790	; 0x790 <pal_trx_reg_write>
     45c:	e0 91 04 01 	lds	r30, 0x0104
     460:	f0 91 05 01 	lds	r31, 0x0105
     464:	67 a9       	ldd	r22, Z+55	; 0x37
     466:	83 e2       	ldi	r24, 0x23	; 35
     468:	0e 94 c8 03 	call	0x790	; 0x790 <pal_trx_reg_write>
     46c:	e0 91 04 01 	lds	r30, 0x0104
     470:	f0 91 05 01 	lds	r31, 0x0105
     474:	80 e2       	ldi	r24, 0x20	; 32
     476:	62 a9       	ldd	r22, Z+50	; 0x32
     478:	0e 94 c8 03 	call	0x790	; 0x790 <pal_trx_reg_write>
     47c:	e0 91 04 01 	lds	r30, 0x0104
     480:	f0 91 05 01 	lds	r31, 0x0105
     484:	63 a9       	ldd	r22, Z+51	; 0x33
     486:	81 e2       	ldi	r24, 0x21	; 33
     488:	0e 94 c8 03 	call	0x790	; 0x790 <pal_trx_reg_write>
     48c:	88 e0       	ldi	r24, 0x08	; 8
     48e:	60 e6       	ldi	r22, 0x60	; 96
     490:	45 e0       	ldi	r20, 0x05	; 5
     492:	21 e0       	ldi	r18, 0x01	; 1
     494:	0e 94 38 04 	call	0x870	; 0x870 <pal_trx_bit_write>
     498:	8f e2       	ldi	r24, 0x2F	; 47
     49a:	6f e0       	ldi	r22, 0x0F	; 15
     49c:	40 e0       	ldi	r20, 0x00	; 0
     49e:	23 e0       	ldi	r18, 0x03	; 3
     4a0:	0e 94 38 04 	call	0x870	; 0x870 <pal_trx_bit_write>
     4a4:	8e e2       	ldi	r24, 0x2E	; 46
     4a6:	68 e0       	ldi	r22, 0x08	; 8
     4a8:	43 e0       	ldi	r20, 0x03	; 3
     4aa:	20 e0       	ldi	r18, 0x00	; 0
     4ac:	0e 94 38 04 	call	0x870	; 0x870 <pal_trx_bit_write>
     4b0:	8f e2       	ldi	r24, 0x2F	; 47
     4b2:	60 ef       	ldi	r22, 0xF0	; 240
     4b4:	44 e0       	ldi	r20, 0x04	; 4
     4b6:	25 e0       	ldi	r18, 0x05	; 5
     4b8:	0e 94 38 04 	call	0x870	; 0x870 <pal_trx_bit_write>
     4bc:	e0 91 04 01 	lds	r30, 0x0104
     4c0:	f0 91 05 01 	lds	r31, 0x0105
     4c4:	81 ad       	ldd	r24, Z+57	; 0x39
     4c6:	0e 94 73 01 	call	0x2e6	; 0x2e6 <at86rf231_change_channel_page>
     4ca:	88 e0       	ldi	r24, 0x08	; 8
     4cc:	6f e1       	ldi	r22, 0x1F	; 31
     4ce:	40 e0       	ldi	r20, 0x00	; 0
     4d0:	2a e1       	ldi	r18, 0x1A	; 26
     4d2:	0e 94 38 04 	call	0x870	; 0x870 <pal_trx_bit_write>
     4d6:	e0 91 04 01 	lds	r30, 0x0104
     4da:	f0 91 05 01 	lds	r31, 0x0105
     4de:	85 e0       	ldi	r24, 0x05	; 5
     4e0:	6f e0       	ldi	r22, 0x0F	; 15
     4e2:	40 e0       	ldi	r20, 0x00	; 0
     4e4:	22 ad       	ldd	r18, Z+58	; 0x3a
     4e6:	0e 94 38 04 	call	0x870	; 0x870 <pal_trx_bit_write>
     4ea:	10 92 7e 02 	sts	0x027E, r1
     4ee:	08 95       	ret

000004f0 <at86rf231_change_tx_pwr>:
     4f0:	1f 93       	push	r17
     4f2:	18 2f       	mov	r17, r24
     4f4:	80 31       	cpi	r24, 0x10	; 16
     4f6:	18 f0       	brcs	.+6      	; 0x4fe <at86rf231_change_tx_pwr+0xe>
     4f8:	8f ef       	ldi	r24, 0xFF	; 255
     4fa:	1f 91       	pop	r17
     4fc:	08 95       	ret
     4fe:	82 e0       	ldi	r24, 0x02	; 2
     500:	68 e0       	ldi	r22, 0x08	; 8
     502:	0e 94 c8 03 	call	0x790	; 0x790 <pal_trx_reg_write>
     506:	81 e0       	ldi	r24, 0x01	; 1
     508:	6f e1       	ldi	r22, 0x1F	; 31
     50a:	40 e0       	ldi	r20, 0x00	; 0
     50c:	0e 94 26 04 	call	0x84c	; 0x84c <pal_trx_bit_read>
     510:	88 30       	cpi	r24, 0x08	; 8
     512:	c9 f7       	brne	.-14     	; 0x506 <at86rf231_change_tx_pwr+0x16>
     514:	85 e0       	ldi	r24, 0x05	; 5
     516:	6f e0       	ldi	r22, 0x0F	; 15
     518:	40 e0       	ldi	r20, 0x00	; 0
     51a:	21 2f       	mov	r18, r17
     51c:	0e 94 38 04 	call	0x870	; 0x870 <pal_trx_bit_write>
     520:	85 e0       	ldi	r24, 0x05	; 5
     522:	6f e0       	ldi	r22, 0x0F	; 15
     524:	40 e0       	ldi	r20, 0x00	; 0
     526:	0e 94 26 04 	call	0x84c	; 0x84c <pal_trx_bit_read>
     52a:	1f 91       	pop	r17
     52c:	08 95       	ret

0000052e <at86rf231_ftn_pll_calibration>:
     52e:	82 e0       	ldi	r24, 0x02	; 2
     530:	63 e0       	ldi	r22, 0x03	; 3
     532:	0e 94 c8 03 	call	0x790	; 0x790 <pal_trx_reg_write>
     536:	88 e1       	ldi	r24, 0x18	; 24
     538:	60 e8       	ldi	r22, 0x80	; 128
     53a:	47 e0       	ldi	r20, 0x07	; 7
     53c:	21 e0       	ldi	r18, 0x01	; 1
     53e:	0e 94 38 04 	call	0x870	; 0x870 <pal_trx_bit_write>
     542:	82 e4       	ldi	r24, 0x42	; 66
     544:	8a 95       	dec	r24
     546:	f1 f7       	brne	.-4      	; 0x544 <at86rf231_ftn_pll_calibration+0x16>
     548:	00 c0       	rjmp	.+0      	; 0x54a <at86rf231_ftn_pll_calibration+0x1c>
     54a:	08 95       	ret

0000054c <handle_received_frame_irq>:
     54c:	df 93       	push	r29
     54e:	cf 93       	push	r28
     550:	0f 92       	push	r0
     552:	cd b7       	in	r28, 0x3d	; 61
     554:	de b7       	in	r29, 0x3e	; 62
     556:	87 e0       	ldi	r24, 0x07	; 7
     558:	0e 94 d9 03 	call	0x7b2	; 0x7b2 <pal_trx_reg_read>
     55c:	80 93 06 01 	sts	0x0106, r24
     560:	ce 01       	movw	r24, r28
     562:	01 96       	adiw	r24, 0x01	; 1
     564:	61 e0       	ldi	r22, 0x01	; 1
     566:	0e 94 eb 03 	call	0x7d6	; 0x7d6 <pal_trx_frame_read>
     56a:	89 81       	ldd	r24, Y+1	; 0x01
     56c:	87 fd       	sbrc	r24, 7
     56e:	07 c0       	rjmp	.+14     	; 0x57e <handle_received_frame_irq+0x32>
     570:	86 e0       	ldi	r24, 0x06	; 6
     572:	60 e8       	ldi	r22, 0x80	; 128
     574:	47 e0       	ldi	r20, 0x07	; 7
     576:	0e 94 26 04 	call	0x84c	; 0x84c <pal_trx_bit_read>
     57a:	88 23       	and	r24, r24
     57c:	21 f4       	brne	.+8      	; 0x586 <handle_received_frame_irq+0x3a>
     57e:	0f 90       	pop	r0
     580:	cf 91       	pop	r28
     582:	df 91       	pop	r29
     584:	08 95       	ret
     586:	69 81       	ldd	r22, Y+1	; 0x01
     588:	6e 5f       	subi	r22, 0xFE	; 254
     58a:	69 83       	std	Y+1, r22	; 0x01
     58c:	8f ef       	ldi	r24, 0xFF	; 255
     58e:	91 e0       	ldi	r25, 0x01	; 1
     590:	0e 94 eb 03 	call	0x7d6	; 0x7d6 <pal_trx_frame_read>
     594:	80 91 00 02 	lds	r24, 0x0200
     598:	90 91 01 02 	lds	r25, 0x0201
     59c:	87 70       	andi	r24, 0x07	; 7
     59e:	90 70       	andi	r25, 0x00	; 0
     5a0:	83 30       	cpi	r24, 0x03	; 3
     5a2:	91 05       	cpc	r25, r1
     5a4:	61 f7       	brne	.-40     	; 0x57e <handle_received_frame_irq+0x32>
     5a6:	80 91 0b 02 	lds	r24, 0x020B
     5aa:	80 34       	cpi	r24, 0x40	; 64
     5ac:	41 f7       	brne	.-48     	; 0x57e <handle_received_frame_irq+0x32>
     5ae:	0e 94 93 38 	call	0x7126	; 0x7126 <bootloader>
     5b2:	e5 cf       	rjmp	.-54     	; 0x57e <handle_received_frame_irq+0x32>

000005b4 <trx_irq_handler_cb>:
     5b4:	8f e0       	ldi	r24, 0x0F	; 15
     5b6:	0e 94 d9 03 	call	0x7b2	; 0x7b2 <pal_trx_reg_read>
     5ba:	83 ff       	sbrs	r24, 3
     5bc:	05 c0       	rjmp	.+10     	; 0x5c8 <trx_irq_handler_cb+0x14>
     5be:	20 91 7e 02 	lds	r18, 0x027E
     5c2:	21 30       	cpi	r18, 0x01	; 1
     5c4:	29 f0       	breq	.+10     	; 0x5d0 <trx_irq_handler_cb+0x1c>
     5c6:	85 ff       	sbrs	r24, 5
     5c8:	08 95       	ret
     5ca:	0e 94 a6 02 	call	0x54c	; 0x54c <handle_received_frame_irq>
     5ce:	08 95       	ret
     5d0:	86 fd       	sbrc	r24, 6
     5d2:	09 c0       	rjmp	.+18     	; 0x5e6 <trx_irq_handler_cb+0x32>
     5d4:	82 e0       	ldi	r24, 0x02	; 2
     5d6:	60 ee       	ldi	r22, 0xE0	; 224
     5d8:	45 e0       	ldi	r20, 0x05	; 5
     5da:	0e 94 26 04 	call	0x84c	; 0x84c <pal_trx_bit_read>
     5de:	82 e0       	ldi	r24, 0x02	; 2
     5e0:	66 e0       	ldi	r22, 0x06	; 6
     5e2:	0e 94 c8 03 	call	0x790	; 0x790 <pal_trx_reg_write>
     5e6:	81 e0       	ldi	r24, 0x01	; 1
     5e8:	80 93 00 01 	sts	0x0100, r24
     5ec:	82 e0       	ldi	r24, 0x02	; 2
     5ee:	80 93 7e 02 	sts	0x027E, r24
     5f2:	08 95       	ret

000005f4 <ds620_twi_init>:
     5f4:	38 98       	cbi	0x07, 0	; 7
     5f6:	40 9a       	sbi	0x08, 0	; 8
     5f8:	39 98       	cbi	0x07, 1	; 7
     5fa:	41 9a       	sbi	0x08, 1	; 8
     5fc:	84 e0       	ldi	r24, 0x04	; 4
     5fe:	80 93 b8 00 	sts	0x00B8, r24
     602:	10 92 bc 00 	sts	0x00BC, r1
     606:	88 ef       	ldi	r24, 0xF8	; 248
     608:	80 93 b9 00 	sts	0x00B9, r24
     60c:	08 95       	ret

0000060e <ds620_twi_start>:
     60e:	94 ea       	ldi	r25, 0xA4	; 164
     610:	90 93 bc 00 	sts	0x00BC, r25
     614:	ec eb       	ldi	r30, 0xBC	; 188
     616:	f0 e0       	ldi	r31, 0x00	; 0
     618:	90 81       	ld	r25, Z
     61a:	99 23       	and	r25, r25
     61c:	ec f7       	brge	.-6      	; 0x618 <ds620_twi_start+0xa>
     61e:	80 93 bb 00 	sts	0x00BB, r24
     622:	84 e8       	ldi	r24, 0x84	; 132
     624:	80 93 bc 00 	sts	0x00BC, r24
     628:	ec eb       	ldi	r30, 0xBC	; 188
     62a:	f0 e0       	ldi	r31, 0x00	; 0
     62c:	80 81       	ld	r24, Z
     62e:	88 23       	and	r24, r24
     630:	ec f7       	brge	.-6      	; 0x62c <ds620_twi_start+0x1e>
     632:	90 91 b9 00 	lds	r25, 0x00B9
     636:	98 7f       	andi	r25, 0xF8	; 248
     638:	81 e0       	ldi	r24, 0x01	; 1
     63a:	90 34       	cpi	r25, 0x40	; 64
     63c:	09 f0       	breq	.+2      	; 0x640 <ds620_twi_start+0x32>
     63e:	80 e0       	ldi	r24, 0x00	; 0
     640:	08 95       	ret

00000642 <ds620_twi_send>:
     642:	80 93 bb 00 	sts	0x00BB, r24
     646:	84 e8       	ldi	r24, 0x84	; 132
     648:	80 93 bc 00 	sts	0x00BC, r24
     64c:	ec eb       	ldi	r30, 0xBC	; 188
     64e:	f0 e0       	ldi	r31, 0x00	; 0
     650:	80 81       	ld	r24, Z
     652:	88 23       	and	r24, r24
     654:	ec f7       	brge	.-6      	; 0x650 <ds620_twi_send+0xe>
     656:	08 95       	ret

00000658 <ds620_twi_read>:
     658:	88 23       	and	r24, r24
     65a:	21 f0       	breq	.+8      	; 0x664 <ds620_twi_read+0xc>
     65c:	84 ec       	ldi	r24, 0xC4	; 196
     65e:	80 93 bc 00 	sts	0x00BC, r24
     662:	03 c0       	rjmp	.+6      	; 0x66a <ds620_twi_read+0x12>
     664:	84 e8       	ldi	r24, 0x84	; 132
     666:	80 93 bc 00 	sts	0x00BC, r24
     66a:	ec eb       	ldi	r30, 0xBC	; 188
     66c:	f0 e0       	ldi	r31, 0x00	; 0
     66e:	80 81       	ld	r24, Z
     670:	88 23       	and	r24, r24
     672:	ec f7       	brge	.-6      	; 0x66e <ds620_twi_read+0x16>
     674:	80 91 bb 00 	lds	r24, 0x00BB
     678:	08 95       	ret

0000067a <ds620_twi_stop>:
     67a:	84 e9       	ldi	r24, 0x94	; 148
     67c:	80 93 bc 00 	sts	0x00BC, r24
     680:	08 95       	ret

00000682 <ds620_init>:
     682:	0e 94 fa 02 	call	0x5f4	; 0x5f4 <ds620_twi_init>
     686:	80 e9       	ldi	r24, 0x90	; 144
     688:	0e 94 07 03 	call	0x60e	; 0x60e <ds620_twi_start>
     68c:	8c ea       	ldi	r24, 0xAC	; 172
     68e:	0e 94 21 03 	call	0x642	; 0x642 <ds620_twi_send>
     692:	88 e0       	ldi	r24, 0x08	; 8
     694:	0e 94 21 03 	call	0x642	; 0x642 <ds620_twi_send>
     698:	80 e9       	ldi	r24, 0x90	; 144
     69a:	0e 94 07 03 	call	0x60e	; 0x60e <ds620_twi_start>
     69e:	81 e5       	ldi	r24, 0x51	; 81
     6a0:	0e 94 21 03 	call	0x642	; 0x642 <ds620_twi_send>
     6a4:	0e 94 3d 03 	call	0x67a	; 0x67a <ds620_twi_stop>
     6a8:	08 95       	ret

000006aa <ds620_stop_convert>:
     6aa:	80 e9       	ldi	r24, 0x90	; 144
     6ac:	0e 94 07 03 	call	0x60e	; 0x60e <ds620_twi_start>
     6b0:	82 e2       	ldi	r24, 0x22	; 34
     6b2:	0e 94 21 03 	call	0x642	; 0x642 <ds620_twi_send>
     6b6:	0e 94 3d 03 	call	0x67a	; 0x67a <ds620_twi_stop>
     6ba:	08 95       	ret

000006bc <ds620_start_convert>:
     6bc:	80 e9       	ldi	r24, 0x90	; 144
     6be:	0e 94 07 03 	call	0x60e	; 0x60e <ds620_twi_start>
     6c2:	81 e5       	ldi	r24, 0x51	; 81
     6c4:	0e 94 21 03 	call	0x642	; 0x642 <ds620_twi_send>
     6c8:	0e 94 3d 03 	call	0x67a	; 0x67a <ds620_twi_stop>
     6cc:	08 95       	ret

000006ce <ds620_get_temperature>:
     6ce:	0f 93       	push	r16
     6d0:	1f 93       	push	r17
     6d2:	80 e9       	ldi	r24, 0x90	; 144
     6d4:	0e 94 07 03 	call	0x60e	; 0x60e <ds620_twi_start>
     6d8:	8a ea       	ldi	r24, 0xAA	; 170
     6da:	0e 94 21 03 	call	0x642	; 0x642 <ds620_twi_send>
     6de:	81 e9       	ldi	r24, 0x91	; 145
     6e0:	0e 94 07 03 	call	0x60e	; 0x60e <ds620_twi_start>
     6e4:	81 e0       	ldi	r24, 0x01	; 1
     6e6:	0e 94 2c 03 	call	0x658	; 0x658 <ds620_twi_read>
     6ea:	08 2f       	mov	r16, r24
     6ec:	80 e0       	ldi	r24, 0x00	; 0
     6ee:	0e 94 2c 03 	call	0x658	; 0x658 <ds620_twi_read>
     6f2:	18 2f       	mov	r17, r24
     6f4:	0e 94 3d 03 	call	0x67a	; 0x67a <ds620_twi_stop>
     6f8:	50 2f       	mov	r21, r16
     6fa:	40 e0       	ldi	r20, 0x00	; 0
     6fc:	21 2f       	mov	r18, r17
     6fe:	30 e0       	ldi	r19, 0x00	; 0
     700:	24 2b       	or	r18, r20
     702:	35 2b       	or	r19, r21
     704:	82 2f       	mov	r24, r18
     706:	93 2f       	mov	r25, r19
     708:	1f 91       	pop	r17
     70a:	0f 91       	pop	r16
     70c:	08 95       	ret

0000070e <eeprom_read_config>:
     70e:	0f 93       	push	r16
     710:	1f 93       	push	r17
     712:	cf 93       	push	r28
     714:	df 93       	push	r29
     716:	18 2f       	mov	r17, r24
     718:	09 2f       	mov	r16, r25
     71a:	80 e0       	ldi	r24, 0x00	; 0
     71c:	90 e0       	ldi	r25, 0x00	; 0
     71e:	0e 94 55 1a 	call	0x34aa	; 0x34aa <__eerd_byte_m324p>
     722:	8f 3f       	cpi	r24, 0xFF	; 255
     724:	81 f0       	breq	.+32     	; 0x746 <eeprom_read_config+0x38>
     726:	90 2f       	mov	r25, r16
     728:	01 2f       	mov	r16, r17
     72a:	19 2f       	mov	r17, r25
     72c:	c0 e0       	ldi	r28, 0x00	; 0
     72e:	d0 e0       	ldi	r29, 0x00	; 0
     730:	03 c0       	rjmp	.+6      	; 0x738 <eeprom_read_config+0x2a>
     732:	ce 01       	movw	r24, r28
     734:	0e 94 55 1a 	call	0x34aa	; 0x34aa <__eerd_byte_m324p>
     738:	f8 01       	movw	r30, r16
     73a:	81 93       	st	Z+, r24
     73c:	8f 01       	movw	r16, r30
     73e:	21 96       	adiw	r28, 0x01	; 1
     740:	c7 36       	cpi	r28, 0x67	; 103
     742:	d1 05       	cpc	r29, r1
     744:	b1 f7       	brne	.-20     	; 0x732 <eeprom_read_config+0x24>
     746:	df 91       	pop	r29
     748:	cf 91       	pop	r28
     74a:	1f 91       	pop	r17
     74c:	0f 91       	pop	r16
     74e:	08 95       	ret

00000750 <eeprom_save_config>:
     750:	0f 93       	push	r16
     752:	1f 93       	push	r17
     754:	cf 93       	push	r28
     756:	df 93       	push	r29
     758:	08 2f       	mov	r16, r24
     75a:	19 2f       	mov	r17, r25
     75c:	c0 e0       	ldi	r28, 0x00	; 0
     75e:	d0 e0       	ldi	r29, 0x00	; 0
     760:	f8 01       	movw	r30, r16
     762:	61 91       	ld	r22, Z+
     764:	8f 01       	movw	r16, r30
     766:	ce 01       	movw	r24, r28
     768:	0e 94 5d 1a 	call	0x34ba	; 0x34ba <__eewr_byte_m324p>
     76c:	21 96       	adiw	r28, 0x01	; 1
     76e:	c7 36       	cpi	r28, 0x67	; 103
     770:	d1 05       	cpc	r29, r1
     772:	b1 f7       	brne	.-20     	; 0x760 <eeprom_save_config+0x10>
     774:	df 91       	pop	r29
     776:	cf 91       	pop	r28
     778:	1f 91       	pop	r17
     77a:	0f 91       	pop	r16
     77c:	08 95       	ret

0000077e <trx_interface_init>:
     77e:	80 e5       	ldi	r24, 0x50	; 80
     780:	8c bd       	out	0x2c, r24	; 44
     782:	81 e0       	ldi	r24, 0x01	; 1
     784:	8d bd       	out	0x2d, r24	; 45
     786:	8c b5       	in	r24, 0x2c	; 44
     788:	8c 7f       	andi	r24, 0xFC	; 252
     78a:	8c bd       	out	0x2c, r24	; 44
     78c:	47 9a       	sbi	0x08, 7	; 8
     78e:	08 95       	ret

00000790 <pal_trx_reg_write>:
     790:	f8 94       	cli
     792:	9d b3       	in	r25, 0x1d	; 29
     794:	e8 98       	cbi	0x1d, 0	; 29
     796:	80 6c       	ori	r24, 0xC0	; 192
     798:	47 98       	cbi	0x08, 7	; 8
     79a:	8e bd       	out	0x2e, r24	; 46
     79c:	0d b4       	in	r0, 0x2d	; 45
     79e:	07 fe       	sbrs	r0, 7
     7a0:	fd cf       	rjmp	.-6      	; 0x79c <pal_trx_reg_write+0xc>
     7a2:	6e bd       	out	0x2e, r22	; 46
     7a4:	0d b4       	in	r0, 0x2d	; 45
     7a6:	07 fe       	sbrs	r0, 7
     7a8:	fd cf       	rjmp	.-6      	; 0x7a4 <pal_trx_reg_write+0x14>
     7aa:	47 9a       	sbi	0x08, 7	; 8
     7ac:	9d bb       	out	0x1d, r25	; 29
     7ae:	78 94       	sei
     7b0:	08 95       	ret

000007b2 <pal_trx_reg_read>:
     7b2:	f8 94       	cli
     7b4:	9d b3       	in	r25, 0x1d	; 29
     7b6:	e8 98       	cbi	0x1d, 0	; 29
     7b8:	80 68       	ori	r24, 0x80	; 128
     7ba:	47 98       	cbi	0x08, 7	; 8
     7bc:	8e bd       	out	0x2e, r24	; 46
     7be:	0d b4       	in	r0, 0x2d	; 45
     7c0:	07 fe       	sbrs	r0, 7
     7c2:	fd cf       	rjmp	.-6      	; 0x7be <pal_trx_reg_read+0xc>
     7c4:	1e bc       	out	0x2e, r1	; 46
     7c6:	0d b4       	in	r0, 0x2d	; 45
     7c8:	07 fe       	sbrs	r0, 7
     7ca:	fd cf       	rjmp	.-6      	; 0x7c6 <pal_trx_reg_read+0x14>
     7cc:	8e b5       	in	r24, 0x2e	; 46
     7ce:	47 9a       	sbi	0x08, 7	; 8
     7d0:	9d bb       	out	0x1d, r25	; 29
     7d2:	78 94       	sei
     7d4:	08 95       	ret

000007d6 <pal_trx_frame_read>:
     7d6:	f8 94       	cli
     7d8:	47 98       	cbi	0x08, 7	; 8
     7da:	20 e2       	ldi	r18, 0x20	; 32
     7dc:	2e bd       	out	0x2e, r18	; 46
     7de:	0d b4       	in	r0, 0x2d	; 45
     7e0:	07 fe       	sbrs	r0, 7
     7e2:	fd cf       	rjmp	.-6      	; 0x7de <pal_trx_frame_read+0x8>
     7e4:	1e bc       	out	0x2e, r1	; 46
     7e6:	61 30       	cpi	r22, 0x01	; 1
     7e8:	91 f0       	breq	.+36     	; 0x80e <pal_trx_frame_read+0x38>
     7ea:	36 2f       	mov	r19, r22
     7ec:	fc 01       	movw	r30, r24
     7ee:	0d b4       	in	r0, 0x2d	; 45
     7f0:	07 fe       	sbrs	r0, 7
     7f2:	fd cf       	rjmp	.-6      	; 0x7ee <pal_trx_frame_read+0x18>
     7f4:	4e b5       	in	r20, 0x2e	; 46
     7f6:	1e bc       	out	0x2e, r1	; 46
     7f8:	41 93       	st	Z+, r20
     7fa:	31 50       	subi	r19, 0x01	; 1
     7fc:	32 30       	cpi	r19, 0x02	; 2
     7fe:	b8 f7       	brcc	.-18     	; 0x7ee <pal_trx_frame_read+0x18>
     800:	62 50       	subi	r22, 0x02	; 2
     802:	26 2f       	mov	r18, r22
     804:	30 e0       	ldi	r19, 0x00	; 0
     806:	2f 5f       	subi	r18, 0xFF	; 255
     808:	3f 4f       	sbci	r19, 0xFF	; 255
     80a:	82 0f       	add	r24, r18
     80c:	93 1f       	adc	r25, r19
     80e:	0d b4       	in	r0, 0x2d	; 45
     810:	07 fe       	sbrs	r0, 7
     812:	fd cf       	rjmp	.-6      	; 0x80e <pal_trx_frame_read+0x38>
     814:	2e b5       	in	r18, 0x2e	; 46
     816:	fc 01       	movw	r30, r24
     818:	20 83       	st	Z, r18
     81a:	47 9a       	sbi	0x08, 7	; 8
     81c:	78 94       	sei
     81e:	08 95       	ret

00000820 <pal_trx_frame_write>:
     820:	fc 01       	movw	r30, r24
     822:	f8 94       	cli
     824:	47 98       	cbi	0x08, 7	; 8
     826:	80 e6       	ldi	r24, 0x60	; 96
     828:	8e bd       	out	0x2e, r24	; 46
     82a:	0d b4       	in	r0, 0x2d	; 45
     82c:	07 fe       	sbrs	r0, 7
     82e:	fd cf       	rjmp	.-6      	; 0x82a <pal_trx_frame_write+0xa>
     830:	81 91       	ld	r24, Z+
     832:	61 50       	subi	r22, 0x01	; 1
     834:	0d b4       	in	r0, 0x2d	; 45
     836:	07 fe       	sbrs	r0, 7
     838:	fd cf       	rjmp	.-6      	; 0x834 <pal_trx_frame_write+0x14>
     83a:	8e bd       	out	0x2e, r24	; 46
     83c:	66 23       	and	r22, r22
     83e:	c1 f7       	brne	.-16     	; 0x830 <pal_trx_frame_write+0x10>
     840:	0d b4       	in	r0, 0x2d	; 45
     842:	07 fe       	sbrs	r0, 7
     844:	fd cf       	rjmp	.-6      	; 0x840 <pal_trx_frame_write+0x20>
     846:	47 9a       	sbi	0x08, 7	; 8
     848:	78 94       	sei
     84a:	08 95       	ret

0000084c <pal_trx_bit_read>:
     84c:	0f 93       	push	r16
     84e:	1f 93       	push	r17
     850:	06 2f       	mov	r16, r22
     852:	14 2f       	mov	r17, r20
     854:	0e 94 d9 03 	call	0x7b2	; 0x7b2 <pal_trx_reg_read>
     858:	80 23       	and	r24, r16
     85a:	68 2f       	mov	r22, r24
     85c:	70 e0       	ldi	r23, 0x00	; 0
     85e:	cb 01       	movw	r24, r22
     860:	02 c0       	rjmp	.+4      	; 0x866 <pal_trx_bit_read+0x1a>
     862:	95 95       	asr	r25
     864:	87 95       	ror	r24
     866:	1a 95       	dec	r17
     868:	e2 f7       	brpl	.-8      	; 0x862 <pal_trx_bit_read+0x16>
     86a:	1f 91       	pop	r17
     86c:	0f 91       	pop	r16
     86e:	08 95       	ret

00000870 <pal_trx_bit_write>:
     870:	ef 92       	push	r14
     872:	ff 92       	push	r15
     874:	0f 93       	push	r16
     876:	1f 93       	push	r17
     878:	18 2f       	mov	r17, r24
     87a:	06 2f       	mov	r16, r22
     87c:	f4 2e       	mov	r15, r20
     87e:	e2 2e       	mov	r14, r18
     880:	0e 94 d9 03 	call	0x7b2	; 0x7b2 <pal_trx_reg_read>
     884:	60 2f       	mov	r22, r16
     886:	60 95       	com	r22
     888:	68 23       	and	r22, r24
     88a:	2e 2d       	mov	r18, r14
     88c:	30 e0       	ldi	r19, 0x00	; 0
     88e:	a9 01       	movw	r20, r18
     890:	02 c0       	rjmp	.+4      	; 0x896 <pal_trx_bit_write+0x26>
     892:	44 0f       	add	r20, r20
     894:	55 1f       	adc	r21, r21
     896:	fa 94       	dec	r15
     898:	e2 f7       	brpl	.-8      	; 0x892 <pal_trx_bit_write+0x22>
     89a:	40 23       	and	r20, r16
     89c:	64 2b       	or	r22, r20
     89e:	81 2f       	mov	r24, r17
     8a0:	0e 94 c8 03 	call	0x790	; 0x790 <pal_trx_reg_write>
     8a4:	1f 91       	pop	r17
     8a6:	0f 91       	pop	r16
     8a8:	ff 90       	pop	r15
     8aa:	ef 90       	pop	r14
     8ac:	08 95       	ret

000008ae <pal_trx_sram_write>:
     8ae:	fb 01       	movw	r30, r22
     8b0:	9d b3       	in	r25, 0x1d	; 29
     8b2:	e8 98       	cbi	0x1d, 0	; 29
     8b4:	47 98       	cbi	0x08, 7	; 8
     8b6:	20 e4       	ldi	r18, 0x40	; 64
     8b8:	2e bd       	out	0x2e, r18	; 46
     8ba:	0d b4       	in	r0, 0x2d	; 45
     8bc:	07 fe       	sbrs	r0, 7
     8be:	fd cf       	rjmp	.-6      	; 0x8ba <pal_trx_sram_write+0xc>
     8c0:	8e bd       	out	0x2e, r24	; 46
     8c2:	0d b4       	in	r0, 0x2d	; 45
     8c4:	07 fe       	sbrs	r0, 7
     8c6:	fd cf       	rjmp	.-6      	; 0x8c2 <pal_trx_sram_write+0x14>
     8c8:	81 91       	ld	r24, Z+
     8ca:	41 50       	subi	r20, 0x01	; 1
     8cc:	0d b4       	in	r0, 0x2d	; 45
     8ce:	07 fe       	sbrs	r0, 7
     8d0:	fd cf       	rjmp	.-6      	; 0x8cc <pal_trx_sram_write+0x1e>
     8d2:	8e bd       	out	0x2e, r24	; 46
     8d4:	44 23       	and	r20, r20
     8d6:	c1 f7       	brne	.-16     	; 0x8c8 <pal_trx_sram_write+0x1a>
     8d8:	0d b4       	in	r0, 0x2d	; 45
     8da:	07 fe       	sbrs	r0, 7
     8dc:	fd cf       	rjmp	.-6      	; 0x8d8 <pal_trx_sram_write+0x2a>
     8de:	47 9a       	sbi	0x08, 7	; 8
     8e0:	9d bb       	out	0x1d, r25	; 29
     8e2:	08 95       	ret

000008e4 <pal_trx_sram_read>:
	...
     8ec:	3d b3       	in	r19, 0x1d	; 29
     8ee:	e8 98       	cbi	0x1d, 0	; 29
     8f0:	47 98       	cbi	0x08, 7	; 8
     8f2:	1e bc       	out	0x2e, r1	; 46
     8f4:	0d b4       	in	r0, 0x2d	; 45
     8f6:	07 fe       	sbrs	r0, 7
     8f8:	fd cf       	rjmp	.-6      	; 0x8f4 <pal_trx_sram_read+0x10>
     8fa:	8e bd       	out	0x2e, r24	; 46
     8fc:	0d b4       	in	r0, 0x2d	; 45
     8fe:	07 fe       	sbrs	r0, 7
     900:	fd cf       	rjmp	.-6      	; 0x8fc <pal_trx_sram_read+0x18>
     902:	1e bc       	out	0x2e, r1	; 46
     904:	41 30       	cpi	r20, 0x01	; 1
     906:	a1 f0       	breq	.+40     	; 0x930 <__stack+0x31>
     908:	42 50       	subi	r20, 0x02	; 2
     90a:	50 e0       	ldi	r21, 0x00	; 0
     90c:	cb 01       	movw	r24, r22
     90e:	01 96       	adiw	r24, 0x01	; 1
     910:	84 0f       	add	r24, r20
     912:	95 1f       	adc	r25, r21
     914:	fb 01       	movw	r30, r22
     916:	0d b4       	in	r0, 0x2d	; 45
     918:	07 fe       	sbrs	r0, 7
     91a:	fd cf       	rjmp	.-6      	; 0x916 <__stack+0x17>
     91c:	2e b5       	in	r18, 0x2e	; 46
     91e:	1e bc       	out	0x2e, r1	; 46
     920:	21 93       	st	Z+, r18
     922:	e8 17       	cp	r30, r24
     924:	f9 07       	cpc	r31, r25
     926:	b9 f7       	brne	.-18     	; 0x916 <__stack+0x17>
     928:	4f 5f       	subi	r20, 0xFF	; 255
     92a:	5f 4f       	sbci	r21, 0xFF	; 255
     92c:	64 0f       	add	r22, r20
     92e:	75 1f       	adc	r23, r21
     930:	0d b4       	in	r0, 0x2d	; 45
     932:	07 fe       	sbrs	r0, 7
     934:	fd cf       	rjmp	.-6      	; 0x930 <__stack+0x31>
     936:	8e b5       	in	r24, 0x2e	; 46
     938:	fb 01       	movw	r30, r22
     93a:	80 83       	st	Z, r24
     93c:	47 9a       	sbi	0x08, 7	; 8
     93e:	3d bb       	out	0x1d, r19	; 29
     940:	08 95       	ret

00000942 <pal_trx_aes_wrrd>:
     942:	cf 93       	push	r28
     944:	df 93       	push	r29
	...
     94e:	ad b3       	in	r26, 0x1d	; 29
     950:	e8 98       	cbi	0x1d, 0	; 29
     952:	47 98       	cbi	0x08, 7	; 8
     954:	90 e4       	ldi	r25, 0x40	; 64
     956:	9e bd       	out	0x2e, r25	; 46
     958:	0d b4       	in	r0, 0x2d	; 45
     95a:	07 fe       	sbrs	r0, 7
     95c:	fd cf       	rjmp	.-6      	; 0x958 <pal_trx_aes_wrrd+0x16>
     95e:	8e bd       	out	0x2e, r24	; 46
     960:	0d b4       	in	r0, 0x2d	; 45
     962:	07 fe       	sbrs	r0, 7
     964:	fd cf       	rjmp	.-6      	; 0x960 <pal_trx_aes_wrrd+0x1e>
     966:	fb 01       	movw	r30, r22
     968:	81 91       	ld	r24, Z+
     96a:	8e bd       	out	0x2e, r24	; 46
     96c:	0d b4       	in	r0, 0x2d	; 45
     96e:	07 fe       	sbrs	r0, 7
     970:	fd cf       	rjmp	.-6      	; 0x96c <pal_trx_aes_wrrd+0x2a>
     972:	eb 01       	movw	r28, r22
     974:	89 81       	ldd	r24, Y+1	; 0x01
     976:	8e bd       	out	0x2e, r24	; 46
     978:	21 81       	ldd	r18, Z+1	; 0x01
     97a:	41 30       	cpi	r20, 0x01	; 1
     97c:	a9 f0       	breq	.+42     	; 0x9a8 <pal_trx_aes_wrrd+0x66>
     97e:	42 50       	subi	r20, 0x02	; 2
     980:	50 e0       	ldi	r21, 0x00	; 0
     982:	cb 01       	movw	r24, r22
     984:	01 96       	adiw	r24, 0x01	; 1
     986:	84 0f       	add	r24, r20
     988:	95 1f       	adc	r25, r21
     98a:	fb 01       	movw	r30, r22
     98c:	0d b4       	in	r0, 0x2d	; 45
     98e:	07 fe       	sbrs	r0, 7
     990:	fd cf       	rjmp	.-6      	; 0x98c <pal_trx_aes_wrrd+0x4a>
     992:	3e b5       	in	r19, 0x2e	; 46
     994:	31 93       	st	Z+, r19
     996:	2e bd       	out	0x2e, r18	; 46
     998:	22 81       	ldd	r18, Z+2	; 0x02
     99a:	e8 17       	cp	r30, r24
     99c:	f9 07       	cpc	r31, r25
     99e:	b1 f7       	brne	.-20     	; 0x98c <pal_trx_aes_wrrd+0x4a>
     9a0:	4f 5f       	subi	r20, 0xFF	; 255
     9a2:	5f 4f       	sbci	r21, 0xFF	; 255
     9a4:	64 0f       	add	r22, r20
     9a6:	75 1f       	adc	r23, r21
     9a8:	0d b4       	in	r0, 0x2d	; 45
     9aa:	07 fe       	sbrs	r0, 7
     9ac:	fd cf       	rjmp	.-6      	; 0x9a8 <pal_trx_aes_wrrd+0x66>
     9ae:	1e bc       	out	0x2e, r1	; 46
     9b0:	0d b4       	in	r0, 0x2d	; 45
     9b2:	07 fe       	sbrs	r0, 7
     9b4:	fd cf       	rjmp	.-6      	; 0x9b0 <pal_trx_aes_wrrd+0x6e>
     9b6:	8e b5       	in	r24, 0x2e	; 46
     9b8:	fb 01       	movw	r30, r22
     9ba:	80 83       	st	Z, r24
     9bc:	47 9a       	sbi	0x08, 7	; 8
     9be:	ad bb       	out	0x1d, r26	; 29
     9c0:	df 91       	pop	r29
     9c2:	cf 91       	pop	r28
     9c4:	08 95       	ret

000009c6 <pal_trx_irq_init>:
     9c6:	e8 2f       	mov	r30, r24
     9c8:	f0 e0       	ldi	r31, 0x00	; 0
     9ca:	ee 0f       	add	r30, r30
     9cc:	ff 1f       	adc	r31, r31
     9ce:	e9 5f       	subi	r30, 0xF9	; 249
     9d0:	fe 4f       	sbci	r31, 0xFE	; 254
     9d2:	71 83       	std	Z+1, r23	; 0x01
     9d4:	60 83       	st	Z, r22
     9d6:	88 23       	and	r24, r24
     9d8:	41 f4       	brne	.+16     	; 0x9ea <pal_trx_irq_init+0x24>
     9da:	e9 e6       	ldi	r30, 0x69	; 105
     9dc:	f0 e0       	ldi	r31, 0x00	; 0
     9de:	80 81       	ld	r24, Z
     9e0:	83 60       	ori	r24, 0x03	; 3
     9e2:	80 83       	st	Z, r24
     9e4:	81 e0       	ldi	r24, 0x01	; 1
     9e6:	8c bb       	out	0x1c, r24	; 28
     9e8:	08 95       	ret
     9ea:	81 30       	cpi	r24, 0x01	; 1
     9ec:	59 f4       	brne	.+22     	; 0xa04 <pal_trx_irq_init+0x3e>
     9ee:	ef e6       	ldi	r30, 0x6F	; 111
     9f0:	f0 e0       	ldi	r31, 0x00	; 0
     9f2:	80 81       	ld	r24, Z
     9f4:	8f 7d       	andi	r24, 0xDF	; 223
     9f6:	80 83       	st	Z, r24
     9f8:	e1 e8       	ldi	r30, 0x81	; 129
     9fa:	f0 e0       	ldi	r31, 0x00	; 0
     9fc:	80 81       	ld	r24, Z
     9fe:	80 64       	ori	r24, 0x40	; 64
     a00:	80 83       	st	Z, r24
     a02:	b5 9a       	sbi	0x16, 5	; 22
     a04:	08 95       	ret

00000a06 <__vector_1>:
     a06:	1f 92       	push	r1
     a08:	0f 92       	push	r0
     a0a:	0f b6       	in	r0, 0x3f	; 63
     a0c:	0f 92       	push	r0
     a0e:	11 24       	eor	r1, r1
     a10:	2f 93       	push	r18
     a12:	3f 93       	push	r19
     a14:	4f 93       	push	r20
     a16:	5f 93       	push	r21
     a18:	6f 93       	push	r22
     a1a:	7f 93       	push	r23
     a1c:	8f 93       	push	r24
     a1e:	9f 93       	push	r25
     a20:	af 93       	push	r26
     a22:	bf 93       	push	r27
     a24:	ef 93       	push	r30
     a26:	ff 93       	push	r31
     a28:	e0 91 07 01 	lds	r30, 0x0107
     a2c:	f0 91 08 01 	lds	r31, 0x0108
     a30:	09 95       	icall
     a32:	ff 91       	pop	r31
     a34:	ef 91       	pop	r30
     a36:	bf 91       	pop	r27
     a38:	af 91       	pop	r26
     a3a:	9f 91       	pop	r25
     a3c:	8f 91       	pop	r24
     a3e:	7f 91       	pop	r23
     a40:	6f 91       	pop	r22
     a42:	5f 91       	pop	r21
     a44:	4f 91       	pop	r20
     a46:	3f 91       	pop	r19
     a48:	2f 91       	pop	r18
     a4a:	0f 90       	pop	r0
     a4c:	0f be       	out	0x3f, r0	; 63
     a4e:	0f 90       	pop	r0
     a50:	1f 90       	pop	r1
     a52:	18 95       	reti

00000a54 <__vector_12>:
     a54:	1f 92       	push	r1
     a56:	0f 92       	push	r0
     a58:	0f b6       	in	r0, 0x3f	; 63
     a5a:	0f 92       	push	r0
     a5c:	11 24       	eor	r1, r1
     a5e:	2f 93       	push	r18
     a60:	3f 93       	push	r19
     a62:	4f 93       	push	r20
     a64:	5f 93       	push	r21
     a66:	6f 93       	push	r22
     a68:	7f 93       	push	r23
     a6a:	8f 93       	push	r24
     a6c:	9f 93       	push	r25
     a6e:	af 93       	push	r26
     a70:	bf 93       	push	r27
     a72:	ef 93       	push	r30
     a74:	ff 93       	push	r31
     a76:	e0 91 09 01 	lds	r30, 0x0109
     a7a:	f0 91 0a 01 	lds	r31, 0x010A
     a7e:	09 95       	icall
     a80:	ff 91       	pop	r31
     a82:	ef 91       	pop	r30
     a84:	bf 91       	pop	r27
     a86:	af 91       	pop	r26
     a88:	9f 91       	pop	r25
     a8a:	8f 91       	pop	r24
     a8c:	7f 91       	pop	r23
     a8e:	6f 91       	pop	r22
     a90:	5f 91       	pop	r21
     a92:	4f 91       	pop	r20
     a94:	3f 91       	pop	r19
     a96:	2f 91       	pop	r18
     a98:	0f 90       	pop	r0
     a9a:	0f be       	out	0x3f, r0	; 63
     a9c:	0f 90       	pop	r0
     a9e:	1f 90       	pop	r1
     aa0:	18 95       	reti

00000aa2 <pm_config_protocol>:
     aa2:	af 92       	push	r10
     aa4:	bf 92       	push	r11
     aa6:	cf 92       	push	r12
     aa8:	df 92       	push	r13
     aaa:	ef 92       	push	r14
     aac:	ff 92       	push	r15
     aae:	0f 93       	push	r16
     ab0:	1f 93       	push	r17
     ab2:	df 93       	push	r29
     ab4:	cf 93       	push	r28
     ab6:	cd b7       	in	r28, 0x3d	; 61
     ab8:	de b7       	in	r29, 0x3e	; 62
     aba:	29 97       	sbiw	r28, 0x09	; 9
     abc:	0f b6       	in	r0, 0x3f	; 63
     abe:	f8 94       	cli
     ac0:	de bf       	out	0x3e, r29	; 62
     ac2:	0f be       	out	0x3f, r0	; 63
     ac4:	cd bf       	out	0x3d, r28	; 61
     ac6:	1b 82       	std	Y+3, r1	; 0x03
     ac8:	1a 82       	std	Y+2, r1	; 0x02
     aca:	1c 82       	std	Y+4, r1	; 0x04
     acc:	1d 82       	std	Y+5, r1	; 0x05
     ace:	1e 82       	std	Y+6, r1	; 0x06
     ad0:	1f 82       	std	Y+7, r1	; 0x07
     ad2:	19 82       	std	Y+1, r1	; 0x01
     ad4:	10 92 6f 00 	sts	0x006F, r1
     ad8:	78 94       	sei
     ada:	89 81       	ldd	r24, Y+1	; 0x01
     adc:	88 23       	and	r24, r24
     ade:	09 f0       	breq	.+2      	; 0xae2 <pm_config_protocol+0x40>
     ae0:	1f c2       	rjmp	.+1086   	; 0xf20 <pm_config_protocol+0x47e>
     ae2:	18 86       	std	Y+8, r1	; 0x08
     ae4:	ee 24       	eor	r14, r14
     ae6:	ea 94       	dec	r14
     ae8:	30 e2       	ldi	r19, 0x20	; 32
     aea:	c3 2e       	mov	r12, r19
     aec:	2b e0       	ldi	r18, 0x0B	; 11
     aee:	f2 2e       	mov	r15, r18
     af0:	93 e3       	ldi	r25, 0x33	; 51
     af2:	d9 2e       	mov	r13, r25
     af4:	82 e1       	ldi	r24, 0x12	; 18
     af6:	b8 2e       	mov	r11, r24
     af8:	2e c0       	rjmp	.+92     	; 0xb56 <pm_config_protocol+0xb4>
     afa:	82 e0       	ldi	r24, 0x02	; 2
     afc:	60 ee       	ldi	r22, 0xE0	; 224
     afe:	45 e0       	ldi	r20, 0x05	; 5
     b00:	0e 94 26 04 	call	0x84c	; 0x84c <pal_trx_bit_read>
     b04:	85 30       	cpi	r24, 0x05	; 5
     b06:	09 f4       	brne	.+2      	; 0xb0a <pm_config_protocol+0x68>
     b08:	61 c0       	rjmp	.+194    	; 0xbcc <pm_config_protocol+0x12a>
     b0a:	8c 81       	ldd	r24, Y+4	; 0x04
     b0c:	9d 81       	ldd	r25, Y+5	; 0x05
     b0e:	ae 81       	ldd	r26, Y+6	; 0x06
     b10:	bf 81       	ldd	r27, Y+7	; 0x07
     b12:	80 32       	cpi	r24, 0x20	; 32
     b14:	31 ea       	ldi	r19, 0xA1	; 161
     b16:	93 07       	cpc	r25, r19
     b18:	37 e0       	ldi	r19, 0x07	; 7
     b1a:	a3 07       	cpc	r26, r19
     b1c:	30 e0       	ldi	r19, 0x00	; 0
     b1e:	b3 07       	cpc	r27, r19
     b20:	30 f0       	brcs	.+12     	; 0xb2e <pm_config_protocol+0x8c>
     b22:	1c 82       	std	Y+4, r1	; 0x04
     b24:	1d 82       	std	Y+5, r1	; 0x05
     b26:	1e 82       	std	Y+6, r1	; 0x06
     b28:	1f 82       	std	Y+7, r1	; 0x07
     b2a:	81 e0       	ldi	r24, 0x01	; 1
     b2c:	89 83       	std	Y+1, r24	; 0x01
     b2e:	8c 81       	ldd	r24, Y+4	; 0x04
     b30:	9d 81       	ldd	r25, Y+5	; 0x05
     b32:	ae 81       	ldd	r26, Y+6	; 0x06
     b34:	bf 81       	ldd	r27, Y+7	; 0x07
     b36:	01 96       	adiw	r24, 0x01	; 1
     b38:	a1 1d       	adc	r26, r1
     b3a:	b1 1d       	adc	r27, r1
     b3c:	8c 83       	std	Y+4, r24	; 0x04
     b3e:	9d 83       	std	Y+5, r25	; 0x05
     b40:	ae 83       	std	Y+6, r26	; 0x06
     b42:	bf 83       	std	Y+7, r27	; 0x07
     b44:	8a e1       	ldi	r24, 0x1A	; 26
     b46:	8a 95       	dec	r24
     b48:	f1 f7       	brne	.-4      	; 0xb46 <pm_config_protocol+0xa4>
     b4a:	00 c0       	rjmp	.+0      	; 0xb4c <pm_config_protocol+0xaa>
     b4c:	a8 95       	wdr
     b4e:	89 81       	ldd	r24, Y+1	; 0x01
     b50:	88 23       	and	r24, r24
     b52:	09 f0       	breq	.+2      	; 0xb56 <pm_config_protocol+0xb4>
     b54:	4c c0       	rjmp	.+152    	; 0xbee <pm_config_protocol+0x14c>
     b56:	80 91 00 02 	lds	r24, 0x0200
     b5a:	90 91 01 02 	lds	r25, 0x0201
     b5e:	87 70       	andi	r24, 0x07	; 7
     b60:	90 70       	andi	r25, 0x00	; 0
     b62:	83 30       	cpi	r24, 0x03	; 3
     b64:	91 05       	cpc	r25, r1
     b66:	49 f6       	brne	.-110    	; 0xafa <pm_config_protocol+0x58>
     b68:	1c 82       	std	Y+4, r1	; 0x04
     b6a:	1d 82       	std	Y+5, r1	; 0x05
     b6c:	1e 82       	std	Y+6, r1	; 0x06
     b6e:	1f 82       	std	Y+7, r1	; 0x07
     b70:	10 92 01 02 	sts	0x0201, r1
     b74:	10 92 00 02 	sts	0x0200, r1
     b78:	40 91 0b 02 	lds	r20, 0x020B
     b7c:	40 32       	cpi	r20, 0x20	; 32
     b7e:	09 f4       	brne	.+2      	; 0xb82 <pm_config_protocol+0xe0>
     b80:	7d c1       	rjmp	.+762    	; 0xe7c <pm_config_protocol+0x3da>
     b82:	41 32       	cpi	r20, 0x21	; 33
     b84:	30 f5       	brcc	.+76     	; 0xbd2 <pm_config_protocol+0x130>
     b86:	40 31       	cpi	r20, 0x10	; 16
     b88:	09 f4       	brne	.+2      	; 0xb8c <pm_config_protocol+0xea>
     b8a:	de c0       	rjmp	.+444    	; 0xd48 <pm_config_protocol+0x2a6>
     b8c:	41 31       	cpi	r20, 0x11	; 17
     b8e:	08 f4       	brcc	.+2      	; 0xb92 <pm_config_protocol+0xf0>
     b90:	78 c0       	rjmp	.+240    	; 0xc82 <pm_config_protocol+0x1e0>
     b92:	45 31       	cpi	r20, 0x15	; 21
     b94:	09 f4       	brne	.+2      	; 0xb98 <pm_config_protocol+0xf6>
     b96:	b9 c0       	rjmp	.+370    	; 0xd0a <pm_config_protocol+0x268>
     b98:	46 31       	cpi	r20, 0x16	; 22
     b9a:	09 f0       	breq	.+2      	; 0xb9e <pm_config_protocol+0xfc>
     b9c:	75 c0       	rjmp	.+234    	; 0xc88 <pm_config_protocol+0x1e6>
     b9e:	90 91 0c 02 	lds	r25, 0x020C
     ba2:	80 91 0d 02 	lds	r24, 0x020D
     ba6:	19 2f       	mov	r17, r25
     ba8:	00 e0       	ldi	r16, 0x00	; 0
     baa:	98 01       	movw	r18, r16
     bac:	28 0f       	add	r18, r24
     bae:	31 1d       	adc	r19, r1
     bb0:	3b 83       	std	Y+3, r19	; 0x03
     bb2:	2a 83       	std	Y+2, r18	; 0x02
     bb4:	8a 81       	ldd	r24, Y+2	; 0x02
     bb6:	9b 81       	ldd	r25, Y+3	; 0x03
     bb8:	31 e0       	ldi	r19, 0x01	; 1
     bba:	8d 32       	cpi	r24, 0x2D	; 45
     bbc:	93 07       	cpc	r25, r19
     bbe:	08 f4       	brcc	.+2      	; 0xbc2 <pm_config_protocol+0x120>
     bc0:	8a c1       	rjmp	.+788    	; 0xed6 <pm_config_protocol+0x434>
     bc2:	e0 92 8c 01 	sts	0x018C, r14
     bc6:	40 93 8d 01 	sts	0x018D, r20
     bca:	56 c0       	rjmp	.+172    	; 0xc78 <pm_config_protocol+0x1d6>
     bcc:	81 e0       	ldi	r24, 0x01	; 1
     bce:	89 83       	std	Y+1, r24	; 0x01
     bd0:	9c cf       	rjmp	.-200    	; 0xb0a <pm_config_protocol+0x68>
     bd2:	42 33       	cpi	r20, 0x32	; 50
     bd4:	09 f4       	brne	.+2      	; 0xbd8 <pm_config_protocol+0x136>
     bd6:	bf c0       	rjmp	.+382    	; 0xd56 <pm_config_protocol+0x2b4>
     bd8:	43 33       	cpi	r20, 0x33	; 51
     bda:	80 f1       	brcs	.+96     	; 0xc3c <pm_config_protocol+0x19a>
     bdc:	43 33       	cpi	r20, 0x33	; 51
     bde:	09 f4       	brne	.+2      	; 0xbe2 <pm_config_protocol+0x140>
     be0:	70 c0       	rjmp	.+224    	; 0xcc2 <pm_config_protocol+0x220>
     be2:	40 34       	cpi	r20, 0x40	; 64
     be4:	09 f0       	breq	.+2      	; 0xbe8 <pm_config_protocol+0x146>
     be6:	50 c0       	rjmp	.+160    	; 0xc88 <pm_config_protocol+0x1e6>
     be8:	0e 94 93 38 	call	0x7126	; 0x7126 <bootloader>
     bec:	86 cf       	rjmp	.-244    	; 0xafa <pm_config_protocol+0x58>
     bee:	10 92 0b 02 	sts	0x020B, r1
     bf2:	19 82       	std	Y+1, r1	; 0x01
     bf4:	82 e0       	ldi	r24, 0x02	; 2
     bf6:	80 93 6f 00 	sts	0x006F, r24
     bfa:	86 bb       	out	0x16, r24	; 22
     bfc:	68 e0       	ldi	r22, 0x08	; 8
     bfe:	0e 94 c8 03 	call	0x790	; 0x790 <pal_trx_reg_write>
     c02:	28 85       	ldd	r18, Y+8	; 0x08
     c04:	28 30       	cpi	r18, 0x08	; 8
     c06:	39 f0       	breq	.+14     	; 0xc16 <pm_config_protocol+0x174>
     c08:	81 e0       	ldi	r24, 0x01	; 1
     c0a:	6f e1       	ldi	r22, 0x1F	; 31
     c0c:	40 e0       	ldi	r20, 0x00	; 0
     c0e:	0e 94 26 04 	call	0x84c	; 0x84c <pal_trx_bit_read>
     c12:	88 30       	cpi	r24, 0x08	; 8
     c14:	c9 f7       	brne	.-14     	; 0xc08 <pm_config_protocol+0x166>
     c16:	0e 94 5d 00 	call	0xba	; 0xba <at86rf231_switch_pll_on>
     c1a:	29 96       	adiw	r28, 0x09	; 9
     c1c:	0f b6       	in	r0, 0x3f	; 63
     c1e:	f8 94       	cli
     c20:	de bf       	out	0x3e, r29	; 62
     c22:	0f be       	out	0x3f, r0	; 63
     c24:	cd bf       	out	0x3d, r28	; 61
     c26:	cf 91       	pop	r28
     c28:	df 91       	pop	r29
     c2a:	1f 91       	pop	r17
     c2c:	0f 91       	pop	r16
     c2e:	ff 90       	pop	r15
     c30:	ef 90       	pop	r14
     c32:	df 90       	pop	r13
     c34:	cf 90       	pop	r12
     c36:	bf 90       	pop	r11
     c38:	af 90       	pop	r10
     c3a:	08 95       	ret
     c3c:	40 33       	cpi	r20, 0x30	; 48
     c3e:	71 f1       	breq	.+92     	; 0xc9c <pm_config_protocol+0x1fa>
     c40:	41 33       	cpi	r20, 0x31	; 49
     c42:	11 f5       	brne	.+68     	; 0xc88 <pm_config_protocol+0x1e6>
     c44:	5c 98       	cbi	0x0b, 4	; 11
     c46:	81 e0       	ldi	r24, 0x01	; 1
     c48:	49 87       	std	Y+9, r20	; 0x09
     c4a:	0e 94 20 14 	call	0x2840	; 0x2840 <SX8723c_auto_offset>
     c4e:	82 e0       	ldi	r24, 0x02	; 2
     c50:	0e 94 20 14 	call	0x2840	; 0x2840 <SX8723c_auto_offset>
     c54:	84 e0       	ldi	r24, 0x04	; 4
     c56:	0e 94 20 14 	call	0x2840	; 0x2840 <SX8723c_auto_offset>
     c5a:	88 e0       	ldi	r24, 0x08	; 8
     c5c:	0e 94 20 14 	call	0x2840	; 0x2840 <SX8723c_auto_offset>
     c60:	80 91 04 01 	lds	r24, 0x0104
     c64:	90 91 05 01 	lds	r25, 0x0105
     c68:	0e 94 a8 03 	call	0x750	; 0x750 <eeprom_save_config>
     c6c:	5c 9a       	sbi	0x0b, 4	; 11
     c6e:	f0 92 8c 01 	sts	0x018C, r15
     c72:	49 85       	ldd	r20, Y+9	; 0x09
     c74:	40 93 8d 01 	sts	0x018D, r20
     c78:	0e 94 0a 01 	call	0x214	; 0x214 <at86rf231_req_data>
     c7c:	81 e0       	ldi	r24, 0x01	; 1
     c7e:	89 83       	std	Y+1, r24	; 0x01
     c80:	3c cf       	rjmp	.-392    	; 0xafa <pm_config_protocol+0x58>
     c82:	4f 30       	cpi	r20, 0x0F	; 15
     c84:	09 f4       	brne	.+2      	; 0xc88 <pm_config_protocol+0x1e6>
     c86:	ef c0       	rjmp	.+478    	; 0xe66 <pm_config_protocol+0x3c4>
     c88:	e0 92 8c 01 	sts	0x018C, r14
     c8c:	aa 24       	eor	r10, r10
     c8e:	a3 94       	inc	r10
     c90:	a0 92 8d 01 	sts	0x018D, r10
     c94:	0e 94 0a 01 	call	0x214	; 0x214 <at86rf231_req_data>
     c98:	a9 82       	std	Y+1, r10	; 0x01
     c9a:	2f cf       	rjmp	.-418    	; 0xafa <pm_config_protocol+0x58>
     c9c:	49 87       	std	Y+9, r20	; 0x09
     c9e:	0e 94 67 03 	call	0x6ce	; 0x6ce <ds620_get_temperature>
     ca2:	9b 83       	std	Y+3, r25	; 0x03
     ca4:	8a 83       	std	Y+2, r24	; 0x02
     ca6:	f0 92 8c 01 	sts	0x018C, r15
     caa:	49 85       	ldd	r20, Y+9	; 0x09
     cac:	40 93 8d 01 	sts	0x018D, r20
     cb0:	8a 81       	ldd	r24, Y+2	; 0x02
     cb2:	9b 81       	ldd	r25, Y+3	; 0x03
     cb4:	80 93 8e 01 	sts	0x018E, r24
     cb8:	8a 81       	ldd	r24, Y+2	; 0x02
     cba:	9b 81       	ldd	r25, Y+3	; 0x03
     cbc:	90 93 8f 01 	sts	0x018F, r25
     cc0:	db cf       	rjmp	.-74     	; 0xc78 <pm_config_protocol+0x1d6>
     cc2:	1b 82       	std	Y+3, r1	; 0x03
     cc4:	1a 82       	std	Y+2, r1	; 0x02
     cc6:	8a 81       	ldd	r24, Y+2	; 0x02
     cc8:	9b 81       	ldd	r25, Y+3	; 0x03
     cca:	80 32       	cpi	r24, 0x20	; 32
     ccc:	91 05       	cpc	r25, r1
     cce:	a0 f4       	brcc	.+40     	; 0xcf8 <pm_config_protocol+0x256>
     cd0:	ea 81       	ldd	r30, Y+2	; 0x02
     cd2:	fb 81       	ldd	r31, Y+3	; 0x03
     cd4:	aa 81       	ldd	r26, Y+2	; 0x02
     cd6:	bb 81       	ldd	r27, Y+3	; 0x03
     cd8:	a2 5a       	subi	r26, 0xA2	; 162
     cda:	be 4f       	sbci	r27, 0xFE	; 254
     cdc:	8c 91       	ld	r24, X
     cde:	ed 57       	subi	r30, 0x7D	; 125
     ce0:	fe 4f       	sbci	r31, 0xFE	; 254
     ce2:	84 87       	std	Z+12, r24	; 0x0c
     ce4:	8a 81       	ldd	r24, Y+2	; 0x02
     ce6:	9b 81       	ldd	r25, Y+3	; 0x03
     ce8:	01 96       	adiw	r24, 0x01	; 1
     cea:	9b 83       	std	Y+3, r25	; 0x03
     cec:	8a 83       	std	Y+2, r24	; 0x02
     cee:	8a 81       	ldd	r24, Y+2	; 0x02
     cf0:	9b 81       	ldd	r25, Y+3	; 0x03
     cf2:	80 32       	cpi	r24, 0x20	; 32
     cf4:	91 05       	cpc	r25, r1
     cf6:	60 f3       	brcs	.-40     	; 0xcd0 <pm_config_protocol+0x22e>
     cf8:	f0 92 8c 01 	sts	0x018C, r15
     cfc:	d0 92 8d 01 	sts	0x018D, r13
     d00:	0e 94 0a 01 	call	0x214	; 0x214 <at86rf231_req_data>
     d04:	81 e0       	ldi	r24, 0x01	; 1
     d06:	89 83       	std	Y+1, r24	; 0x01
     d08:	f8 ce       	rjmp	.-528    	; 0xafa <pm_config_protocol+0x58>
     d0a:	f0 92 8c 01 	sts	0x018C, r15
     d0e:	40 93 8d 01 	sts	0x018D, r20
     d12:	e0 91 04 01 	lds	r30, 0x0104
     d16:	f0 91 05 01 	lds	r31, 0x0105
     d1a:	90 a9       	ldd	r25, Z+48	; 0x30
     d1c:	81 a9       	ldd	r24, Z+49	; 0x31
     d1e:	90 93 8e 01 	sts	0x018E, r25
     d22:	80 93 8f 01 	sts	0x018F, r24
     d26:	96 a5       	ldd	r25, Z+46	; 0x2e
     d28:	87 a5       	ldd	r24, Z+47	; 0x2f
     d2a:	90 93 90 01 	sts	0x0190, r25
     d2e:	80 93 91 01 	sts	0x0191, r24
     d32:	80 81       	ld	r24, Z
     d34:	80 93 92 01 	sts	0x0192, r24
     d38:	81 81       	ldd	r24, Z+1	; 0x01
     d3a:	80 93 93 01 	sts	0x0193, r24
     d3e:	0e 94 0a 01 	call	0x214	; 0x214 <at86rf231_req_data>
     d42:	81 e0       	ldi	r24, 0x01	; 1
     d44:	89 83       	std	Y+1, r24	; 0x01
     d46:	d9 ce       	rjmp	.-590    	; 0xafa <pm_config_protocol+0x58>
     d48:	f0 92 8c 01 	sts	0x018C, r15
     d4c:	40 93 8d 01 	sts	0x018D, r20
     d50:	81 e0       	ldi	r24, 0x01	; 1
     d52:	89 83       	std	Y+1, r24	; 0x01
     d54:	d2 ce       	rjmp	.-604    	; 0xafa <pm_config_protocol+0x58>
     d56:	80 91 0e 02 	lds	r24, 0x020E
     d5a:	90 91 0f 02 	lds	r25, 0x020F
     d5e:	a0 91 10 02 	lds	r26, 0x0210
     d62:	b0 91 11 02 	lds	r27, 0x0211
     d66:	80 93 5e 01 	sts	0x015E, r24
     d6a:	90 93 5f 01 	sts	0x015F, r25
     d6e:	a0 93 60 01 	sts	0x0160, r26
     d72:	b0 93 61 01 	sts	0x0161, r27
     d76:	80 91 12 02 	lds	r24, 0x0212
     d7a:	90 91 13 02 	lds	r25, 0x0213
     d7e:	a0 91 14 02 	lds	r26, 0x0214
     d82:	b0 91 15 02 	lds	r27, 0x0215
     d86:	80 93 62 01 	sts	0x0162, r24
     d8a:	90 93 63 01 	sts	0x0163, r25
     d8e:	a0 93 64 01 	sts	0x0164, r26
     d92:	b0 93 65 01 	sts	0x0165, r27
     d96:	80 91 16 02 	lds	r24, 0x0216
     d9a:	90 91 17 02 	lds	r25, 0x0217
     d9e:	a0 91 18 02 	lds	r26, 0x0218
     da2:	b0 91 19 02 	lds	r27, 0x0219
     da6:	80 93 66 01 	sts	0x0166, r24
     daa:	90 93 67 01 	sts	0x0167, r25
     dae:	a0 93 68 01 	sts	0x0168, r26
     db2:	b0 93 69 01 	sts	0x0169, r27
     db6:	80 91 1a 02 	lds	r24, 0x021A
     dba:	90 91 1b 02 	lds	r25, 0x021B
     dbe:	a0 91 1c 02 	lds	r26, 0x021C
     dc2:	b0 91 1d 02 	lds	r27, 0x021D
     dc6:	80 93 6a 01 	sts	0x016A, r24
     dca:	90 93 6b 01 	sts	0x016B, r25
     dce:	a0 93 6c 01 	sts	0x016C, r26
     dd2:	b0 93 6d 01 	sts	0x016D, r27
     dd6:	80 91 1e 02 	lds	r24, 0x021E
     dda:	90 91 1f 02 	lds	r25, 0x021F
     dde:	a0 91 20 02 	lds	r26, 0x0220
     de2:	b0 91 21 02 	lds	r27, 0x0221
     de6:	80 93 6e 01 	sts	0x016E, r24
     dea:	90 93 6f 01 	sts	0x016F, r25
     dee:	a0 93 70 01 	sts	0x0170, r26
     df2:	b0 93 71 01 	sts	0x0171, r27
     df6:	80 91 22 02 	lds	r24, 0x0222
     dfa:	90 91 23 02 	lds	r25, 0x0223
     dfe:	a0 91 24 02 	lds	r26, 0x0224
     e02:	b0 91 25 02 	lds	r27, 0x0225
     e06:	80 93 72 01 	sts	0x0172, r24
     e0a:	90 93 73 01 	sts	0x0173, r25
     e0e:	a0 93 74 01 	sts	0x0174, r26
     e12:	b0 93 75 01 	sts	0x0175, r27
     e16:	80 91 26 02 	lds	r24, 0x0226
     e1a:	90 91 27 02 	lds	r25, 0x0227
     e1e:	a0 91 28 02 	lds	r26, 0x0228
     e22:	b0 91 29 02 	lds	r27, 0x0229
     e26:	80 93 76 01 	sts	0x0176, r24
     e2a:	90 93 77 01 	sts	0x0177, r25
     e2e:	a0 93 78 01 	sts	0x0178, r26
     e32:	b0 93 79 01 	sts	0x0179, r27
     e36:	80 91 2a 02 	lds	r24, 0x022A
     e3a:	90 91 2b 02 	lds	r25, 0x022B
     e3e:	a0 91 2c 02 	lds	r26, 0x022C
     e42:	b0 91 2d 02 	lds	r27, 0x022D
     e46:	80 93 7a 01 	sts	0x017A, r24
     e4a:	90 93 7b 01 	sts	0x017B, r25
     e4e:	a0 93 7c 01 	sts	0x017C, r26
     e52:	b0 93 7d 01 	sts	0x017D, r27
     e56:	80 91 04 01 	lds	r24, 0x0104
     e5a:	90 91 05 01 	lds	r25, 0x0105
     e5e:	49 87       	std	Y+9, r20	; 0x09
     e60:	0e 94 a8 03 	call	0x750	; 0x750 <eeprom_save_config>
     e64:	04 cf       	rjmp	.-504    	; 0xc6e <pm_config_protocol+0x1cc>
     e66:	f0 92 8c 01 	sts	0x018C, r15
     e6a:	40 93 8d 01 	sts	0x018D, r20
     e6e:	0e 94 0a 01 	call	0x214	; 0x214 <at86rf231_req_data>
     e72:	81 e0       	ldi	r24, 0x01	; 1
     e74:	80 93 13 01 	sts	0x0113, r24
     e78:	89 83       	std	Y+1, r24	; 0x01
     e7a:	3f ce       	rjmp	.-898    	; 0xafa <pm_config_protocol+0x58>
     e7c:	82 e0       	ldi	r24, 0x02	; 2
     e7e:	68 e0       	ldi	r22, 0x08	; 8
     e80:	0e 94 c8 03 	call	0x790	; 0x790 <pal_trx_reg_write>
     e84:	88 85       	ldd	r24, Y+8	; 0x08
     e86:	88 30       	cpi	r24, 0x08	; 8
     e88:	39 f0       	breq	.+14     	; 0xe98 <pm_config_protocol+0x3f6>
     e8a:	81 e0       	ldi	r24, 0x01	; 1
     e8c:	6f e1       	ldi	r22, 0x1F	; 31
     e8e:	40 e0       	ldi	r20, 0x00	; 0
     e90:	0e 94 26 04 	call	0x84c	; 0x84c <pal_trx_bit_read>
     e94:	88 30       	cpi	r24, 0x08	; 8
     e96:	c9 f7       	brne	.-14     	; 0xe8a <pm_config_protocol+0x3e8>
     e98:	80 91 0c 02 	lds	r24, 0x020C
     e9c:	0e 94 42 01 	call	0x284	; 0x284 <at86rf231_change_channel>
     ea0:	90 e0       	ldi	r25, 0x00	; 0
     ea2:	9b 83       	std	Y+3, r25	; 0x03
     ea4:	8a 83       	std	Y+2, r24	; 0x02
     ea6:	20 91 0c 02 	lds	r18, 0x020C
     eaa:	8a 81       	ldd	r24, Y+2	; 0x02
     eac:	9b 81       	ldd	r25, Y+3	; 0x03
     eae:	30 e0       	ldi	r19, 0x00	; 0
     eb0:	28 17       	cp	r18, r24
     eb2:	39 07       	cpc	r19, r25
     eb4:	09 f4       	brne	.+2      	; 0xeb8 <pm_config_protocol+0x416>
     eb6:	42 c0       	rjmp	.+132    	; 0xf3c <pm_config_protocol+0x49a>
     eb8:	e0 92 8c 01 	sts	0x018C, r14
     ebc:	c0 92 8d 01 	sts	0x018D, r12
     ec0:	8a 81       	ldd	r24, Y+2	; 0x02
     ec2:	9b 81       	ldd	r25, Y+3	; 0x03
     ec4:	80 93 8e 01 	sts	0x018E, r24
     ec8:	0e 94 0a 01 	call	0x214	; 0x214 <at86rf231_req_data>
     ecc:	81 e0       	ldi	r24, 0x01	; 1
     ece:	89 83       	std	Y+1, r24	; 0x01
     ed0:	28 e0       	ldi	r18, 0x08	; 8
     ed2:	28 87       	std	Y+8, r18	; 0x08
     ed4:	12 ce       	rjmp	.-988    	; 0xafa <pm_config_protocol+0x58>
     ed6:	8a 81       	ldd	r24, Y+2	; 0x02
     ed8:	9b 81       	ldd	r25, Y+3	; 0x03
     eda:	90 93 53 01 	sts	0x0153, r25
     ede:	80 93 52 01 	sts	0x0152, r24
     ee2:	80 91 04 01 	lds	r24, 0x0104
     ee6:	90 91 05 01 	lds	r25, 0x0105
     eea:	49 87       	std	Y+9, r20	; 0x09
     eec:	0e 94 a8 03 	call	0x750	; 0x750 <eeprom_save_config>
     ef0:	f0 92 8c 01 	sts	0x018C, r15
     ef4:	49 85       	ldd	r20, Y+9	; 0x09
     ef6:	40 93 8d 01 	sts	0x018D, r20
     efa:	80 91 52 01 	lds	r24, 0x0152
     efe:	90 91 53 01 	lds	r25, 0x0153
     f02:	00 97       	sbiw	r24, 0x00	; 0
     f04:	c1 f0       	breq	.+48     	; 0xf36 <pm_config_protocol+0x494>
     f06:	81 e0       	ldi	r24, 0x01	; 1
     f08:	80 93 01 01 	sts	0x0101, r24
     f0c:	b0 be       	out	0x30, r11	; 48
     f0e:	10 92 0b 01 	sts	0x010B, r1
     f12:	10 92 0c 01 	sts	0x010C, r1
     f16:	10 92 0d 01 	sts	0x010D, r1
     f1a:	10 92 0e 01 	sts	0x010E, r1
     f1e:	ac ce       	rjmp	.-680    	; 0xc78 <pm_config_protocol+0x1d6>
     f20:	10 92 0b 02 	sts	0x020B, r1
     f24:	19 82       	std	Y+1, r1	; 0x01
     f26:	82 e0       	ldi	r24, 0x02	; 2
     f28:	80 93 6f 00 	sts	0x006F, r24
     f2c:	86 bb       	out	0x16, r24	; 22
     f2e:	68 e0       	ldi	r22, 0x08	; 8
     f30:	0e 94 c8 03 	call	0x790	; 0x790 <pal_trx_reg_write>
     f34:	69 ce       	rjmp	.-814    	; 0xc08 <pm_config_protocol+0x166>
     f36:	10 92 01 01 	sts	0x0101, r1
     f3a:	e9 cf       	rjmp	.-46     	; 0xf0e <pm_config_protocol+0x46c>
     f3c:	80 91 0c 02 	lds	r24, 0x020C
     f40:	80 93 4f 01 	sts	0x014F, r24
     f44:	80 91 04 01 	lds	r24, 0x0104
     f48:	90 91 05 01 	lds	r25, 0x0105
     f4c:	0e 94 a8 03 	call	0x750	; 0x750 <eeprom_save_config>
     f50:	f0 92 8c 01 	sts	0x018C, r15
     f54:	c0 92 8d 01 	sts	0x018D, r12
     f58:	8a 81       	ldd	r24, Y+2	; 0x02
     f5a:	9b 81       	ldd	r25, Y+3	; 0x03
     f5c:	80 93 8e 01 	sts	0x018E, r24
     f60:	b3 cf       	rjmp	.-154    	; 0xec8 <pm_config_protocol+0x426>

00000f62 <sw_TWI_write_single_register>:
     f62:	f8 94       	cli
     f64:	92 b1       	in	r25, 0x02	; 2
     f66:	98 2b       	or	r25, r24
     f68:	92 b9       	out	0x02, r25	; 2
     f6a:	21 b1       	in	r18, 0x01	; 1
     f6c:	98 2f       	mov	r25, r24
     f6e:	90 95       	com	r25
     f70:	29 23       	and	r18, r25
     f72:	21 b9       	out	0x01, r18	; 1
     f74:	00 00       	nop
     f76:	00 00       	nop
     f78:	14 9a       	sbi	0x02, 4	; 2
     f7a:	0c 98       	cbi	0x01, 4	; 1
     f7c:	04 9b       	sbis	0x00, 4	; 0
     f7e:	fe cf       	rjmp	.-4      	; 0xf7c <sw_TWI_write_single_register+0x1a>
	...
     f88:	22 b1       	in	r18, 0x02	; 2
     f8a:	29 23       	and	r18, r25
     f8c:	22 b9       	out	0x02, r18	; 2
     f8e:	21 b1       	in	r18, 0x01	; 1
     f90:	28 2b       	or	r18, r24
     f92:	21 b9       	out	0x01, r18	; 1
     f94:	00 00       	nop
     f96:	00 00       	nop
     f98:	14 98       	cbi	0x02, 4	; 2
     f9a:	0c 9a       	sbi	0x01, 4	; 1
     f9c:	00 00       	nop
     f9e:	00 00       	nop
     fa0:	00 00       	nop
     fa2:	22 b1       	in	r18, 0x02	; 2
     fa4:	28 2b       	or	r18, r24
     fa6:	22 b9       	out	0x02, r18	; 2
     fa8:	21 b1       	in	r18, 0x01	; 1
     faa:	29 23       	and	r18, r25
     fac:	21 b9       	out	0x01, r18	; 1
     fae:	00 00       	nop
     fb0:	00 00       	nop
     fb2:	14 9a       	sbi	0x02, 4	; 2
     fb4:	0c 98       	cbi	0x01, 4	; 1
     fb6:	04 9b       	sbis	0x00, 4	; 0
     fb8:	fe cf       	rjmp	.-4      	; 0xfb6 <sw_TWI_write_single_register+0x54>
	...
     fc2:	14 98       	cbi	0x02, 4	; 2
     fc4:	0c 9a       	sbi	0x01, 4	; 1
     fc6:	00 00       	nop
     fc8:	00 00       	nop
     fca:	00 00       	nop
     fcc:	22 b1       	in	r18, 0x02	; 2
     fce:	29 23       	and	r18, r25
     fd0:	22 b9       	out	0x02, r18	; 2
     fd2:	21 b1       	in	r18, 0x01	; 1
     fd4:	28 2b       	or	r18, r24
     fd6:	21 b9       	out	0x01, r18	; 1
     fd8:	00 00       	nop
     fda:	00 00       	nop
     fdc:	14 9a       	sbi	0x02, 4	; 2
     fde:	0c 98       	cbi	0x01, 4	; 1
     fe0:	04 9b       	sbis	0x00, 4	; 0
     fe2:	fe cf       	rjmp	.-4      	; 0xfe0 <sw_TWI_write_single_register+0x7e>
	...
     fec:	14 98       	cbi	0x02, 4	; 2
     fee:	0c 9a       	sbi	0x01, 4	; 1
     ff0:	00 00       	nop
     ff2:	00 00       	nop
     ff4:	00 00       	nop
     ff6:	22 b1       	in	r18, 0x02	; 2
     ff8:	29 23       	and	r18, r25
     ffa:	22 b9       	out	0x02, r18	; 2
     ffc:	21 b1       	in	r18, 0x01	; 1
     ffe:	28 2b       	or	r18, r24
    1000:	21 b9       	out	0x01, r18	; 1
    1002:	00 00       	nop
    1004:	00 00       	nop
    1006:	14 9a       	sbi	0x02, 4	; 2
    1008:	0c 98       	cbi	0x01, 4	; 1
    100a:	04 9b       	sbis	0x00, 4	; 0
    100c:	fe cf       	rjmp	.-4      	; 0x100a <sw_TWI_write_single_register+0xa8>
	...
    1016:	14 98       	cbi	0x02, 4	; 2
    1018:	0c 9a       	sbi	0x01, 4	; 1
    101a:	00 00       	nop
    101c:	00 00       	nop
    101e:	00 00       	nop
    1020:	22 b1       	in	r18, 0x02	; 2
    1022:	28 2b       	or	r18, r24
    1024:	22 b9       	out	0x02, r18	; 2
    1026:	21 b1       	in	r18, 0x01	; 1
    1028:	29 23       	and	r18, r25
    102a:	21 b9       	out	0x01, r18	; 1
    102c:	00 00       	nop
    102e:	00 00       	nop
    1030:	14 9a       	sbi	0x02, 4	; 2
    1032:	0c 98       	cbi	0x01, 4	; 1
    1034:	04 9b       	sbis	0x00, 4	; 0
    1036:	fe cf       	rjmp	.-4      	; 0x1034 <sw_TWI_write_single_register+0xd2>
	...
    1040:	14 98       	cbi	0x02, 4	; 2
    1042:	0c 9a       	sbi	0x01, 4	; 1
    1044:	00 00       	nop
    1046:	00 00       	nop
    1048:	00 00       	nop
    104a:	22 b1       	in	r18, 0x02	; 2
    104c:	29 23       	and	r18, r25
    104e:	22 b9       	out	0x02, r18	; 2
    1050:	21 b1       	in	r18, 0x01	; 1
    1052:	28 2b       	or	r18, r24
    1054:	21 b9       	out	0x01, r18	; 1
    1056:	00 00       	nop
    1058:	00 00       	nop
    105a:	14 9a       	sbi	0x02, 4	; 2
    105c:	0c 98       	cbi	0x01, 4	; 1
    105e:	04 9b       	sbis	0x00, 4	; 0
    1060:	fe cf       	rjmp	.-4      	; 0x105e <sw_TWI_write_single_register+0xfc>
	...
    106a:	14 98       	cbi	0x02, 4	; 2
    106c:	0c 9a       	sbi	0x01, 4	; 1
    106e:	00 00       	nop
    1070:	00 00       	nop
    1072:	00 00       	nop
    1074:	22 b1       	in	r18, 0x02	; 2
    1076:	29 23       	and	r18, r25
    1078:	22 b9       	out	0x02, r18	; 2
    107a:	21 b1       	in	r18, 0x01	; 1
    107c:	28 2b       	or	r18, r24
    107e:	21 b9       	out	0x01, r18	; 1
    1080:	00 00       	nop
    1082:	00 00       	nop
    1084:	14 9a       	sbi	0x02, 4	; 2
    1086:	0c 98       	cbi	0x01, 4	; 1
    1088:	04 9b       	sbis	0x00, 4	; 0
    108a:	fe cf       	rjmp	.-4      	; 0x1088 <sw_TWI_write_single_register+0x126>
	...
    1094:	14 98       	cbi	0x02, 4	; 2
    1096:	0c 9a       	sbi	0x01, 4	; 1
    1098:	00 00       	nop
    109a:	00 00       	nop
    109c:	00 00       	nop
    109e:	22 b1       	in	r18, 0x02	; 2
    10a0:	29 23       	and	r18, r25
    10a2:	22 b9       	out	0x02, r18	; 2
    10a4:	21 b1       	in	r18, 0x01	; 1
    10a6:	28 2b       	or	r18, r24
    10a8:	21 b9       	out	0x01, r18	; 1
    10aa:	00 00       	nop
    10ac:	00 00       	nop
    10ae:	14 9a       	sbi	0x02, 4	; 2
    10b0:	0c 98       	cbi	0x01, 4	; 1
    10b2:	04 9b       	sbis	0x00, 4	; 0
    10b4:	fe cf       	rjmp	.-4      	; 0x10b2 <sw_TWI_write_single_register+0x150>
	...
    10be:	14 98       	cbi	0x02, 4	; 2
    10c0:	0c 9a       	sbi	0x01, 4	; 1
    10c2:	00 00       	nop
    10c4:	00 00       	nop
    10c6:	00 00       	nop
    10c8:	22 b1       	in	r18, 0x02	; 2
    10ca:	29 23       	and	r18, r25
    10cc:	22 b9       	out	0x02, r18	; 2
    10ce:	21 b1       	in	r18, 0x01	; 1
    10d0:	28 2b       	or	r18, r24
    10d2:	21 b9       	out	0x01, r18	; 1
    10d4:	00 00       	nop
    10d6:	00 00       	nop
    10d8:	14 9a       	sbi	0x02, 4	; 2
    10da:	0c 98       	cbi	0x01, 4	; 1
    10dc:	04 9b       	sbis	0x00, 4	; 0
    10de:	fe cf       	rjmp	.-4      	; 0x10dc <sw_TWI_write_single_register+0x17a>
	...
    10e8:	14 98       	cbi	0x02, 4	; 2
    10ea:	0c 9a       	sbi	0x01, 4	; 1
    10ec:	00 00       	nop
    10ee:	00 00       	nop
    10f0:	00 00       	nop
    10f2:	22 b1       	in	r18, 0x02	; 2
    10f4:	28 2b       	or	r18, r24
    10f6:	22 b9       	out	0x02, r18	; 2
    10f8:	21 b1       	in	r18, 0x01	; 1
    10fa:	29 23       	and	r18, r25
    10fc:	21 b9       	out	0x01, r18	; 1
    10fe:	00 00       	nop
    1100:	00 00       	nop
    1102:	14 9a       	sbi	0x02, 4	; 2
    1104:	0c 98       	cbi	0x01, 4	; 1
    1106:	04 9b       	sbis	0x00, 4	; 0
    1108:	fe cf       	rjmp	.-4      	; 0x1106 <sw_TWI_write_single_register+0x1a4>
	...
    1112:	14 98       	cbi	0x02, 4	; 2
    1114:	0c 9a       	sbi	0x01, 4	; 1
    1116:	00 00       	nop
    1118:	00 00       	nop
    111a:	66 23       	and	r22, r22
    111c:	74 f4       	brge	.+28     	; 0x113a <sw_TWI_write_single_register+0x1d8>
    111e:	22 b1       	in	r18, 0x02	; 2
    1120:	28 2b       	or	r18, r24
    1122:	22 b9       	out	0x02, r18	; 2
    1124:	21 b1       	in	r18, 0x01	; 1
    1126:	29 23       	and	r18, r25
    1128:	21 b9       	out	0x01, r18	; 1
    112a:	00 00       	nop
    112c:	14 9a       	sbi	0x02, 4	; 2
    112e:	0c 98       	cbi	0x01, 4	; 1
    1130:	04 9b       	sbis	0x00, 4	; 0
    1132:	fe cf       	rjmp	.-4      	; 0x1130 <sw_TWI_write_single_register+0x1ce>
    1134:	00 00       	nop
    1136:	00 00       	nop
    1138:	0e c0       	rjmp	.+28     	; 0x1156 <sw_TWI_write_single_register+0x1f4>
    113a:	22 b1       	in	r18, 0x02	; 2
    113c:	29 23       	and	r18, r25
    113e:	22 b9       	out	0x02, r18	; 2
    1140:	21 b1       	in	r18, 0x01	; 1
    1142:	28 2b       	or	r18, r24
    1144:	21 b9       	out	0x01, r18	; 1
    1146:	14 9a       	sbi	0x02, 4	; 2
    1148:	0c 98       	cbi	0x01, 4	; 1
    114a:	04 9b       	sbis	0x00, 4	; 0
    114c:	fe cf       	rjmp	.-4      	; 0x114a <sw_TWI_write_single_register+0x1e8>
	...
    1156:	14 98       	cbi	0x02, 4	; 2
    1158:	0c 9a       	sbi	0x01, 4	; 1
    115a:	26 2f       	mov	r18, r22
    115c:	22 0f       	add	r18, r18
    115e:	66 ff       	sbrs	r22, 6
    1160:	0e c0       	rjmp	.+28     	; 0x117e <sw_TWI_write_single_register+0x21c>
    1162:	32 b1       	in	r19, 0x02	; 2
    1164:	38 2b       	or	r19, r24
    1166:	32 b9       	out	0x02, r19	; 2
    1168:	31 b1       	in	r19, 0x01	; 1
    116a:	39 23       	and	r19, r25
    116c:	31 b9       	out	0x01, r19	; 1
    116e:	00 00       	nop
    1170:	14 9a       	sbi	0x02, 4	; 2
    1172:	0c 98       	cbi	0x01, 4	; 1
    1174:	04 9b       	sbis	0x00, 4	; 0
    1176:	fe cf       	rjmp	.-4      	; 0x1174 <sw_TWI_write_single_register+0x212>
    1178:	00 00       	nop
    117a:	00 00       	nop
    117c:	0e c0       	rjmp	.+28     	; 0x119a <sw_TWI_write_single_register+0x238>
    117e:	32 b1       	in	r19, 0x02	; 2
    1180:	39 23       	and	r19, r25
    1182:	32 b9       	out	0x02, r19	; 2
    1184:	31 b1       	in	r19, 0x01	; 1
    1186:	38 2b       	or	r19, r24
    1188:	31 b9       	out	0x01, r19	; 1
    118a:	14 9a       	sbi	0x02, 4	; 2
    118c:	0c 98       	cbi	0x01, 4	; 1
    118e:	04 9b       	sbis	0x00, 4	; 0
    1190:	fe cf       	rjmp	.-4      	; 0x118e <sw_TWI_write_single_register+0x22c>
	...
    119a:	14 98       	cbi	0x02, 4	; 2
    119c:	0c 9a       	sbi	0x01, 4	; 1
    119e:	32 2f       	mov	r19, r18
    11a0:	33 0f       	add	r19, r19
    11a2:	26 ff       	sbrs	r18, 6
    11a4:	0e c0       	rjmp	.+28     	; 0x11c2 <sw_TWI_write_single_register+0x260>
    11a6:	22 b1       	in	r18, 0x02	; 2
    11a8:	28 2b       	or	r18, r24
    11aa:	22 b9       	out	0x02, r18	; 2
    11ac:	21 b1       	in	r18, 0x01	; 1
    11ae:	29 23       	and	r18, r25
    11b0:	21 b9       	out	0x01, r18	; 1
    11b2:	00 00       	nop
    11b4:	14 9a       	sbi	0x02, 4	; 2
    11b6:	0c 98       	cbi	0x01, 4	; 1
    11b8:	04 9b       	sbis	0x00, 4	; 0
    11ba:	fe cf       	rjmp	.-4      	; 0x11b8 <sw_TWI_write_single_register+0x256>
    11bc:	00 00       	nop
    11be:	00 00       	nop
    11c0:	0e c0       	rjmp	.+28     	; 0x11de <sw_TWI_write_single_register+0x27c>
    11c2:	22 b1       	in	r18, 0x02	; 2
    11c4:	29 23       	and	r18, r25
    11c6:	22 b9       	out	0x02, r18	; 2
    11c8:	21 b1       	in	r18, 0x01	; 1
    11ca:	28 2b       	or	r18, r24
    11cc:	21 b9       	out	0x01, r18	; 1
    11ce:	14 9a       	sbi	0x02, 4	; 2
    11d0:	0c 98       	cbi	0x01, 4	; 1
    11d2:	04 9b       	sbis	0x00, 4	; 0
    11d4:	fe cf       	rjmp	.-4      	; 0x11d2 <sw_TWI_write_single_register+0x270>
	...
    11de:	14 98       	cbi	0x02, 4	; 2
    11e0:	0c 9a       	sbi	0x01, 4	; 1
    11e2:	23 2f       	mov	r18, r19
    11e4:	22 0f       	add	r18, r18
    11e6:	36 ff       	sbrs	r19, 6
    11e8:	0e c0       	rjmp	.+28     	; 0x1206 <sw_TWI_write_single_register+0x2a4>
    11ea:	32 b1       	in	r19, 0x02	; 2
    11ec:	38 2b       	or	r19, r24
    11ee:	32 b9       	out	0x02, r19	; 2
    11f0:	31 b1       	in	r19, 0x01	; 1
    11f2:	39 23       	and	r19, r25
    11f4:	31 b9       	out	0x01, r19	; 1
    11f6:	00 00       	nop
    11f8:	14 9a       	sbi	0x02, 4	; 2
    11fa:	0c 98       	cbi	0x01, 4	; 1
    11fc:	04 9b       	sbis	0x00, 4	; 0
    11fe:	fe cf       	rjmp	.-4      	; 0x11fc <sw_TWI_write_single_register+0x29a>
    1200:	00 00       	nop
    1202:	00 00       	nop
    1204:	0e c0       	rjmp	.+28     	; 0x1222 <sw_TWI_write_single_register+0x2c0>
    1206:	32 b1       	in	r19, 0x02	; 2
    1208:	39 23       	and	r19, r25
    120a:	32 b9       	out	0x02, r19	; 2
    120c:	31 b1       	in	r19, 0x01	; 1
    120e:	38 2b       	or	r19, r24
    1210:	31 b9       	out	0x01, r19	; 1
    1212:	14 9a       	sbi	0x02, 4	; 2
    1214:	0c 98       	cbi	0x01, 4	; 1
    1216:	04 9b       	sbis	0x00, 4	; 0
    1218:	fe cf       	rjmp	.-4      	; 0x1216 <sw_TWI_write_single_register+0x2b4>
	...
    1222:	14 98       	cbi	0x02, 4	; 2
    1224:	0c 9a       	sbi	0x01, 4	; 1
    1226:	32 2f       	mov	r19, r18
    1228:	33 0f       	add	r19, r19
    122a:	26 ff       	sbrs	r18, 6
    122c:	0e c0       	rjmp	.+28     	; 0x124a <sw_TWI_write_single_register+0x2e8>
    122e:	22 b1       	in	r18, 0x02	; 2
    1230:	28 2b       	or	r18, r24
    1232:	22 b9       	out	0x02, r18	; 2
    1234:	21 b1       	in	r18, 0x01	; 1
    1236:	29 23       	and	r18, r25
    1238:	21 b9       	out	0x01, r18	; 1
    123a:	00 00       	nop
    123c:	14 9a       	sbi	0x02, 4	; 2
    123e:	0c 98       	cbi	0x01, 4	; 1
    1240:	04 9b       	sbis	0x00, 4	; 0
    1242:	fe cf       	rjmp	.-4      	; 0x1240 <sw_TWI_write_single_register+0x2de>
    1244:	00 00       	nop
    1246:	00 00       	nop
    1248:	0e c0       	rjmp	.+28     	; 0x1266 <sw_TWI_write_single_register+0x304>
    124a:	22 b1       	in	r18, 0x02	; 2
    124c:	29 23       	and	r18, r25
    124e:	22 b9       	out	0x02, r18	; 2
    1250:	21 b1       	in	r18, 0x01	; 1
    1252:	28 2b       	or	r18, r24
    1254:	21 b9       	out	0x01, r18	; 1
    1256:	14 9a       	sbi	0x02, 4	; 2
    1258:	0c 98       	cbi	0x01, 4	; 1
    125a:	04 9b       	sbis	0x00, 4	; 0
    125c:	fe cf       	rjmp	.-4      	; 0x125a <sw_TWI_write_single_register+0x2f8>
	...
    1266:	14 98       	cbi	0x02, 4	; 2
    1268:	0c 9a       	sbi	0x01, 4	; 1
    126a:	23 2f       	mov	r18, r19
    126c:	22 0f       	add	r18, r18
    126e:	36 ff       	sbrs	r19, 6
    1270:	0e c0       	rjmp	.+28     	; 0x128e <sw_TWI_write_single_register+0x32c>
    1272:	32 b1       	in	r19, 0x02	; 2
    1274:	38 2b       	or	r19, r24
    1276:	32 b9       	out	0x02, r19	; 2
    1278:	31 b1       	in	r19, 0x01	; 1
    127a:	39 23       	and	r19, r25
    127c:	31 b9       	out	0x01, r19	; 1
    127e:	00 00       	nop
    1280:	14 9a       	sbi	0x02, 4	; 2
    1282:	0c 98       	cbi	0x01, 4	; 1
    1284:	04 9b       	sbis	0x00, 4	; 0
    1286:	fe cf       	rjmp	.-4      	; 0x1284 <sw_TWI_write_single_register+0x322>
    1288:	00 00       	nop
    128a:	00 00       	nop
    128c:	0e c0       	rjmp	.+28     	; 0x12aa <sw_TWI_write_single_register+0x348>
    128e:	32 b1       	in	r19, 0x02	; 2
    1290:	39 23       	and	r19, r25
    1292:	32 b9       	out	0x02, r19	; 2
    1294:	31 b1       	in	r19, 0x01	; 1
    1296:	38 2b       	or	r19, r24
    1298:	31 b9       	out	0x01, r19	; 1
    129a:	14 9a       	sbi	0x02, 4	; 2
    129c:	0c 98       	cbi	0x01, 4	; 1
    129e:	04 9b       	sbis	0x00, 4	; 0
    12a0:	fe cf       	rjmp	.-4      	; 0x129e <sw_TWI_write_single_register+0x33c>
	...
    12aa:	14 98       	cbi	0x02, 4	; 2
    12ac:	0c 9a       	sbi	0x01, 4	; 1
    12ae:	32 2f       	mov	r19, r18
    12b0:	33 0f       	add	r19, r19
    12b2:	26 ff       	sbrs	r18, 6
    12b4:	0e c0       	rjmp	.+28     	; 0x12d2 <sw_TWI_write_single_register+0x370>
    12b6:	22 b1       	in	r18, 0x02	; 2
    12b8:	28 2b       	or	r18, r24
    12ba:	22 b9       	out	0x02, r18	; 2
    12bc:	21 b1       	in	r18, 0x01	; 1
    12be:	29 23       	and	r18, r25
    12c0:	21 b9       	out	0x01, r18	; 1
    12c2:	00 00       	nop
    12c4:	14 9a       	sbi	0x02, 4	; 2
    12c6:	0c 98       	cbi	0x01, 4	; 1
    12c8:	04 9b       	sbis	0x00, 4	; 0
    12ca:	fe cf       	rjmp	.-4      	; 0x12c8 <sw_TWI_write_single_register+0x366>
    12cc:	00 00       	nop
    12ce:	00 00       	nop
    12d0:	0e c0       	rjmp	.+28     	; 0x12ee <sw_TWI_write_single_register+0x38c>
    12d2:	22 b1       	in	r18, 0x02	; 2
    12d4:	29 23       	and	r18, r25
    12d6:	22 b9       	out	0x02, r18	; 2
    12d8:	21 b1       	in	r18, 0x01	; 1
    12da:	28 2b       	or	r18, r24
    12dc:	21 b9       	out	0x01, r18	; 1
    12de:	14 9a       	sbi	0x02, 4	; 2
    12e0:	0c 98       	cbi	0x01, 4	; 1
    12e2:	04 9b       	sbis	0x00, 4	; 0
    12e4:	fe cf       	rjmp	.-4      	; 0x12e2 <sw_TWI_write_single_register+0x380>
	...
    12ee:	14 98       	cbi	0x02, 4	; 2
    12f0:	0c 9a       	sbi	0x01, 4	; 1
    12f2:	36 ff       	sbrs	r19, 6
    12f4:	10 c0       	rjmp	.+32     	; 0x1316 <sw_TWI_write_single_register+0x3b4>
    12f6:	22 b1       	in	r18, 0x02	; 2
    12f8:	28 2b       	or	r18, r24
    12fa:	22 b9       	out	0x02, r18	; 2
    12fc:	21 b1       	in	r18, 0x01	; 1
    12fe:	29 23       	and	r18, r25
    1300:	21 b9       	out	0x01, r18	; 1
    1302:	00 00       	nop
    1304:	00 00       	nop
    1306:	00 00       	nop
    1308:	14 9a       	sbi	0x02, 4	; 2
    130a:	0c 98       	cbi	0x01, 4	; 1
    130c:	04 9b       	sbis	0x00, 4	; 0
    130e:	fe cf       	rjmp	.-4      	; 0x130c <sw_TWI_write_single_register+0x3aa>
    1310:	00 00       	nop
    1312:	00 00       	nop
    1314:	10 c0       	rjmp	.+32     	; 0x1336 <sw_TWI_write_single_register+0x3d4>
    1316:	22 b1       	in	r18, 0x02	; 2
    1318:	29 23       	and	r18, r25
    131a:	22 b9       	out	0x02, r18	; 2
    131c:	21 b1       	in	r18, 0x01	; 1
    131e:	28 2b       	or	r18, r24
    1320:	21 b9       	out	0x01, r18	; 1
    1322:	00 00       	nop
    1324:	00 00       	nop
    1326:	14 9a       	sbi	0x02, 4	; 2
    1328:	0c 98       	cbi	0x01, 4	; 1
    132a:	04 9b       	sbis	0x00, 4	; 0
    132c:	fe cf       	rjmp	.-4      	; 0x132a <sw_TWI_write_single_register+0x3c8>
	...
    1336:	14 98       	cbi	0x02, 4	; 2
    1338:	0c 9a       	sbi	0x01, 4	; 1
    133a:	22 b1       	in	r18, 0x02	; 2
    133c:	28 2b       	or	r18, r24
    133e:	22 b9       	out	0x02, r18	; 2
    1340:	21 b1       	in	r18, 0x01	; 1
    1342:	29 23       	and	r18, r25
    1344:	21 b9       	out	0x01, r18	; 1
	...
    134e:	00 00       	nop
    1350:	14 9a       	sbi	0x02, 4	; 2
    1352:	0c 98       	cbi	0x01, 4	; 1
    1354:	04 9b       	sbis	0x00, 4	; 0
    1356:	fe cf       	rjmp	.-4      	; 0x1354 <sw_TWI_write_single_register+0x3f2>
	...
    1360:	14 98       	cbi	0x02, 4	; 2
    1362:	0c 9a       	sbi	0x01, 4	; 1
    1364:	00 00       	nop
    1366:	00 00       	nop
    1368:	44 23       	and	r20, r20
    136a:	74 f4       	brge	.+28     	; 0x1388 <sw_TWI_write_single_register+0x426>
    136c:	22 b1       	in	r18, 0x02	; 2
    136e:	28 2b       	or	r18, r24
    1370:	22 b9       	out	0x02, r18	; 2
    1372:	21 b1       	in	r18, 0x01	; 1
    1374:	29 23       	and	r18, r25
    1376:	21 b9       	out	0x01, r18	; 1
    1378:	00 00       	nop
    137a:	14 9a       	sbi	0x02, 4	; 2
    137c:	0c 98       	cbi	0x01, 4	; 1
    137e:	04 9b       	sbis	0x00, 4	; 0
    1380:	fe cf       	rjmp	.-4      	; 0x137e <sw_TWI_write_single_register+0x41c>
    1382:	00 00       	nop
    1384:	00 00       	nop
    1386:	0e c0       	rjmp	.+28     	; 0x13a4 <sw_TWI_write_single_register+0x442>
    1388:	22 b1       	in	r18, 0x02	; 2
    138a:	29 23       	and	r18, r25
    138c:	22 b9       	out	0x02, r18	; 2
    138e:	21 b1       	in	r18, 0x01	; 1
    1390:	28 2b       	or	r18, r24
    1392:	21 b9       	out	0x01, r18	; 1
    1394:	14 9a       	sbi	0x02, 4	; 2
    1396:	0c 98       	cbi	0x01, 4	; 1
    1398:	04 9b       	sbis	0x00, 4	; 0
    139a:	fe cf       	rjmp	.-4      	; 0x1398 <sw_TWI_write_single_register+0x436>
	...
    13a4:	14 98       	cbi	0x02, 4	; 2
    13a6:	0c 9a       	sbi	0x01, 4	; 1
    13a8:	24 2f       	mov	r18, r20
    13aa:	22 0f       	add	r18, r18
    13ac:	46 ff       	sbrs	r20, 6
    13ae:	0e c0       	rjmp	.+28     	; 0x13cc <sw_TWI_write_single_register+0x46a>
    13b0:	32 b1       	in	r19, 0x02	; 2
    13b2:	38 2b       	or	r19, r24
    13b4:	32 b9       	out	0x02, r19	; 2
    13b6:	31 b1       	in	r19, 0x01	; 1
    13b8:	39 23       	and	r19, r25
    13ba:	31 b9       	out	0x01, r19	; 1
    13bc:	00 00       	nop
    13be:	14 9a       	sbi	0x02, 4	; 2
    13c0:	0c 98       	cbi	0x01, 4	; 1
    13c2:	04 9b       	sbis	0x00, 4	; 0
    13c4:	fe cf       	rjmp	.-4      	; 0x13c2 <sw_TWI_write_single_register+0x460>
    13c6:	00 00       	nop
    13c8:	00 00       	nop
    13ca:	0e c0       	rjmp	.+28     	; 0x13e8 <sw_TWI_write_single_register+0x486>
    13cc:	32 b1       	in	r19, 0x02	; 2
    13ce:	39 23       	and	r19, r25
    13d0:	32 b9       	out	0x02, r19	; 2
    13d2:	31 b1       	in	r19, 0x01	; 1
    13d4:	38 2b       	or	r19, r24
    13d6:	31 b9       	out	0x01, r19	; 1
    13d8:	14 9a       	sbi	0x02, 4	; 2
    13da:	0c 98       	cbi	0x01, 4	; 1
    13dc:	04 9b       	sbis	0x00, 4	; 0
    13de:	fe cf       	rjmp	.-4      	; 0x13dc <sw_TWI_write_single_register+0x47a>
	...
    13e8:	14 98       	cbi	0x02, 4	; 2
    13ea:	0c 9a       	sbi	0x01, 4	; 1
    13ec:	32 2f       	mov	r19, r18
    13ee:	33 0f       	add	r19, r19
    13f0:	26 ff       	sbrs	r18, 6
    13f2:	0e c0       	rjmp	.+28     	; 0x1410 <sw_TWI_write_single_register+0x4ae>
    13f4:	22 b1       	in	r18, 0x02	; 2
    13f6:	28 2b       	or	r18, r24
    13f8:	22 b9       	out	0x02, r18	; 2
    13fa:	21 b1       	in	r18, 0x01	; 1
    13fc:	29 23       	and	r18, r25
    13fe:	21 b9       	out	0x01, r18	; 1
    1400:	00 00       	nop
    1402:	14 9a       	sbi	0x02, 4	; 2
    1404:	0c 98       	cbi	0x01, 4	; 1
    1406:	04 9b       	sbis	0x00, 4	; 0
    1408:	fe cf       	rjmp	.-4      	; 0x1406 <sw_TWI_write_single_register+0x4a4>
    140a:	00 00       	nop
    140c:	00 00       	nop
    140e:	0e c0       	rjmp	.+28     	; 0x142c <sw_TWI_write_single_register+0x4ca>
    1410:	22 b1       	in	r18, 0x02	; 2
    1412:	29 23       	and	r18, r25
    1414:	22 b9       	out	0x02, r18	; 2
    1416:	21 b1       	in	r18, 0x01	; 1
    1418:	28 2b       	or	r18, r24
    141a:	21 b9       	out	0x01, r18	; 1
    141c:	14 9a       	sbi	0x02, 4	; 2
    141e:	0c 98       	cbi	0x01, 4	; 1
    1420:	04 9b       	sbis	0x00, 4	; 0
    1422:	fe cf       	rjmp	.-4      	; 0x1420 <sw_TWI_write_single_register+0x4be>
	...
    142c:	14 98       	cbi	0x02, 4	; 2
    142e:	0c 9a       	sbi	0x01, 4	; 1
    1430:	23 2f       	mov	r18, r19
    1432:	22 0f       	add	r18, r18
    1434:	36 ff       	sbrs	r19, 6
    1436:	0e c0       	rjmp	.+28     	; 0x1454 <sw_TWI_write_single_register+0x4f2>
    1438:	32 b1       	in	r19, 0x02	; 2
    143a:	38 2b       	or	r19, r24
    143c:	32 b9       	out	0x02, r19	; 2
    143e:	31 b1       	in	r19, 0x01	; 1
    1440:	39 23       	and	r19, r25
    1442:	31 b9       	out	0x01, r19	; 1
    1444:	00 00       	nop
    1446:	14 9a       	sbi	0x02, 4	; 2
    1448:	0c 98       	cbi	0x01, 4	; 1
    144a:	04 9b       	sbis	0x00, 4	; 0
    144c:	fe cf       	rjmp	.-4      	; 0x144a <sw_TWI_write_single_register+0x4e8>
    144e:	00 00       	nop
    1450:	00 00       	nop
    1452:	0e c0       	rjmp	.+28     	; 0x1470 <sw_TWI_write_single_register+0x50e>
    1454:	32 b1       	in	r19, 0x02	; 2
    1456:	39 23       	and	r19, r25
    1458:	32 b9       	out	0x02, r19	; 2
    145a:	31 b1       	in	r19, 0x01	; 1
    145c:	38 2b       	or	r19, r24
    145e:	31 b9       	out	0x01, r19	; 1
    1460:	14 9a       	sbi	0x02, 4	; 2
    1462:	0c 98       	cbi	0x01, 4	; 1
    1464:	04 9b       	sbis	0x00, 4	; 0
    1466:	fe cf       	rjmp	.-4      	; 0x1464 <sw_TWI_write_single_register+0x502>
	...
    1470:	14 98       	cbi	0x02, 4	; 2
    1472:	0c 9a       	sbi	0x01, 4	; 1
    1474:	32 2f       	mov	r19, r18
    1476:	33 0f       	add	r19, r19
    1478:	26 ff       	sbrs	r18, 6
    147a:	0e c0       	rjmp	.+28     	; 0x1498 <sw_TWI_write_single_register+0x536>
    147c:	22 b1       	in	r18, 0x02	; 2
    147e:	28 2b       	or	r18, r24
    1480:	22 b9       	out	0x02, r18	; 2
    1482:	21 b1       	in	r18, 0x01	; 1
    1484:	29 23       	and	r18, r25
    1486:	21 b9       	out	0x01, r18	; 1
    1488:	00 00       	nop
    148a:	14 9a       	sbi	0x02, 4	; 2
    148c:	0c 98       	cbi	0x01, 4	; 1
    148e:	04 9b       	sbis	0x00, 4	; 0
    1490:	fe cf       	rjmp	.-4      	; 0x148e <sw_TWI_write_single_register+0x52c>
    1492:	00 00       	nop
    1494:	00 00       	nop
    1496:	0e c0       	rjmp	.+28     	; 0x14b4 <sw_TWI_write_single_register+0x552>
    1498:	22 b1       	in	r18, 0x02	; 2
    149a:	29 23       	and	r18, r25
    149c:	22 b9       	out	0x02, r18	; 2
    149e:	21 b1       	in	r18, 0x01	; 1
    14a0:	28 2b       	or	r18, r24
    14a2:	21 b9       	out	0x01, r18	; 1
    14a4:	14 9a       	sbi	0x02, 4	; 2
    14a6:	0c 98       	cbi	0x01, 4	; 1
    14a8:	04 9b       	sbis	0x00, 4	; 0
    14aa:	fe cf       	rjmp	.-4      	; 0x14a8 <sw_TWI_write_single_register+0x546>
	...
    14b4:	14 98       	cbi	0x02, 4	; 2
    14b6:	0c 9a       	sbi	0x01, 4	; 1
    14b8:	23 2f       	mov	r18, r19
    14ba:	22 0f       	add	r18, r18
    14bc:	36 ff       	sbrs	r19, 6
    14be:	0e c0       	rjmp	.+28     	; 0x14dc <sw_TWI_write_single_register+0x57a>
    14c0:	32 b1       	in	r19, 0x02	; 2
    14c2:	38 2b       	or	r19, r24
    14c4:	32 b9       	out	0x02, r19	; 2
    14c6:	31 b1       	in	r19, 0x01	; 1
    14c8:	39 23       	and	r19, r25
    14ca:	31 b9       	out	0x01, r19	; 1
    14cc:	00 00       	nop
    14ce:	14 9a       	sbi	0x02, 4	; 2
    14d0:	0c 98       	cbi	0x01, 4	; 1
    14d2:	04 9b       	sbis	0x00, 4	; 0
    14d4:	fe cf       	rjmp	.-4      	; 0x14d2 <sw_TWI_write_single_register+0x570>
    14d6:	00 00       	nop
    14d8:	00 00       	nop
    14da:	0e c0       	rjmp	.+28     	; 0x14f8 <sw_TWI_write_single_register+0x596>
    14dc:	32 b1       	in	r19, 0x02	; 2
    14de:	39 23       	and	r19, r25
    14e0:	32 b9       	out	0x02, r19	; 2
    14e2:	31 b1       	in	r19, 0x01	; 1
    14e4:	38 2b       	or	r19, r24
    14e6:	31 b9       	out	0x01, r19	; 1
    14e8:	14 9a       	sbi	0x02, 4	; 2
    14ea:	0c 98       	cbi	0x01, 4	; 1
    14ec:	04 9b       	sbis	0x00, 4	; 0
    14ee:	fe cf       	rjmp	.-4      	; 0x14ec <sw_TWI_write_single_register+0x58a>
	...
    14f8:	14 98       	cbi	0x02, 4	; 2
    14fa:	0c 9a       	sbi	0x01, 4	; 1
    14fc:	32 2f       	mov	r19, r18
    14fe:	33 0f       	add	r19, r19
    1500:	26 ff       	sbrs	r18, 6
    1502:	0e c0       	rjmp	.+28     	; 0x1520 <sw_TWI_write_single_register+0x5be>
    1504:	22 b1       	in	r18, 0x02	; 2
    1506:	28 2b       	or	r18, r24
    1508:	22 b9       	out	0x02, r18	; 2
    150a:	21 b1       	in	r18, 0x01	; 1
    150c:	29 23       	and	r18, r25
    150e:	21 b9       	out	0x01, r18	; 1
    1510:	00 00       	nop
    1512:	14 9a       	sbi	0x02, 4	; 2
    1514:	0c 98       	cbi	0x01, 4	; 1
    1516:	04 9b       	sbis	0x00, 4	; 0
    1518:	fe cf       	rjmp	.-4      	; 0x1516 <sw_TWI_write_single_register+0x5b4>
    151a:	00 00       	nop
    151c:	00 00       	nop
    151e:	0e c0       	rjmp	.+28     	; 0x153c <sw_TWI_write_single_register+0x5da>
    1520:	22 b1       	in	r18, 0x02	; 2
    1522:	29 23       	and	r18, r25
    1524:	22 b9       	out	0x02, r18	; 2
    1526:	21 b1       	in	r18, 0x01	; 1
    1528:	28 2b       	or	r18, r24
    152a:	21 b9       	out	0x01, r18	; 1
    152c:	14 9a       	sbi	0x02, 4	; 2
    152e:	0c 98       	cbi	0x01, 4	; 1
    1530:	04 9b       	sbis	0x00, 4	; 0
    1532:	fe cf       	rjmp	.-4      	; 0x1530 <sw_TWI_write_single_register+0x5ce>
	...
    153c:	14 98       	cbi	0x02, 4	; 2
    153e:	0c 9a       	sbi	0x01, 4	; 1
    1540:	36 ff       	sbrs	r19, 6
    1542:	10 c0       	rjmp	.+32     	; 0x1564 <sw_TWI_write_single_register+0x602>
    1544:	22 b1       	in	r18, 0x02	; 2
    1546:	28 2b       	or	r18, r24
    1548:	22 b9       	out	0x02, r18	; 2
    154a:	21 b1       	in	r18, 0x01	; 1
    154c:	29 23       	and	r18, r25
    154e:	21 b9       	out	0x01, r18	; 1
    1550:	00 00       	nop
    1552:	00 00       	nop
    1554:	00 00       	nop
    1556:	14 9a       	sbi	0x02, 4	; 2
    1558:	0c 98       	cbi	0x01, 4	; 1
    155a:	04 9b       	sbis	0x00, 4	; 0
    155c:	fe cf       	rjmp	.-4      	; 0x155a <sw_TWI_write_single_register+0x5f8>
    155e:	00 00       	nop
    1560:	00 00       	nop
    1562:	10 c0       	rjmp	.+32     	; 0x1584 <sw_TWI_write_single_register+0x622>
    1564:	22 b1       	in	r18, 0x02	; 2
    1566:	29 23       	and	r18, r25
    1568:	22 b9       	out	0x02, r18	; 2
    156a:	21 b1       	in	r18, 0x01	; 1
    156c:	28 2b       	or	r18, r24
    156e:	21 b9       	out	0x01, r18	; 1
    1570:	00 00       	nop
    1572:	00 00       	nop
    1574:	14 9a       	sbi	0x02, 4	; 2
    1576:	0c 98       	cbi	0x01, 4	; 1
    1578:	04 9b       	sbis	0x00, 4	; 0
    157a:	fe cf       	rjmp	.-4      	; 0x1578 <sw_TWI_write_single_register+0x616>
	...
    1584:	14 98       	cbi	0x02, 4	; 2
    1586:	0c 9a       	sbi	0x01, 4	; 1
    1588:	22 b1       	in	r18, 0x02	; 2
    158a:	28 2b       	or	r18, r24
    158c:	22 b9       	out	0x02, r18	; 2
    158e:	21 b1       	in	r18, 0x01	; 1
    1590:	29 23       	and	r18, r25
    1592:	21 b9       	out	0x01, r18	; 1
	...
    159c:	00 00       	nop
    159e:	14 9a       	sbi	0x02, 4	; 2
    15a0:	0c 98       	cbi	0x01, 4	; 1
    15a2:	04 9b       	sbis	0x00, 4	; 0
    15a4:	fe cf       	rjmp	.-4      	; 0x15a2 <sw_TWI_write_single_register+0x640>
	...
    15ae:	14 98       	cbi	0x02, 4	; 2
    15b0:	0c 9a       	sbi	0x01, 4	; 1
    15b2:	00 00       	nop
    15b4:	00 00       	nop
    15b6:	00 00       	nop
    15b8:	22 b1       	in	r18, 0x02	; 2
    15ba:	29 23       	and	r18, r25
    15bc:	22 b9       	out	0x02, r18	; 2
    15be:	21 b1       	in	r18, 0x01	; 1
    15c0:	28 2b       	or	r18, r24
    15c2:	21 b9       	out	0x01, r18	; 1
    15c4:	00 00       	nop
    15c6:	00 00       	nop
    15c8:	14 9a       	sbi	0x02, 4	; 2
    15ca:	0c 98       	cbi	0x01, 4	; 1
    15cc:	04 9b       	sbis	0x00, 4	; 0
    15ce:	fe cf       	rjmp	.-4      	; 0x15cc <sw_TWI_write_single_register+0x66a>
	...
    15d8:	22 b1       	in	r18, 0x02	; 2
    15da:	82 2b       	or	r24, r18
    15dc:	82 b9       	out	0x02, r24	; 2
    15de:	81 b1       	in	r24, 0x01	; 1
    15e0:	98 23       	and	r25, r24
    15e2:	91 b9       	out	0x01, r25	; 1
    15e4:	00 00       	nop
    15e6:	00 00       	nop
    15e8:	78 94       	sei
    15ea:	08 95       	ret

000015ec <sw_TWI_read_single_register>:
    15ec:	cf 92       	push	r12
    15ee:	df 92       	push	r13
    15f0:	ff 92       	push	r15
    15f2:	0f 93       	push	r16
    15f4:	1f 93       	push	r17
    15f6:	df 93       	push	r29
    15f8:	cf 93       	push	r28
    15fa:	cd b7       	in	r28, 0x3d	; 61
    15fc:	de b7       	in	r29, 0x3e	; 62
    15fe:	28 97       	sbiw	r28, 0x08	; 8
    1600:	0f b6       	in	r0, 0x3f	; 63
    1602:	f8 94       	cli
    1604:	de bf       	out	0x3e, r29	; 62
    1606:	0f be       	out	0x3f, r0	; 63
    1608:	cd bf       	out	0x3d, r28	; 61
    160a:	fa 01       	movw	r30, r20
    160c:	f8 94       	cli
    160e:	92 b1       	in	r25, 0x02	; 2
    1610:	98 2b       	or	r25, r24
    1612:	92 b9       	out	0x02, r25	; 2
    1614:	21 b1       	in	r18, 0x01	; 1
    1616:	98 2f       	mov	r25, r24
    1618:	90 95       	com	r25
    161a:	29 23       	and	r18, r25
    161c:	21 b9       	out	0x01, r18	; 1
    161e:	00 00       	nop
    1620:	00 00       	nop
    1622:	14 9a       	sbi	0x02, 4	; 2
    1624:	0c 98       	cbi	0x01, 4	; 1
    1626:	04 9b       	sbis	0x00, 4	; 0
    1628:	fe cf       	rjmp	.-4      	; 0x1626 <sw_TWI_read_single_register+0x3a>
	...
    1632:	22 b1       	in	r18, 0x02	; 2
    1634:	29 23       	and	r18, r25
    1636:	22 b9       	out	0x02, r18	; 2
    1638:	21 b1       	in	r18, 0x01	; 1
    163a:	28 2b       	or	r18, r24
    163c:	21 b9       	out	0x01, r18	; 1
    163e:	00 00       	nop
    1640:	00 00       	nop
    1642:	14 98       	cbi	0x02, 4	; 2
    1644:	0c 9a       	sbi	0x01, 4	; 1
    1646:	00 00       	nop
    1648:	00 00       	nop
    164a:	00 00       	nop
    164c:	22 b1       	in	r18, 0x02	; 2
    164e:	28 2b       	or	r18, r24
    1650:	22 b9       	out	0x02, r18	; 2
    1652:	21 b1       	in	r18, 0x01	; 1
    1654:	29 23       	and	r18, r25
    1656:	21 b9       	out	0x01, r18	; 1
    1658:	00 00       	nop
    165a:	00 00       	nop
    165c:	14 9a       	sbi	0x02, 4	; 2
    165e:	0c 98       	cbi	0x01, 4	; 1
    1660:	04 9b       	sbis	0x00, 4	; 0
    1662:	fe cf       	rjmp	.-4      	; 0x1660 <sw_TWI_read_single_register+0x74>
	...
    166c:	14 98       	cbi	0x02, 4	; 2
    166e:	0c 9a       	sbi	0x01, 4	; 1
    1670:	00 00       	nop
    1672:	00 00       	nop
    1674:	00 00       	nop
    1676:	22 b1       	in	r18, 0x02	; 2
    1678:	29 23       	and	r18, r25
    167a:	22 b9       	out	0x02, r18	; 2
    167c:	21 b1       	in	r18, 0x01	; 1
    167e:	28 2b       	or	r18, r24
    1680:	21 b9       	out	0x01, r18	; 1
    1682:	00 00       	nop
    1684:	00 00       	nop
    1686:	14 9a       	sbi	0x02, 4	; 2
    1688:	0c 98       	cbi	0x01, 4	; 1
    168a:	04 9b       	sbis	0x00, 4	; 0
    168c:	fe cf       	rjmp	.-4      	; 0x168a <sw_TWI_read_single_register+0x9e>
	...
    1696:	14 98       	cbi	0x02, 4	; 2
    1698:	0c 9a       	sbi	0x01, 4	; 1
    169a:	00 00       	nop
    169c:	00 00       	nop
    169e:	00 00       	nop
    16a0:	22 b1       	in	r18, 0x02	; 2
    16a2:	29 23       	and	r18, r25
    16a4:	22 b9       	out	0x02, r18	; 2
    16a6:	21 b1       	in	r18, 0x01	; 1
    16a8:	28 2b       	or	r18, r24
    16aa:	21 b9       	out	0x01, r18	; 1
    16ac:	00 00       	nop
    16ae:	00 00       	nop
    16b0:	14 9a       	sbi	0x02, 4	; 2
    16b2:	0c 98       	cbi	0x01, 4	; 1
    16b4:	04 9b       	sbis	0x00, 4	; 0
    16b6:	fe cf       	rjmp	.-4      	; 0x16b4 <sw_TWI_read_single_register+0xc8>
	...
    16c0:	14 98       	cbi	0x02, 4	; 2
    16c2:	0c 9a       	sbi	0x01, 4	; 1
    16c4:	00 00       	nop
    16c6:	00 00       	nop
    16c8:	00 00       	nop
    16ca:	22 b1       	in	r18, 0x02	; 2
    16cc:	28 2b       	or	r18, r24
    16ce:	22 b9       	out	0x02, r18	; 2
    16d0:	21 b1       	in	r18, 0x01	; 1
    16d2:	29 23       	and	r18, r25
    16d4:	21 b9       	out	0x01, r18	; 1
    16d6:	00 00       	nop
    16d8:	00 00       	nop
    16da:	14 9a       	sbi	0x02, 4	; 2
    16dc:	0c 98       	cbi	0x01, 4	; 1
    16de:	04 9b       	sbis	0x00, 4	; 0
    16e0:	fe cf       	rjmp	.-4      	; 0x16de <sw_TWI_read_single_register+0xf2>
	...
    16ea:	14 98       	cbi	0x02, 4	; 2
    16ec:	0c 9a       	sbi	0x01, 4	; 1
    16ee:	00 00       	nop
    16f0:	00 00       	nop
    16f2:	00 00       	nop
    16f4:	22 b1       	in	r18, 0x02	; 2
    16f6:	29 23       	and	r18, r25
    16f8:	22 b9       	out	0x02, r18	; 2
    16fa:	21 b1       	in	r18, 0x01	; 1
    16fc:	28 2b       	or	r18, r24
    16fe:	21 b9       	out	0x01, r18	; 1
    1700:	00 00       	nop
    1702:	00 00       	nop
    1704:	14 9a       	sbi	0x02, 4	; 2
    1706:	0c 98       	cbi	0x01, 4	; 1
    1708:	04 9b       	sbis	0x00, 4	; 0
    170a:	fe cf       	rjmp	.-4      	; 0x1708 <sw_TWI_read_single_register+0x11c>
	...
    1714:	14 98       	cbi	0x02, 4	; 2
    1716:	0c 9a       	sbi	0x01, 4	; 1
    1718:	00 00       	nop
    171a:	00 00       	nop
    171c:	00 00       	nop
    171e:	22 b1       	in	r18, 0x02	; 2
    1720:	29 23       	and	r18, r25
    1722:	22 b9       	out	0x02, r18	; 2
    1724:	21 b1       	in	r18, 0x01	; 1
    1726:	28 2b       	or	r18, r24
    1728:	21 b9       	out	0x01, r18	; 1
    172a:	00 00       	nop
    172c:	00 00       	nop
    172e:	14 9a       	sbi	0x02, 4	; 2
    1730:	0c 98       	cbi	0x01, 4	; 1
    1732:	04 9b       	sbis	0x00, 4	; 0
    1734:	fe cf       	rjmp	.-4      	; 0x1732 <sw_TWI_read_single_register+0x146>
	...
    173e:	14 98       	cbi	0x02, 4	; 2
    1740:	0c 9a       	sbi	0x01, 4	; 1
    1742:	00 00       	nop
    1744:	00 00       	nop
    1746:	00 00       	nop
    1748:	22 b1       	in	r18, 0x02	; 2
    174a:	29 23       	and	r18, r25
    174c:	22 b9       	out	0x02, r18	; 2
    174e:	21 b1       	in	r18, 0x01	; 1
    1750:	28 2b       	or	r18, r24
    1752:	21 b9       	out	0x01, r18	; 1
    1754:	00 00       	nop
    1756:	00 00       	nop
    1758:	14 9a       	sbi	0x02, 4	; 2
    175a:	0c 98       	cbi	0x01, 4	; 1
    175c:	04 9b       	sbis	0x00, 4	; 0
    175e:	fe cf       	rjmp	.-4      	; 0x175c <sw_TWI_read_single_register+0x170>
	...
    1768:	14 98       	cbi	0x02, 4	; 2
    176a:	0c 9a       	sbi	0x01, 4	; 1
    176c:	00 00       	nop
    176e:	00 00       	nop
    1770:	00 00       	nop
    1772:	22 b1       	in	r18, 0x02	; 2
    1774:	29 23       	and	r18, r25
    1776:	22 b9       	out	0x02, r18	; 2
    1778:	21 b1       	in	r18, 0x01	; 1
    177a:	28 2b       	or	r18, r24
    177c:	21 b9       	out	0x01, r18	; 1
    177e:	00 00       	nop
    1780:	00 00       	nop
    1782:	14 9a       	sbi	0x02, 4	; 2
    1784:	0c 98       	cbi	0x01, 4	; 1
    1786:	04 9b       	sbis	0x00, 4	; 0
    1788:	fe cf       	rjmp	.-4      	; 0x1786 <sw_TWI_read_single_register+0x19a>
	...
    1792:	14 98       	cbi	0x02, 4	; 2
    1794:	0c 9a       	sbi	0x01, 4	; 1
    1796:	00 00       	nop
    1798:	00 00       	nop
    179a:	00 00       	nop
    179c:	22 b1       	in	r18, 0x02	; 2
    179e:	28 2b       	or	r18, r24
    17a0:	22 b9       	out	0x02, r18	; 2
    17a2:	21 b1       	in	r18, 0x01	; 1
    17a4:	29 23       	and	r18, r25
    17a6:	21 b9       	out	0x01, r18	; 1
    17a8:	00 00       	nop
    17aa:	00 00       	nop
    17ac:	14 9a       	sbi	0x02, 4	; 2
    17ae:	0c 98       	cbi	0x01, 4	; 1
    17b0:	04 9b       	sbis	0x00, 4	; 0
    17b2:	fe cf       	rjmp	.-4      	; 0x17b0 <sw_TWI_read_single_register+0x1c4>
	...
    17bc:	14 98       	cbi	0x02, 4	; 2
    17be:	0c 9a       	sbi	0x01, 4	; 1
    17c0:	00 00       	nop
    17c2:	00 00       	nop
    17c4:	66 23       	and	r22, r22
    17c6:	74 f4       	brge	.+28     	; 0x17e4 <sw_TWI_read_single_register+0x1f8>
    17c8:	22 b1       	in	r18, 0x02	; 2
    17ca:	28 2b       	or	r18, r24
    17cc:	22 b9       	out	0x02, r18	; 2
    17ce:	21 b1       	in	r18, 0x01	; 1
    17d0:	29 23       	and	r18, r25
    17d2:	21 b9       	out	0x01, r18	; 1
    17d4:	00 00       	nop
    17d6:	14 9a       	sbi	0x02, 4	; 2
    17d8:	0c 98       	cbi	0x01, 4	; 1
    17da:	04 9b       	sbis	0x00, 4	; 0
    17dc:	fe cf       	rjmp	.-4      	; 0x17da <sw_TWI_read_single_register+0x1ee>
    17de:	00 00       	nop
    17e0:	00 00       	nop
    17e2:	0e c0       	rjmp	.+28     	; 0x1800 <sw_TWI_read_single_register+0x214>
    17e4:	22 b1       	in	r18, 0x02	; 2
    17e6:	29 23       	and	r18, r25
    17e8:	22 b9       	out	0x02, r18	; 2
    17ea:	21 b1       	in	r18, 0x01	; 1
    17ec:	28 2b       	or	r18, r24
    17ee:	21 b9       	out	0x01, r18	; 1
    17f0:	14 9a       	sbi	0x02, 4	; 2
    17f2:	0c 98       	cbi	0x01, 4	; 1
    17f4:	04 9b       	sbis	0x00, 4	; 0
    17f6:	fe cf       	rjmp	.-4      	; 0x17f4 <sw_TWI_read_single_register+0x208>
	...
    1800:	14 98       	cbi	0x02, 4	; 2
    1802:	0c 9a       	sbi	0x01, 4	; 1
    1804:	26 2f       	mov	r18, r22
    1806:	22 0f       	add	r18, r18
    1808:	66 ff       	sbrs	r22, 6
    180a:	0e c0       	rjmp	.+28     	; 0x1828 <sw_TWI_read_single_register+0x23c>
    180c:	32 b1       	in	r19, 0x02	; 2
    180e:	38 2b       	or	r19, r24
    1810:	32 b9       	out	0x02, r19	; 2
    1812:	31 b1       	in	r19, 0x01	; 1
    1814:	39 23       	and	r19, r25
    1816:	31 b9       	out	0x01, r19	; 1
    1818:	00 00       	nop
    181a:	14 9a       	sbi	0x02, 4	; 2
    181c:	0c 98       	cbi	0x01, 4	; 1
    181e:	04 9b       	sbis	0x00, 4	; 0
    1820:	fe cf       	rjmp	.-4      	; 0x181e <sw_TWI_read_single_register+0x232>
    1822:	00 00       	nop
    1824:	00 00       	nop
    1826:	0e c0       	rjmp	.+28     	; 0x1844 <sw_TWI_read_single_register+0x258>
    1828:	32 b1       	in	r19, 0x02	; 2
    182a:	39 23       	and	r19, r25
    182c:	32 b9       	out	0x02, r19	; 2
    182e:	31 b1       	in	r19, 0x01	; 1
    1830:	38 2b       	or	r19, r24
    1832:	31 b9       	out	0x01, r19	; 1
    1834:	14 9a       	sbi	0x02, 4	; 2
    1836:	0c 98       	cbi	0x01, 4	; 1
    1838:	04 9b       	sbis	0x00, 4	; 0
    183a:	fe cf       	rjmp	.-4      	; 0x1838 <sw_TWI_read_single_register+0x24c>
	...
    1844:	14 98       	cbi	0x02, 4	; 2
    1846:	0c 9a       	sbi	0x01, 4	; 1
    1848:	32 2f       	mov	r19, r18
    184a:	33 0f       	add	r19, r19
    184c:	26 ff       	sbrs	r18, 6
    184e:	0e c0       	rjmp	.+28     	; 0x186c <sw_TWI_read_single_register+0x280>
    1850:	22 b1       	in	r18, 0x02	; 2
    1852:	28 2b       	or	r18, r24
    1854:	22 b9       	out	0x02, r18	; 2
    1856:	21 b1       	in	r18, 0x01	; 1
    1858:	29 23       	and	r18, r25
    185a:	21 b9       	out	0x01, r18	; 1
    185c:	00 00       	nop
    185e:	14 9a       	sbi	0x02, 4	; 2
    1860:	0c 98       	cbi	0x01, 4	; 1
    1862:	04 9b       	sbis	0x00, 4	; 0
    1864:	fe cf       	rjmp	.-4      	; 0x1862 <sw_TWI_read_single_register+0x276>
    1866:	00 00       	nop
    1868:	00 00       	nop
    186a:	0e c0       	rjmp	.+28     	; 0x1888 <sw_TWI_read_single_register+0x29c>
    186c:	22 b1       	in	r18, 0x02	; 2
    186e:	29 23       	and	r18, r25
    1870:	22 b9       	out	0x02, r18	; 2
    1872:	21 b1       	in	r18, 0x01	; 1
    1874:	28 2b       	or	r18, r24
    1876:	21 b9       	out	0x01, r18	; 1
    1878:	14 9a       	sbi	0x02, 4	; 2
    187a:	0c 98       	cbi	0x01, 4	; 1
    187c:	04 9b       	sbis	0x00, 4	; 0
    187e:	fe cf       	rjmp	.-4      	; 0x187c <sw_TWI_read_single_register+0x290>
	...
    1888:	14 98       	cbi	0x02, 4	; 2
    188a:	0c 9a       	sbi	0x01, 4	; 1
    188c:	23 2f       	mov	r18, r19
    188e:	22 0f       	add	r18, r18
    1890:	36 ff       	sbrs	r19, 6
    1892:	0e c0       	rjmp	.+28     	; 0x18b0 <sw_TWI_read_single_register+0x2c4>
    1894:	32 b1       	in	r19, 0x02	; 2
    1896:	38 2b       	or	r19, r24
    1898:	32 b9       	out	0x02, r19	; 2
    189a:	31 b1       	in	r19, 0x01	; 1
    189c:	39 23       	and	r19, r25
    189e:	31 b9       	out	0x01, r19	; 1
    18a0:	00 00       	nop
    18a2:	14 9a       	sbi	0x02, 4	; 2
    18a4:	0c 98       	cbi	0x01, 4	; 1
    18a6:	04 9b       	sbis	0x00, 4	; 0
    18a8:	fe cf       	rjmp	.-4      	; 0x18a6 <sw_TWI_read_single_register+0x2ba>
    18aa:	00 00       	nop
    18ac:	00 00       	nop
    18ae:	0e c0       	rjmp	.+28     	; 0x18cc <sw_TWI_read_single_register+0x2e0>
    18b0:	32 b1       	in	r19, 0x02	; 2
    18b2:	39 23       	and	r19, r25
    18b4:	32 b9       	out	0x02, r19	; 2
    18b6:	31 b1       	in	r19, 0x01	; 1
    18b8:	38 2b       	or	r19, r24
    18ba:	31 b9       	out	0x01, r19	; 1
    18bc:	14 9a       	sbi	0x02, 4	; 2
    18be:	0c 98       	cbi	0x01, 4	; 1
    18c0:	04 9b       	sbis	0x00, 4	; 0
    18c2:	fe cf       	rjmp	.-4      	; 0x18c0 <sw_TWI_read_single_register+0x2d4>
	...
    18cc:	14 98       	cbi	0x02, 4	; 2
    18ce:	0c 9a       	sbi	0x01, 4	; 1
    18d0:	32 2f       	mov	r19, r18
    18d2:	33 0f       	add	r19, r19
    18d4:	26 ff       	sbrs	r18, 6
    18d6:	0e c0       	rjmp	.+28     	; 0x18f4 <sw_TWI_read_single_register+0x308>
    18d8:	22 b1       	in	r18, 0x02	; 2
    18da:	28 2b       	or	r18, r24
    18dc:	22 b9       	out	0x02, r18	; 2
    18de:	21 b1       	in	r18, 0x01	; 1
    18e0:	29 23       	and	r18, r25
    18e2:	21 b9       	out	0x01, r18	; 1
    18e4:	00 00       	nop
    18e6:	14 9a       	sbi	0x02, 4	; 2
    18e8:	0c 98       	cbi	0x01, 4	; 1
    18ea:	04 9b       	sbis	0x00, 4	; 0
    18ec:	fe cf       	rjmp	.-4      	; 0x18ea <sw_TWI_read_single_register+0x2fe>
    18ee:	00 00       	nop
    18f0:	00 00       	nop
    18f2:	0e c0       	rjmp	.+28     	; 0x1910 <sw_TWI_read_single_register+0x324>
    18f4:	22 b1       	in	r18, 0x02	; 2
    18f6:	29 23       	and	r18, r25
    18f8:	22 b9       	out	0x02, r18	; 2
    18fa:	21 b1       	in	r18, 0x01	; 1
    18fc:	28 2b       	or	r18, r24
    18fe:	21 b9       	out	0x01, r18	; 1
    1900:	14 9a       	sbi	0x02, 4	; 2
    1902:	0c 98       	cbi	0x01, 4	; 1
    1904:	04 9b       	sbis	0x00, 4	; 0
    1906:	fe cf       	rjmp	.-4      	; 0x1904 <sw_TWI_read_single_register+0x318>
	...
    1910:	14 98       	cbi	0x02, 4	; 2
    1912:	0c 9a       	sbi	0x01, 4	; 1
    1914:	23 2f       	mov	r18, r19
    1916:	22 0f       	add	r18, r18
    1918:	36 ff       	sbrs	r19, 6
    191a:	0e c0       	rjmp	.+28     	; 0x1938 <sw_TWI_read_single_register+0x34c>
    191c:	32 b1       	in	r19, 0x02	; 2
    191e:	38 2b       	or	r19, r24
    1920:	32 b9       	out	0x02, r19	; 2
    1922:	31 b1       	in	r19, 0x01	; 1
    1924:	39 23       	and	r19, r25
    1926:	31 b9       	out	0x01, r19	; 1
    1928:	00 00       	nop
    192a:	14 9a       	sbi	0x02, 4	; 2
    192c:	0c 98       	cbi	0x01, 4	; 1
    192e:	04 9b       	sbis	0x00, 4	; 0
    1930:	fe cf       	rjmp	.-4      	; 0x192e <sw_TWI_read_single_register+0x342>
    1932:	00 00       	nop
    1934:	00 00       	nop
    1936:	0e c0       	rjmp	.+28     	; 0x1954 <sw_TWI_read_single_register+0x368>
    1938:	32 b1       	in	r19, 0x02	; 2
    193a:	39 23       	and	r19, r25
    193c:	32 b9       	out	0x02, r19	; 2
    193e:	31 b1       	in	r19, 0x01	; 1
    1940:	38 2b       	or	r19, r24
    1942:	31 b9       	out	0x01, r19	; 1
    1944:	14 9a       	sbi	0x02, 4	; 2
    1946:	0c 98       	cbi	0x01, 4	; 1
    1948:	04 9b       	sbis	0x00, 4	; 0
    194a:	fe cf       	rjmp	.-4      	; 0x1948 <sw_TWI_read_single_register+0x35c>
	...
    1954:	14 98       	cbi	0x02, 4	; 2
    1956:	0c 9a       	sbi	0x01, 4	; 1
    1958:	32 2f       	mov	r19, r18
    195a:	33 0f       	add	r19, r19
    195c:	26 ff       	sbrs	r18, 6
    195e:	0e c0       	rjmp	.+28     	; 0x197c <sw_TWI_read_single_register+0x390>
    1960:	22 b1       	in	r18, 0x02	; 2
    1962:	28 2b       	or	r18, r24
    1964:	22 b9       	out	0x02, r18	; 2
    1966:	21 b1       	in	r18, 0x01	; 1
    1968:	29 23       	and	r18, r25
    196a:	21 b9       	out	0x01, r18	; 1
    196c:	00 00       	nop
    196e:	14 9a       	sbi	0x02, 4	; 2
    1970:	0c 98       	cbi	0x01, 4	; 1
    1972:	04 9b       	sbis	0x00, 4	; 0
    1974:	fe cf       	rjmp	.-4      	; 0x1972 <sw_TWI_read_single_register+0x386>
    1976:	00 00       	nop
    1978:	00 00       	nop
    197a:	0e c0       	rjmp	.+28     	; 0x1998 <sw_TWI_read_single_register+0x3ac>
    197c:	22 b1       	in	r18, 0x02	; 2
    197e:	29 23       	and	r18, r25
    1980:	22 b9       	out	0x02, r18	; 2
    1982:	21 b1       	in	r18, 0x01	; 1
    1984:	28 2b       	or	r18, r24
    1986:	21 b9       	out	0x01, r18	; 1
    1988:	14 9a       	sbi	0x02, 4	; 2
    198a:	0c 98       	cbi	0x01, 4	; 1
    198c:	04 9b       	sbis	0x00, 4	; 0
    198e:	fe cf       	rjmp	.-4      	; 0x198c <sw_TWI_read_single_register+0x3a0>
	...
    1998:	14 98       	cbi	0x02, 4	; 2
    199a:	0c 9a       	sbi	0x01, 4	; 1
    199c:	36 ff       	sbrs	r19, 6
    199e:	10 c0       	rjmp	.+32     	; 0x19c0 <sw_TWI_read_single_register+0x3d4>
    19a0:	22 b1       	in	r18, 0x02	; 2
    19a2:	28 2b       	or	r18, r24
    19a4:	22 b9       	out	0x02, r18	; 2
    19a6:	21 b1       	in	r18, 0x01	; 1
    19a8:	29 23       	and	r18, r25
    19aa:	21 b9       	out	0x01, r18	; 1
    19ac:	00 00       	nop
    19ae:	00 00       	nop
    19b0:	00 00       	nop
    19b2:	14 9a       	sbi	0x02, 4	; 2
    19b4:	0c 98       	cbi	0x01, 4	; 1
    19b6:	04 9b       	sbis	0x00, 4	; 0
    19b8:	fe cf       	rjmp	.-4      	; 0x19b6 <sw_TWI_read_single_register+0x3ca>
    19ba:	00 00       	nop
    19bc:	00 00       	nop
    19be:	10 c0       	rjmp	.+32     	; 0x19e0 <sw_TWI_read_single_register+0x3f4>
    19c0:	22 b1       	in	r18, 0x02	; 2
    19c2:	29 23       	and	r18, r25
    19c4:	22 b9       	out	0x02, r18	; 2
    19c6:	21 b1       	in	r18, 0x01	; 1
    19c8:	28 2b       	or	r18, r24
    19ca:	21 b9       	out	0x01, r18	; 1
    19cc:	00 00       	nop
    19ce:	00 00       	nop
    19d0:	14 9a       	sbi	0x02, 4	; 2
    19d2:	0c 98       	cbi	0x01, 4	; 1
    19d4:	04 9b       	sbis	0x00, 4	; 0
    19d6:	fe cf       	rjmp	.-4      	; 0x19d4 <sw_TWI_read_single_register+0x3e8>
	...
    19e0:	14 98       	cbi	0x02, 4	; 2
    19e2:	0c 9a       	sbi	0x01, 4	; 1
    19e4:	22 b1       	in	r18, 0x02	; 2
    19e6:	28 2b       	or	r18, r24
    19e8:	22 b9       	out	0x02, r18	; 2
    19ea:	21 b1       	in	r18, 0x01	; 1
    19ec:	29 23       	and	r18, r25
    19ee:	21 b9       	out	0x01, r18	; 1
	...
    19f8:	00 00       	nop
    19fa:	14 9a       	sbi	0x02, 4	; 2
    19fc:	0c 98       	cbi	0x01, 4	; 1
    19fe:	04 9b       	sbis	0x00, 4	; 0
    1a00:	fe cf       	rjmp	.-4      	; 0x19fe <sw_TWI_read_single_register+0x412>
	...
    1a0a:	14 98       	cbi	0x02, 4	; 2
    1a0c:	0c 9a       	sbi	0x01, 4	; 1
    1a0e:	00 00       	nop
    1a10:	00 00       	nop
    1a12:	00 00       	nop
    1a14:	22 b1       	in	r18, 0x02	; 2
    1a16:	28 2b       	or	r18, r24
    1a18:	22 b9       	out	0x02, r18	; 2
    1a1a:	21 b1       	in	r18, 0x01	; 1
    1a1c:	29 23       	and	r18, r25
    1a1e:	21 b9       	out	0x01, r18	; 1
    1a20:	00 00       	nop
    1a22:	00 00       	nop
    1a24:	14 9a       	sbi	0x02, 4	; 2
    1a26:	0c 98       	cbi	0x01, 4	; 1
    1a28:	04 9b       	sbis	0x00, 4	; 0
    1a2a:	fe cf       	rjmp	.-4      	; 0x1a28 <sw_TWI_read_single_register+0x43c>
    1a2c:	22 b1       	in	r18, 0x02	; 2
    1a2e:	29 23       	and	r18, r25
    1a30:	22 b9       	out	0x02, r18	; 2
    1a32:	21 b1       	in	r18, 0x01	; 1
    1a34:	28 2b       	or	r18, r24
    1a36:	21 b9       	out	0x01, r18	; 1
    1a38:	14 98       	cbi	0x02, 4	; 2
    1a3a:	0c 9a       	sbi	0x01, 4	; 1
    1a3c:	00 00       	nop
    1a3e:	00 00       	nop
    1a40:	00 00       	nop
    1a42:	22 b1       	in	r18, 0x02	; 2
    1a44:	28 2b       	or	r18, r24
    1a46:	22 b9       	out	0x02, r18	; 2
    1a48:	21 b1       	in	r18, 0x01	; 1
    1a4a:	29 23       	and	r18, r25
    1a4c:	21 b9       	out	0x01, r18	; 1
    1a4e:	00 00       	nop
    1a50:	00 00       	nop
    1a52:	14 9a       	sbi	0x02, 4	; 2
    1a54:	0c 98       	cbi	0x01, 4	; 1
    1a56:	04 9b       	sbis	0x00, 4	; 0
    1a58:	fe cf       	rjmp	.-4      	; 0x1a56 <sw_TWI_read_single_register+0x46a>
	...
    1a62:	14 98       	cbi	0x02, 4	; 2
    1a64:	0c 9a       	sbi	0x01, 4	; 1
    1a66:	00 00       	nop
    1a68:	00 00       	nop
    1a6a:	00 00       	nop
    1a6c:	22 b1       	in	r18, 0x02	; 2
    1a6e:	29 23       	and	r18, r25
    1a70:	22 b9       	out	0x02, r18	; 2
    1a72:	21 b1       	in	r18, 0x01	; 1
    1a74:	28 2b       	or	r18, r24
    1a76:	21 b9       	out	0x01, r18	; 1
    1a78:	00 00       	nop
    1a7a:	00 00       	nop
    1a7c:	14 9a       	sbi	0x02, 4	; 2
    1a7e:	0c 98       	cbi	0x01, 4	; 1
    1a80:	04 9b       	sbis	0x00, 4	; 0
    1a82:	fe cf       	rjmp	.-4      	; 0x1a80 <sw_TWI_read_single_register+0x494>
	...
    1a8c:	14 98       	cbi	0x02, 4	; 2
    1a8e:	0c 9a       	sbi	0x01, 4	; 1
    1a90:	00 00       	nop
    1a92:	00 00       	nop
    1a94:	00 00       	nop
    1a96:	22 b1       	in	r18, 0x02	; 2
    1a98:	29 23       	and	r18, r25
    1a9a:	22 b9       	out	0x02, r18	; 2
    1a9c:	21 b1       	in	r18, 0x01	; 1
    1a9e:	28 2b       	or	r18, r24
    1aa0:	21 b9       	out	0x01, r18	; 1
    1aa2:	00 00       	nop
    1aa4:	00 00       	nop
    1aa6:	14 9a       	sbi	0x02, 4	; 2
    1aa8:	0c 98       	cbi	0x01, 4	; 1
    1aaa:	04 9b       	sbis	0x00, 4	; 0
    1aac:	fe cf       	rjmp	.-4      	; 0x1aaa <sw_TWI_read_single_register+0x4be>
	...
    1ab6:	14 98       	cbi	0x02, 4	; 2
    1ab8:	0c 9a       	sbi	0x01, 4	; 1
    1aba:	00 00       	nop
    1abc:	00 00       	nop
    1abe:	00 00       	nop
    1ac0:	22 b1       	in	r18, 0x02	; 2
    1ac2:	28 2b       	or	r18, r24
    1ac4:	22 b9       	out	0x02, r18	; 2
    1ac6:	21 b1       	in	r18, 0x01	; 1
    1ac8:	29 23       	and	r18, r25
    1aca:	21 b9       	out	0x01, r18	; 1
    1acc:	00 00       	nop
    1ace:	00 00       	nop
    1ad0:	14 9a       	sbi	0x02, 4	; 2
    1ad2:	0c 98       	cbi	0x01, 4	; 1
    1ad4:	04 9b       	sbis	0x00, 4	; 0
    1ad6:	fe cf       	rjmp	.-4      	; 0x1ad4 <sw_TWI_read_single_register+0x4e8>
	...
    1ae0:	14 98       	cbi	0x02, 4	; 2
    1ae2:	0c 9a       	sbi	0x01, 4	; 1
    1ae4:	00 00       	nop
    1ae6:	00 00       	nop
    1ae8:	00 00       	nop
    1aea:	22 b1       	in	r18, 0x02	; 2
    1aec:	29 23       	and	r18, r25
    1aee:	22 b9       	out	0x02, r18	; 2
    1af0:	21 b1       	in	r18, 0x01	; 1
    1af2:	28 2b       	or	r18, r24
    1af4:	21 b9       	out	0x01, r18	; 1
    1af6:	00 00       	nop
    1af8:	00 00       	nop
    1afa:	14 9a       	sbi	0x02, 4	; 2
    1afc:	0c 98       	cbi	0x01, 4	; 1
    1afe:	04 9b       	sbis	0x00, 4	; 0
    1b00:	fe cf       	rjmp	.-4      	; 0x1afe <sw_TWI_read_single_register+0x512>
	...
    1b0a:	14 98       	cbi	0x02, 4	; 2
    1b0c:	0c 9a       	sbi	0x01, 4	; 1
    1b0e:	00 00       	nop
    1b10:	00 00       	nop
    1b12:	00 00       	nop
    1b14:	22 b1       	in	r18, 0x02	; 2
    1b16:	29 23       	and	r18, r25
    1b18:	22 b9       	out	0x02, r18	; 2
    1b1a:	21 b1       	in	r18, 0x01	; 1
    1b1c:	28 2b       	or	r18, r24
    1b1e:	21 b9       	out	0x01, r18	; 1
    1b20:	00 00       	nop
    1b22:	00 00       	nop
    1b24:	14 9a       	sbi	0x02, 4	; 2
    1b26:	0c 98       	cbi	0x01, 4	; 1
    1b28:	04 9b       	sbis	0x00, 4	; 0
    1b2a:	fe cf       	rjmp	.-4      	; 0x1b28 <sw_TWI_read_single_register+0x53c>
	...
    1b34:	14 98       	cbi	0x02, 4	; 2
    1b36:	0c 9a       	sbi	0x01, 4	; 1
    1b38:	00 00       	nop
    1b3a:	00 00       	nop
    1b3c:	00 00       	nop
    1b3e:	22 b1       	in	r18, 0x02	; 2
    1b40:	29 23       	and	r18, r25
    1b42:	22 b9       	out	0x02, r18	; 2
    1b44:	21 b1       	in	r18, 0x01	; 1
    1b46:	28 2b       	or	r18, r24
    1b48:	21 b9       	out	0x01, r18	; 1
    1b4a:	00 00       	nop
    1b4c:	00 00       	nop
    1b4e:	14 9a       	sbi	0x02, 4	; 2
    1b50:	0c 98       	cbi	0x01, 4	; 1
    1b52:	04 9b       	sbis	0x00, 4	; 0
    1b54:	fe cf       	rjmp	.-4      	; 0x1b52 <sw_TWI_read_single_register+0x566>
	...
    1b5e:	14 98       	cbi	0x02, 4	; 2
    1b60:	0c 9a       	sbi	0x01, 4	; 1
    1b62:	00 00       	nop
    1b64:	00 00       	nop
    1b66:	00 00       	nop
    1b68:	22 b1       	in	r18, 0x02	; 2
    1b6a:	28 2b       	or	r18, r24
    1b6c:	22 b9       	out	0x02, r18	; 2
    1b6e:	21 b1       	in	r18, 0x01	; 1
    1b70:	29 23       	and	r18, r25
    1b72:	21 b9       	out	0x01, r18	; 1
    1b74:	00 00       	nop
    1b76:	00 00       	nop
    1b78:	14 9a       	sbi	0x02, 4	; 2
    1b7a:	0c 98       	cbi	0x01, 4	; 1
    1b7c:	04 9b       	sbis	0x00, 4	; 0
    1b7e:	fe cf       	rjmp	.-4      	; 0x1b7c <sw_TWI_read_single_register+0x590>
	...
    1b88:	14 98       	cbi	0x02, 4	; 2
    1b8a:	0c 9a       	sbi	0x01, 4	; 1
    1b8c:	00 00       	nop
    1b8e:	00 00       	nop
    1b90:	00 00       	nop
    1b92:	22 b1       	in	r18, 0x02	; 2
    1b94:	28 2b       	or	r18, r24
    1b96:	22 b9       	out	0x02, r18	; 2
    1b98:	21 b1       	in	r18, 0x01	; 1
    1b9a:	29 23       	and	r18, r25
    1b9c:	21 b9       	out	0x01, r18	; 1
    1b9e:	00 00       	nop
    1ba0:	00 00       	nop
    1ba2:	14 9a       	sbi	0x02, 4	; 2
    1ba4:	0c 98       	cbi	0x01, 4	; 1
    1ba6:	04 9b       	sbis	0x00, 4	; 0
    1ba8:	fe cf       	rjmp	.-4      	; 0x1ba6 <sw_TWI_read_single_register+0x5ba>
	...
    1bb2:	14 98       	cbi	0x02, 4	; 2
    1bb4:	0c 9a       	sbi	0x01, 4	; 1
	...
    1bca:	00 00       	nop
    1bcc:	14 9a       	sbi	0x02, 4	; 2
    1bce:	0c 98       	cbi	0x01, 4	; 1
    1bd0:	04 9b       	sbis	0x00, 4	; 0
    1bd2:	fe cf       	rjmp	.-4      	; 0x1bd0 <sw_TWI_read_single_register+0x5e4>
    1bd4:	20 b1       	in	r18, 0x00	; 0
    1bd6:	28 23       	and	r18, r24
    1bd8:	28 87       	std	Y+8, r18	; 0x08
    1bda:	14 98       	cbi	0x02, 4	; 2
    1bdc:	0c 9a       	sbi	0x01, 4	; 1
	...
    1bf2:	00 00       	nop
    1bf4:	14 9a       	sbi	0x02, 4	; 2
    1bf6:	0c 98       	cbi	0x01, 4	; 1
    1bf8:	04 9b       	sbis	0x00, 4	; 0
    1bfa:	fe cf       	rjmp	.-4      	; 0x1bf8 <sw_TWI_read_single_register+0x60c>
    1bfc:	20 b1       	in	r18, 0x00	; 0
    1bfe:	28 23       	and	r18, r24
    1c00:	2f 83       	std	Y+7, r18	; 0x07
    1c02:	14 98       	cbi	0x02, 4	; 2
    1c04:	0c 9a       	sbi	0x01, 4	; 1
	...
    1c1a:	00 00       	nop
    1c1c:	14 9a       	sbi	0x02, 4	; 2
    1c1e:	0c 98       	cbi	0x01, 4	; 1
    1c20:	04 9b       	sbis	0x00, 4	; 0
    1c22:	fe cf       	rjmp	.-4      	; 0x1c20 <sw_TWI_read_single_register+0x634>
    1c24:	20 b1       	in	r18, 0x00	; 0
    1c26:	28 23       	and	r18, r24
    1c28:	2e 83       	std	Y+6, r18	; 0x06
    1c2a:	14 98       	cbi	0x02, 4	; 2
    1c2c:	0c 9a       	sbi	0x01, 4	; 1
	...
    1c42:	00 00       	nop
    1c44:	14 9a       	sbi	0x02, 4	; 2
    1c46:	0c 98       	cbi	0x01, 4	; 1
    1c48:	04 9b       	sbis	0x00, 4	; 0
    1c4a:	fe cf       	rjmp	.-4      	; 0x1c48 <sw_TWI_read_single_register+0x65c>
    1c4c:	20 b1       	in	r18, 0x00	; 0
    1c4e:	28 23       	and	r18, r24
    1c50:	2d 83       	std	Y+5, r18	; 0x05
    1c52:	14 98       	cbi	0x02, 4	; 2
    1c54:	0c 9a       	sbi	0x01, 4	; 1
	...
    1c6a:	00 00       	nop
    1c6c:	14 9a       	sbi	0x02, 4	; 2
    1c6e:	0c 98       	cbi	0x01, 4	; 1
    1c70:	04 9b       	sbis	0x00, 4	; 0
    1c72:	fe cf       	rjmp	.-4      	; 0x1c70 <sw_TWI_read_single_register+0x684>
    1c74:	20 b1       	in	r18, 0x00	; 0
    1c76:	28 23       	and	r18, r24
    1c78:	2c 83       	std	Y+4, r18	; 0x04
    1c7a:	14 98       	cbi	0x02, 4	; 2
    1c7c:	0c 9a       	sbi	0x01, 4	; 1
	...
    1c92:	00 00       	nop
    1c94:	14 9a       	sbi	0x02, 4	; 2
    1c96:	0c 98       	cbi	0x01, 4	; 1
    1c98:	04 9b       	sbis	0x00, 4	; 0
    1c9a:	fe cf       	rjmp	.-4      	; 0x1c98 <sw_TWI_read_single_register+0x6ac>
    1c9c:	20 b1       	in	r18, 0x00	; 0
    1c9e:	28 23       	and	r18, r24
    1ca0:	2b 83       	std	Y+3, r18	; 0x03
    1ca2:	14 98       	cbi	0x02, 4	; 2
    1ca4:	0c 9a       	sbi	0x01, 4	; 1
	...
    1cba:	00 00       	nop
    1cbc:	14 9a       	sbi	0x02, 4	; 2
    1cbe:	0c 98       	cbi	0x01, 4	; 1
    1cc0:	04 9b       	sbis	0x00, 4	; 0
    1cc2:	fe cf       	rjmp	.-4      	; 0x1cc0 <sw_TWI_read_single_register+0x6d4>
    1cc4:	20 b1       	in	r18, 0x00	; 0
    1cc6:	28 23       	and	r18, r24
    1cc8:	2a 83       	std	Y+2, r18	; 0x02
    1cca:	14 98       	cbi	0x02, 4	; 2
    1ccc:	0c 9a       	sbi	0x01, 4	; 1
	...
    1ce2:	00 00       	nop
    1ce4:	14 9a       	sbi	0x02, 4	; 2
    1ce6:	0c 98       	cbi	0x01, 4	; 1
    1ce8:	04 9b       	sbis	0x00, 4	; 0
    1cea:	fe cf       	rjmp	.-4      	; 0x1ce8 <sw_TWI_read_single_register+0x6fc>
    1cec:	20 b1       	in	r18, 0x00	; 0
    1cee:	28 23       	and	r18, r24
    1cf0:	29 83       	std	Y+1, r18	; 0x01
    1cf2:	14 98       	cbi	0x02, 4	; 2
    1cf4:	0c 9a       	sbi	0x01, 4	; 1
    1cf6:	22 b1       	in	r18, 0x02	; 2
    1cf8:	28 2b       	or	r18, r24
    1cfa:	22 b9       	out	0x02, r18	; 2
    1cfc:	21 b1       	in	r18, 0x01	; 1
    1cfe:	29 23       	and	r18, r25
    1d00:	21 b9       	out	0x01, r18	; 1
	...
    1d0a:	00 00       	nop
    1d0c:	14 9a       	sbi	0x02, 4	; 2
    1d0e:	0c 98       	cbi	0x01, 4	; 1
    1d10:	04 9b       	sbis	0x00, 4	; 0
    1d12:	fe cf       	rjmp	.-4      	; 0x1d10 <sw_TWI_read_single_register+0x724>
	...
    1d1c:	14 98       	cbi	0x02, 4	; 2
    1d1e:	0c 9a       	sbi	0x01, 4	; 1
    1d20:	00 00       	nop
    1d22:	00 00       	nop
    1d24:	00 00       	nop
    1d26:	22 b1       	in	r18, 0x02	; 2
    1d28:	29 23       	and	r18, r25
    1d2a:	22 b9       	out	0x02, r18	; 2
    1d2c:	21 b1       	in	r18, 0x01	; 1
    1d2e:	28 2b       	or	r18, r24
    1d30:	21 b9       	out	0x01, r18	; 1
    1d32:	00 00       	nop
    1d34:	00 00       	nop
    1d36:	14 9a       	sbi	0x02, 4	; 2
    1d38:	0c 98       	cbi	0x01, 4	; 1
    1d3a:	04 9b       	sbis	0x00, 4	; 0
    1d3c:	fe cf       	rjmp	.-4      	; 0x1d3a <sw_TWI_read_single_register+0x74e>
	...
    1d46:	22 b1       	in	r18, 0x02	; 2
    1d48:	82 2b       	or	r24, r18
    1d4a:	82 b9       	out	0x02, r24	; 2
    1d4c:	81 b1       	in	r24, 0x01	; 1
    1d4e:	98 23       	and	r25, r24
    1d50:	91 b9       	out	0x01, r25	; 1
    1d52:	00 00       	nop
    1d54:	00 00       	nop
    1d56:	df 01       	movw	r26, r30
    1d58:	1d 92       	st	X+, r1
    1d5a:	6d 01       	movw	r12, r26
    1d5c:	11 82       	std	Z+1, r1	; 0x01
    1d5e:	cf 01       	movw	r24, r30
    1d60:	02 96       	adiw	r24, 0x02	; 2
    1d62:	12 82       	std	Z+2, r1	; 0x02
    1d64:	af 01       	movw	r20, r30
    1d66:	4d 5f       	subi	r20, 0xFD	; 253
    1d68:	5f 4f       	sbci	r21, 0xFF	; 255
    1d6a:	13 82       	std	Z+3, r1	; 0x03
    1d6c:	9e 01       	movw	r18, r28
    1d6e:	27 5f       	subi	r18, 0xF7	; 247
    1d70:	3f 4f       	sbci	r19, 0xFF	; 255
    1d72:	be 01       	movw	r22, r28
    1d74:	6f 5f       	subi	r22, 0xFF	; 255
    1d76:	7f 4f       	sbci	r23, 0xFF	; 255
    1d78:	10 81       	ld	r17, Z
    1d7a:	11 0f       	add	r17, r17
    1d7c:	10 83       	st	Z, r17
    1d7e:	d6 01       	movw	r26, r12
    1d80:	1c 91       	ld	r17, X
    1d82:	11 0f       	add	r17, r17
    1d84:	1c 93       	st	X, r17
    1d86:	dc 01       	movw	r26, r24
    1d88:	1c 91       	ld	r17, X
    1d8a:	11 0f       	add	r17, r17
    1d8c:	1c 93       	st	X, r17
    1d8e:	d9 01       	movw	r26, r18
    1d90:	1e 91       	ld	r17, -X
    1d92:	9d 01       	movw	r18, r26
    1d94:	da 01       	movw	r26, r20
    1d96:	fc 90       	ld	r15, X
    1d98:	ff 0c       	add	r15, r15
    1d9a:	01 2f       	mov	r16, r17
    1d9c:	01 70       	andi	r16, 0x01	; 1
    1d9e:	0f 29       	or	r16, r15
    1da0:	0c 93       	st	X, r16
    1da2:	01 2f       	mov	r16, r17
    1da4:	02 70       	andi	r16, 0x02	; 2
    1da6:	06 95       	lsr	r16
    1da8:	dc 01       	movw	r26, r24
    1daa:	fc 90       	ld	r15, X
    1dac:	0f 29       	or	r16, r15
    1dae:	0c 93       	st	X, r16
    1db0:	01 2f       	mov	r16, r17
    1db2:	04 70       	andi	r16, 0x04	; 4
    1db4:	06 95       	lsr	r16
    1db6:	06 95       	lsr	r16
    1db8:	d6 01       	movw	r26, r12
    1dba:	fc 90       	ld	r15, X
    1dbc:	0f 29       	or	r16, r15
    1dbe:	0c 93       	st	X, r16
    1dc0:	18 70       	andi	r17, 0x08	; 8
    1dc2:	16 95       	lsr	r17
    1dc4:	16 95       	lsr	r17
    1dc6:	16 95       	lsr	r17
    1dc8:	00 81       	ld	r16, Z
    1dca:	10 2b       	or	r17, r16
    1dcc:	10 83       	st	Z, r17
    1dce:	26 17       	cp	r18, r22
    1dd0:	37 07       	cpc	r19, r23
    1dd2:	91 f6       	brne	.-92     	; 0x1d78 <sw_TWI_read_single_register+0x78c>
    1dd4:	78 94       	sei
    1dd6:	28 96       	adiw	r28, 0x08	; 8
    1dd8:	0f b6       	in	r0, 0x3f	; 63
    1dda:	f8 94       	cli
    1ddc:	de bf       	out	0x3e, r29	; 62
    1dde:	0f be       	out	0x3f, r0	; 63
    1de0:	cd bf       	out	0x3d, r28	; 61
    1de2:	cf 91       	pop	r28
    1de4:	df 91       	pop	r29
    1de6:	1f 91       	pop	r17
    1de8:	0f 91       	pop	r16
    1dea:	ff 90       	pop	r15
    1dec:	df 90       	pop	r13
    1dee:	cf 90       	pop	r12
    1df0:	08 95       	ret

00001df2 <sw_TWI_read_value_registers>:
    1df2:	af 92       	push	r10
    1df4:	bf 92       	push	r11
    1df6:	cf 92       	push	r12
    1df8:	df 92       	push	r13
    1dfa:	ef 92       	push	r14
    1dfc:	ff 92       	push	r15
    1dfe:	0f 93       	push	r16
    1e00:	1f 93       	push	r17
    1e02:	df 93       	push	r29
    1e04:	cf 93       	push	r28
    1e06:	cd b7       	in	r28, 0x3d	; 61
    1e08:	de b7       	in	r29, 0x3e	; 62
    1e0a:	60 97       	sbiw	r28, 0x10	; 16
    1e0c:	0f b6       	in	r0, 0x3f	; 63
    1e0e:	f8 94       	cli
    1e10:	de bf       	out	0x3e, r29	; 62
    1e12:	0f be       	out	0x3f, r0	; 63
    1e14:	cd bf       	out	0x3d, r28	; 61
    1e16:	fb 01       	movw	r30, r22
    1e18:	f8 94       	cli
    1e1a:	92 b1       	in	r25, 0x02	; 2
    1e1c:	98 2b       	or	r25, r24
    1e1e:	92 b9       	out	0x02, r25	; 2
    1e20:	21 b1       	in	r18, 0x01	; 1
    1e22:	98 2f       	mov	r25, r24
    1e24:	90 95       	com	r25
    1e26:	29 23       	and	r18, r25
    1e28:	21 b9       	out	0x01, r18	; 1
    1e2a:	00 00       	nop
    1e2c:	00 00       	nop
    1e2e:	14 9a       	sbi	0x02, 4	; 2
    1e30:	0c 98       	cbi	0x01, 4	; 1
    1e32:	04 9b       	sbis	0x00, 4	; 0
    1e34:	fe cf       	rjmp	.-4      	; 0x1e32 <sw_TWI_read_value_registers+0x40>
	...
    1e3e:	22 b1       	in	r18, 0x02	; 2
    1e40:	29 23       	and	r18, r25
    1e42:	22 b9       	out	0x02, r18	; 2
    1e44:	21 b1       	in	r18, 0x01	; 1
    1e46:	28 2b       	or	r18, r24
    1e48:	21 b9       	out	0x01, r18	; 1
    1e4a:	00 00       	nop
    1e4c:	00 00       	nop
    1e4e:	14 98       	cbi	0x02, 4	; 2
    1e50:	0c 9a       	sbi	0x01, 4	; 1
    1e52:	00 00       	nop
    1e54:	00 00       	nop
    1e56:	00 00       	nop
    1e58:	22 b1       	in	r18, 0x02	; 2
    1e5a:	28 2b       	or	r18, r24
    1e5c:	22 b9       	out	0x02, r18	; 2
    1e5e:	21 b1       	in	r18, 0x01	; 1
    1e60:	29 23       	and	r18, r25
    1e62:	21 b9       	out	0x01, r18	; 1
    1e64:	00 00       	nop
    1e66:	00 00       	nop
    1e68:	14 9a       	sbi	0x02, 4	; 2
    1e6a:	0c 98       	cbi	0x01, 4	; 1
    1e6c:	04 9b       	sbis	0x00, 4	; 0
    1e6e:	fe cf       	rjmp	.-4      	; 0x1e6c <sw_TWI_read_value_registers+0x7a>
	...
    1e78:	14 98       	cbi	0x02, 4	; 2
    1e7a:	0c 9a       	sbi	0x01, 4	; 1
    1e7c:	00 00       	nop
    1e7e:	00 00       	nop
    1e80:	00 00       	nop
    1e82:	22 b1       	in	r18, 0x02	; 2
    1e84:	29 23       	and	r18, r25
    1e86:	22 b9       	out	0x02, r18	; 2
    1e88:	21 b1       	in	r18, 0x01	; 1
    1e8a:	28 2b       	or	r18, r24
    1e8c:	21 b9       	out	0x01, r18	; 1
    1e8e:	00 00       	nop
    1e90:	00 00       	nop
    1e92:	14 9a       	sbi	0x02, 4	; 2
    1e94:	0c 98       	cbi	0x01, 4	; 1
    1e96:	04 9b       	sbis	0x00, 4	; 0
    1e98:	fe cf       	rjmp	.-4      	; 0x1e96 <sw_TWI_read_value_registers+0xa4>
	...
    1ea2:	14 98       	cbi	0x02, 4	; 2
    1ea4:	0c 9a       	sbi	0x01, 4	; 1
    1ea6:	00 00       	nop
    1ea8:	00 00       	nop
    1eaa:	00 00       	nop
    1eac:	22 b1       	in	r18, 0x02	; 2
    1eae:	29 23       	and	r18, r25
    1eb0:	22 b9       	out	0x02, r18	; 2
    1eb2:	21 b1       	in	r18, 0x01	; 1
    1eb4:	28 2b       	or	r18, r24
    1eb6:	21 b9       	out	0x01, r18	; 1
    1eb8:	00 00       	nop
    1eba:	00 00       	nop
    1ebc:	14 9a       	sbi	0x02, 4	; 2
    1ebe:	0c 98       	cbi	0x01, 4	; 1
    1ec0:	04 9b       	sbis	0x00, 4	; 0
    1ec2:	fe cf       	rjmp	.-4      	; 0x1ec0 <sw_TWI_read_value_registers+0xce>
	...
    1ecc:	14 98       	cbi	0x02, 4	; 2
    1ece:	0c 9a       	sbi	0x01, 4	; 1
    1ed0:	00 00       	nop
    1ed2:	00 00       	nop
    1ed4:	00 00       	nop
    1ed6:	22 b1       	in	r18, 0x02	; 2
    1ed8:	28 2b       	or	r18, r24
    1eda:	22 b9       	out	0x02, r18	; 2
    1edc:	21 b1       	in	r18, 0x01	; 1
    1ede:	29 23       	and	r18, r25
    1ee0:	21 b9       	out	0x01, r18	; 1
    1ee2:	00 00       	nop
    1ee4:	00 00       	nop
    1ee6:	14 9a       	sbi	0x02, 4	; 2
    1ee8:	0c 98       	cbi	0x01, 4	; 1
    1eea:	04 9b       	sbis	0x00, 4	; 0
    1eec:	fe cf       	rjmp	.-4      	; 0x1eea <sw_TWI_read_value_registers+0xf8>
	...
    1ef6:	14 98       	cbi	0x02, 4	; 2
    1ef8:	0c 9a       	sbi	0x01, 4	; 1
    1efa:	00 00       	nop
    1efc:	00 00       	nop
    1efe:	00 00       	nop
    1f00:	22 b1       	in	r18, 0x02	; 2
    1f02:	29 23       	and	r18, r25
    1f04:	22 b9       	out	0x02, r18	; 2
    1f06:	21 b1       	in	r18, 0x01	; 1
    1f08:	28 2b       	or	r18, r24
    1f0a:	21 b9       	out	0x01, r18	; 1
    1f0c:	00 00       	nop
    1f0e:	00 00       	nop
    1f10:	14 9a       	sbi	0x02, 4	; 2
    1f12:	0c 98       	cbi	0x01, 4	; 1
    1f14:	04 9b       	sbis	0x00, 4	; 0
    1f16:	fe cf       	rjmp	.-4      	; 0x1f14 <sw_TWI_read_value_registers+0x122>
	...
    1f20:	14 98       	cbi	0x02, 4	; 2
    1f22:	0c 9a       	sbi	0x01, 4	; 1
    1f24:	00 00       	nop
    1f26:	00 00       	nop
    1f28:	00 00       	nop
    1f2a:	22 b1       	in	r18, 0x02	; 2
    1f2c:	29 23       	and	r18, r25
    1f2e:	22 b9       	out	0x02, r18	; 2
    1f30:	21 b1       	in	r18, 0x01	; 1
    1f32:	28 2b       	or	r18, r24
    1f34:	21 b9       	out	0x01, r18	; 1
    1f36:	00 00       	nop
    1f38:	00 00       	nop
    1f3a:	14 9a       	sbi	0x02, 4	; 2
    1f3c:	0c 98       	cbi	0x01, 4	; 1
    1f3e:	04 9b       	sbis	0x00, 4	; 0
    1f40:	fe cf       	rjmp	.-4      	; 0x1f3e <sw_TWI_read_value_registers+0x14c>
	...
    1f4a:	14 98       	cbi	0x02, 4	; 2
    1f4c:	0c 9a       	sbi	0x01, 4	; 1
    1f4e:	00 00       	nop
    1f50:	00 00       	nop
    1f52:	00 00       	nop
    1f54:	22 b1       	in	r18, 0x02	; 2
    1f56:	29 23       	and	r18, r25
    1f58:	22 b9       	out	0x02, r18	; 2
    1f5a:	21 b1       	in	r18, 0x01	; 1
    1f5c:	28 2b       	or	r18, r24
    1f5e:	21 b9       	out	0x01, r18	; 1
    1f60:	00 00       	nop
    1f62:	00 00       	nop
    1f64:	14 9a       	sbi	0x02, 4	; 2
    1f66:	0c 98       	cbi	0x01, 4	; 1
    1f68:	04 9b       	sbis	0x00, 4	; 0
    1f6a:	fe cf       	rjmp	.-4      	; 0x1f68 <sw_TWI_read_value_registers+0x176>
	...
    1f74:	14 98       	cbi	0x02, 4	; 2
    1f76:	0c 9a       	sbi	0x01, 4	; 1
    1f78:	00 00       	nop
    1f7a:	00 00       	nop
    1f7c:	00 00       	nop
    1f7e:	22 b1       	in	r18, 0x02	; 2
    1f80:	29 23       	and	r18, r25
    1f82:	22 b9       	out	0x02, r18	; 2
    1f84:	21 b1       	in	r18, 0x01	; 1
    1f86:	28 2b       	or	r18, r24
    1f88:	21 b9       	out	0x01, r18	; 1
    1f8a:	00 00       	nop
    1f8c:	00 00       	nop
    1f8e:	14 9a       	sbi	0x02, 4	; 2
    1f90:	0c 98       	cbi	0x01, 4	; 1
    1f92:	04 9b       	sbis	0x00, 4	; 0
    1f94:	fe cf       	rjmp	.-4      	; 0x1f92 <sw_TWI_read_value_registers+0x1a0>
	...
    1f9e:	14 98       	cbi	0x02, 4	; 2
    1fa0:	0c 9a       	sbi	0x01, 4	; 1
    1fa2:	00 00       	nop
    1fa4:	00 00       	nop
    1fa6:	00 00       	nop
    1fa8:	22 b1       	in	r18, 0x02	; 2
    1faa:	28 2b       	or	r18, r24
    1fac:	22 b9       	out	0x02, r18	; 2
    1fae:	21 b1       	in	r18, 0x01	; 1
    1fb0:	29 23       	and	r18, r25
    1fb2:	21 b9       	out	0x01, r18	; 1
    1fb4:	00 00       	nop
    1fb6:	00 00       	nop
    1fb8:	14 9a       	sbi	0x02, 4	; 2
    1fba:	0c 98       	cbi	0x01, 4	; 1
    1fbc:	04 9b       	sbis	0x00, 4	; 0
    1fbe:	fe cf       	rjmp	.-4      	; 0x1fbc <sw_TWI_read_value_registers+0x1ca>
	...
    1fc8:	14 98       	cbi	0x02, 4	; 2
    1fca:	0c 9a       	sbi	0x01, 4	; 1
    1fcc:	00 00       	nop
    1fce:	00 00       	nop
    1fd0:	00 00       	nop
    1fd2:	22 b1       	in	r18, 0x02	; 2
    1fd4:	29 23       	and	r18, r25
    1fd6:	22 b9       	out	0x02, r18	; 2
    1fd8:	21 b1       	in	r18, 0x01	; 1
    1fda:	28 2b       	or	r18, r24
    1fdc:	21 b9       	out	0x01, r18	; 1
    1fde:	00 00       	nop
    1fe0:	00 00       	nop
    1fe2:	14 9a       	sbi	0x02, 4	; 2
    1fe4:	0c 98       	cbi	0x01, 4	; 1
    1fe6:	04 9b       	sbis	0x00, 4	; 0
    1fe8:	fe cf       	rjmp	.-4      	; 0x1fe6 <sw_TWI_read_value_registers+0x1f4>
	...
    1ff2:	14 98       	cbi	0x02, 4	; 2
    1ff4:	0c 9a       	sbi	0x01, 4	; 1
    1ff6:	00 00       	nop
    1ff8:	00 00       	nop
    1ffa:	00 00       	nop
    1ffc:	22 b1       	in	r18, 0x02	; 2
    1ffe:	28 2b       	or	r18, r24
    2000:	22 b9       	out	0x02, r18	; 2
    2002:	21 b1       	in	r18, 0x01	; 1
    2004:	29 23       	and	r18, r25
    2006:	21 b9       	out	0x01, r18	; 1
    2008:	00 00       	nop
    200a:	00 00       	nop
    200c:	14 9a       	sbi	0x02, 4	; 2
    200e:	0c 98       	cbi	0x01, 4	; 1
    2010:	04 9b       	sbis	0x00, 4	; 0
    2012:	fe cf       	rjmp	.-4      	; 0x2010 <sw_TWI_read_value_registers+0x21e>
	...
    201c:	14 98       	cbi	0x02, 4	; 2
    201e:	0c 9a       	sbi	0x01, 4	; 1
    2020:	00 00       	nop
    2022:	00 00       	nop
    2024:	00 00       	nop
    2026:	22 b1       	in	r18, 0x02	; 2
    2028:	29 23       	and	r18, r25
    202a:	22 b9       	out	0x02, r18	; 2
    202c:	21 b1       	in	r18, 0x01	; 1
    202e:	28 2b       	or	r18, r24
    2030:	21 b9       	out	0x01, r18	; 1
    2032:	00 00       	nop
    2034:	00 00       	nop
    2036:	14 9a       	sbi	0x02, 4	; 2
    2038:	0c 98       	cbi	0x01, 4	; 1
    203a:	04 9b       	sbis	0x00, 4	; 0
    203c:	fe cf       	rjmp	.-4      	; 0x203a <sw_TWI_read_value_registers+0x248>
	...
    2046:	14 98       	cbi	0x02, 4	; 2
    2048:	0c 9a       	sbi	0x01, 4	; 1
    204a:	00 00       	nop
    204c:	00 00       	nop
    204e:	00 00       	nop
    2050:	22 b1       	in	r18, 0x02	; 2
    2052:	28 2b       	or	r18, r24
    2054:	22 b9       	out	0x02, r18	; 2
    2056:	21 b1       	in	r18, 0x01	; 1
    2058:	29 23       	and	r18, r25
    205a:	21 b9       	out	0x01, r18	; 1
    205c:	00 00       	nop
    205e:	00 00       	nop
    2060:	14 9a       	sbi	0x02, 4	; 2
    2062:	0c 98       	cbi	0x01, 4	; 1
    2064:	04 9b       	sbis	0x00, 4	; 0
    2066:	fe cf       	rjmp	.-4      	; 0x2064 <sw_TWI_read_value_registers+0x272>
	...
    2070:	14 98       	cbi	0x02, 4	; 2
    2072:	0c 9a       	sbi	0x01, 4	; 1
    2074:	00 00       	nop
    2076:	00 00       	nop
    2078:	00 00       	nop
    207a:	22 b1       	in	r18, 0x02	; 2
    207c:	29 23       	and	r18, r25
    207e:	22 b9       	out	0x02, r18	; 2
    2080:	21 b1       	in	r18, 0x01	; 1
    2082:	28 2b       	or	r18, r24
    2084:	21 b9       	out	0x01, r18	; 1
    2086:	00 00       	nop
    2088:	00 00       	nop
    208a:	14 9a       	sbi	0x02, 4	; 2
    208c:	0c 98       	cbi	0x01, 4	; 1
    208e:	04 9b       	sbis	0x00, 4	; 0
    2090:	fe cf       	rjmp	.-4      	; 0x208e <sw_TWI_read_value_registers+0x29c>
	...
    209a:	14 98       	cbi	0x02, 4	; 2
    209c:	0c 9a       	sbi	0x01, 4	; 1
    209e:	00 00       	nop
    20a0:	00 00       	nop
    20a2:	00 00       	nop
    20a4:	22 b1       	in	r18, 0x02	; 2
    20a6:	29 23       	and	r18, r25
    20a8:	22 b9       	out	0x02, r18	; 2
    20aa:	21 b1       	in	r18, 0x01	; 1
    20ac:	28 2b       	or	r18, r24
    20ae:	21 b9       	out	0x01, r18	; 1
    20b0:	00 00       	nop
    20b2:	00 00       	nop
    20b4:	14 9a       	sbi	0x02, 4	; 2
    20b6:	0c 98       	cbi	0x01, 4	; 1
    20b8:	04 9b       	sbis	0x00, 4	; 0
    20ba:	fe cf       	rjmp	.-4      	; 0x20b8 <sw_TWI_read_value_registers+0x2c6>
	...
    20c4:	14 98       	cbi	0x02, 4	; 2
    20c6:	0c 9a       	sbi	0x01, 4	; 1
    20c8:	00 00       	nop
    20ca:	00 00       	nop
    20cc:	00 00       	nop
    20ce:	22 b1       	in	r18, 0x02	; 2
    20d0:	29 23       	and	r18, r25
    20d2:	22 b9       	out	0x02, r18	; 2
    20d4:	21 b1       	in	r18, 0x01	; 1
    20d6:	28 2b       	or	r18, r24
    20d8:	21 b9       	out	0x01, r18	; 1
    20da:	00 00       	nop
    20dc:	00 00       	nop
    20de:	14 9a       	sbi	0x02, 4	; 2
    20e0:	0c 98       	cbi	0x01, 4	; 1
    20e2:	04 9b       	sbis	0x00, 4	; 0
    20e4:	fe cf       	rjmp	.-4      	; 0x20e2 <sw_TWI_read_value_registers+0x2f0>
	...
    20ee:	14 98       	cbi	0x02, 4	; 2
    20f0:	0c 9a       	sbi	0x01, 4	; 1
    20f2:	00 00       	nop
    20f4:	00 00       	nop
    20f6:	00 00       	nop
    20f8:	22 b1       	in	r18, 0x02	; 2
    20fa:	29 23       	and	r18, r25
    20fc:	22 b9       	out	0x02, r18	; 2
    20fe:	21 b1       	in	r18, 0x01	; 1
    2100:	28 2b       	or	r18, r24
    2102:	21 b9       	out	0x01, r18	; 1
    2104:	00 00       	nop
    2106:	00 00       	nop
    2108:	14 9a       	sbi	0x02, 4	; 2
    210a:	0c 98       	cbi	0x01, 4	; 1
    210c:	04 9b       	sbis	0x00, 4	; 0
    210e:	fe cf       	rjmp	.-4      	; 0x210c <sw_TWI_read_value_registers+0x31a>
	...
    2118:	14 98       	cbi	0x02, 4	; 2
    211a:	0c 9a       	sbi	0x01, 4	; 1
    211c:	00 00       	nop
    211e:	00 00       	nop
    2120:	00 00       	nop
    2122:	22 b1       	in	r18, 0x02	; 2
    2124:	28 2b       	or	r18, r24
    2126:	22 b9       	out	0x02, r18	; 2
    2128:	21 b1       	in	r18, 0x01	; 1
    212a:	29 23       	and	r18, r25
    212c:	21 b9       	out	0x01, r18	; 1
    212e:	00 00       	nop
    2130:	00 00       	nop
    2132:	14 9a       	sbi	0x02, 4	; 2
    2134:	0c 98       	cbi	0x01, 4	; 1
    2136:	04 9b       	sbis	0x00, 4	; 0
    2138:	fe cf       	rjmp	.-4      	; 0x2136 <sw_TWI_read_value_registers+0x344>
	...
    2142:	14 98       	cbi	0x02, 4	; 2
    2144:	0c 9a       	sbi	0x01, 4	; 1
    2146:	00 00       	nop
    2148:	00 00       	nop
    214a:	00 00       	nop
    214c:	22 b1       	in	r18, 0x02	; 2
    214e:	28 2b       	or	r18, r24
    2150:	22 b9       	out	0x02, r18	; 2
    2152:	21 b1       	in	r18, 0x01	; 1
    2154:	29 23       	and	r18, r25
    2156:	21 b9       	out	0x01, r18	; 1
    2158:	00 00       	nop
    215a:	00 00       	nop
    215c:	14 9a       	sbi	0x02, 4	; 2
    215e:	0c 98       	cbi	0x01, 4	; 1
    2160:	04 9b       	sbis	0x00, 4	; 0
    2162:	fe cf       	rjmp	.-4      	; 0x2160 <sw_TWI_read_value_registers+0x36e>
    2164:	22 b1       	in	r18, 0x02	; 2
    2166:	29 23       	and	r18, r25
    2168:	22 b9       	out	0x02, r18	; 2
    216a:	21 b1       	in	r18, 0x01	; 1
    216c:	28 2b       	or	r18, r24
    216e:	21 b9       	out	0x01, r18	; 1
    2170:	14 98       	cbi	0x02, 4	; 2
    2172:	0c 9a       	sbi	0x01, 4	; 1
    2174:	00 00       	nop
    2176:	00 00       	nop
    2178:	00 00       	nop
    217a:	22 b1       	in	r18, 0x02	; 2
    217c:	28 2b       	or	r18, r24
    217e:	22 b9       	out	0x02, r18	; 2
    2180:	21 b1       	in	r18, 0x01	; 1
    2182:	29 23       	and	r18, r25
    2184:	21 b9       	out	0x01, r18	; 1
    2186:	00 00       	nop
    2188:	00 00       	nop
    218a:	14 9a       	sbi	0x02, 4	; 2
    218c:	0c 98       	cbi	0x01, 4	; 1
    218e:	04 9b       	sbis	0x00, 4	; 0
    2190:	fe cf       	rjmp	.-4      	; 0x218e <sw_TWI_read_value_registers+0x39c>
	...
    219a:	14 98       	cbi	0x02, 4	; 2
    219c:	0c 9a       	sbi	0x01, 4	; 1
    219e:	00 00       	nop
    21a0:	00 00       	nop
    21a2:	00 00       	nop
    21a4:	22 b1       	in	r18, 0x02	; 2
    21a6:	29 23       	and	r18, r25
    21a8:	22 b9       	out	0x02, r18	; 2
    21aa:	21 b1       	in	r18, 0x01	; 1
    21ac:	28 2b       	or	r18, r24
    21ae:	21 b9       	out	0x01, r18	; 1
    21b0:	00 00       	nop
    21b2:	00 00       	nop
    21b4:	14 9a       	sbi	0x02, 4	; 2
    21b6:	0c 98       	cbi	0x01, 4	; 1
    21b8:	04 9b       	sbis	0x00, 4	; 0
    21ba:	fe cf       	rjmp	.-4      	; 0x21b8 <sw_TWI_read_value_registers+0x3c6>
	...
    21c4:	14 98       	cbi	0x02, 4	; 2
    21c6:	0c 9a       	sbi	0x01, 4	; 1
    21c8:	00 00       	nop
    21ca:	00 00       	nop
    21cc:	00 00       	nop
    21ce:	22 b1       	in	r18, 0x02	; 2
    21d0:	29 23       	and	r18, r25
    21d2:	22 b9       	out	0x02, r18	; 2
    21d4:	21 b1       	in	r18, 0x01	; 1
    21d6:	28 2b       	or	r18, r24
    21d8:	21 b9       	out	0x01, r18	; 1
    21da:	00 00       	nop
    21dc:	00 00       	nop
    21de:	14 9a       	sbi	0x02, 4	; 2
    21e0:	0c 98       	cbi	0x01, 4	; 1
    21e2:	04 9b       	sbis	0x00, 4	; 0
    21e4:	fe cf       	rjmp	.-4      	; 0x21e2 <sw_TWI_read_value_registers+0x3f0>
	...
    21ee:	14 98       	cbi	0x02, 4	; 2
    21f0:	0c 9a       	sbi	0x01, 4	; 1
    21f2:	00 00       	nop
    21f4:	00 00       	nop
    21f6:	00 00       	nop
    21f8:	22 b1       	in	r18, 0x02	; 2
    21fa:	28 2b       	or	r18, r24
    21fc:	22 b9       	out	0x02, r18	; 2
    21fe:	21 b1       	in	r18, 0x01	; 1
    2200:	29 23       	and	r18, r25
    2202:	21 b9       	out	0x01, r18	; 1
    2204:	00 00       	nop
    2206:	00 00       	nop
    2208:	14 9a       	sbi	0x02, 4	; 2
    220a:	0c 98       	cbi	0x01, 4	; 1
    220c:	04 9b       	sbis	0x00, 4	; 0
    220e:	fe cf       	rjmp	.-4      	; 0x220c <sw_TWI_read_value_registers+0x41a>
	...
    2218:	14 98       	cbi	0x02, 4	; 2
    221a:	0c 9a       	sbi	0x01, 4	; 1
    221c:	00 00       	nop
    221e:	00 00       	nop
    2220:	00 00       	nop
    2222:	22 b1       	in	r18, 0x02	; 2
    2224:	29 23       	and	r18, r25
    2226:	22 b9       	out	0x02, r18	; 2
    2228:	21 b1       	in	r18, 0x01	; 1
    222a:	28 2b       	or	r18, r24
    222c:	21 b9       	out	0x01, r18	; 1
    222e:	00 00       	nop
    2230:	00 00       	nop
    2232:	14 9a       	sbi	0x02, 4	; 2
    2234:	0c 98       	cbi	0x01, 4	; 1
    2236:	04 9b       	sbis	0x00, 4	; 0
    2238:	fe cf       	rjmp	.-4      	; 0x2236 <sw_TWI_read_value_registers+0x444>
	...
    2242:	14 98       	cbi	0x02, 4	; 2
    2244:	0c 9a       	sbi	0x01, 4	; 1
    2246:	00 00       	nop
    2248:	00 00       	nop
    224a:	00 00       	nop
    224c:	22 b1       	in	r18, 0x02	; 2
    224e:	29 23       	and	r18, r25
    2250:	22 b9       	out	0x02, r18	; 2
    2252:	21 b1       	in	r18, 0x01	; 1
    2254:	28 2b       	or	r18, r24
    2256:	21 b9       	out	0x01, r18	; 1
    2258:	00 00       	nop
    225a:	00 00       	nop
    225c:	14 9a       	sbi	0x02, 4	; 2
    225e:	0c 98       	cbi	0x01, 4	; 1
    2260:	04 9b       	sbis	0x00, 4	; 0
    2262:	fe cf       	rjmp	.-4      	; 0x2260 <sw_TWI_read_value_registers+0x46e>
	...
    226c:	14 98       	cbi	0x02, 4	; 2
    226e:	0c 9a       	sbi	0x01, 4	; 1
    2270:	00 00       	nop
    2272:	00 00       	nop
    2274:	00 00       	nop
    2276:	22 b1       	in	r18, 0x02	; 2
    2278:	29 23       	and	r18, r25
    227a:	22 b9       	out	0x02, r18	; 2
    227c:	21 b1       	in	r18, 0x01	; 1
    227e:	28 2b       	or	r18, r24
    2280:	21 b9       	out	0x01, r18	; 1
    2282:	00 00       	nop
    2284:	00 00       	nop
    2286:	14 9a       	sbi	0x02, 4	; 2
    2288:	0c 98       	cbi	0x01, 4	; 1
    228a:	04 9b       	sbis	0x00, 4	; 0
    228c:	fe cf       	rjmp	.-4      	; 0x228a <sw_TWI_read_value_registers+0x498>
	...
    2296:	14 98       	cbi	0x02, 4	; 2
    2298:	0c 9a       	sbi	0x01, 4	; 1
    229a:	00 00       	nop
    229c:	00 00       	nop
    229e:	00 00       	nop
    22a0:	22 b1       	in	r18, 0x02	; 2
    22a2:	28 2b       	or	r18, r24
    22a4:	22 b9       	out	0x02, r18	; 2
    22a6:	21 b1       	in	r18, 0x01	; 1
    22a8:	29 23       	and	r18, r25
    22aa:	21 b9       	out	0x01, r18	; 1
    22ac:	00 00       	nop
    22ae:	00 00       	nop
    22b0:	14 9a       	sbi	0x02, 4	; 2
    22b2:	0c 98       	cbi	0x01, 4	; 1
    22b4:	04 9b       	sbis	0x00, 4	; 0
    22b6:	fe cf       	rjmp	.-4      	; 0x22b4 <sw_TWI_read_value_registers+0x4c2>
	...
    22c0:	14 98       	cbi	0x02, 4	; 2
    22c2:	0c 9a       	sbi	0x01, 4	; 1
    22c4:	00 00       	nop
    22c6:	00 00       	nop
    22c8:	00 00       	nop
    22ca:	22 b1       	in	r18, 0x02	; 2
    22cc:	28 2b       	or	r18, r24
    22ce:	22 b9       	out	0x02, r18	; 2
    22d0:	21 b1       	in	r18, 0x01	; 1
    22d2:	29 23       	and	r18, r25
    22d4:	21 b9       	out	0x01, r18	; 1
    22d6:	00 00       	nop
    22d8:	00 00       	nop
    22da:	14 9a       	sbi	0x02, 4	; 2
    22dc:	0c 98       	cbi	0x01, 4	; 1
    22de:	04 9b       	sbis	0x00, 4	; 0
    22e0:	fe cf       	rjmp	.-4      	; 0x22de <sw_TWI_read_value_registers+0x4ec>
	...
    22ea:	14 98       	cbi	0x02, 4	; 2
    22ec:	0c 9a       	sbi	0x01, 4	; 1
	...
    2302:	00 00       	nop
    2304:	14 9a       	sbi	0x02, 4	; 2
    2306:	0c 98       	cbi	0x01, 4	; 1
    2308:	04 9b       	sbis	0x00, 4	; 0
    230a:	fe cf       	rjmp	.-4      	; 0x2308 <sw_TWI_read_value_registers+0x516>
    230c:	20 b1       	in	r18, 0x00	; 0
    230e:	28 23       	and	r18, r24
    2310:	28 87       	std	Y+8, r18	; 0x08
    2312:	14 98       	cbi	0x02, 4	; 2
    2314:	0c 9a       	sbi	0x01, 4	; 1
	...
    232a:	00 00       	nop
    232c:	14 9a       	sbi	0x02, 4	; 2
    232e:	0c 98       	cbi	0x01, 4	; 1
    2330:	04 9b       	sbis	0x00, 4	; 0
    2332:	fe cf       	rjmp	.-4      	; 0x2330 <sw_TWI_read_value_registers+0x53e>
    2334:	20 b1       	in	r18, 0x00	; 0
    2336:	28 23       	and	r18, r24
    2338:	2f 83       	std	Y+7, r18	; 0x07
    233a:	14 98       	cbi	0x02, 4	; 2
    233c:	0c 9a       	sbi	0x01, 4	; 1
	...
    2352:	00 00       	nop
    2354:	14 9a       	sbi	0x02, 4	; 2
    2356:	0c 98       	cbi	0x01, 4	; 1
    2358:	04 9b       	sbis	0x00, 4	; 0
    235a:	fe cf       	rjmp	.-4      	; 0x2358 <sw_TWI_read_value_registers+0x566>
    235c:	20 b1       	in	r18, 0x00	; 0
    235e:	28 23       	and	r18, r24
    2360:	2e 83       	std	Y+6, r18	; 0x06
    2362:	14 98       	cbi	0x02, 4	; 2
    2364:	0c 9a       	sbi	0x01, 4	; 1
	...
    237a:	00 00       	nop
    237c:	14 9a       	sbi	0x02, 4	; 2
    237e:	0c 98       	cbi	0x01, 4	; 1
    2380:	04 9b       	sbis	0x00, 4	; 0
    2382:	fe cf       	rjmp	.-4      	; 0x2380 <sw_TWI_read_value_registers+0x58e>
    2384:	20 b1       	in	r18, 0x00	; 0
    2386:	28 23       	and	r18, r24
    2388:	2d 83       	std	Y+5, r18	; 0x05
    238a:	14 98       	cbi	0x02, 4	; 2
    238c:	0c 9a       	sbi	0x01, 4	; 1
	...
    23a2:	00 00       	nop
    23a4:	14 9a       	sbi	0x02, 4	; 2
    23a6:	0c 98       	cbi	0x01, 4	; 1
    23a8:	04 9b       	sbis	0x00, 4	; 0
    23aa:	fe cf       	rjmp	.-4      	; 0x23a8 <sw_TWI_read_value_registers+0x5b6>
    23ac:	20 b1       	in	r18, 0x00	; 0
    23ae:	28 23       	and	r18, r24
    23b0:	2c 83       	std	Y+4, r18	; 0x04
    23b2:	14 98       	cbi	0x02, 4	; 2
    23b4:	0c 9a       	sbi	0x01, 4	; 1
	...
    23ca:	00 00       	nop
    23cc:	14 9a       	sbi	0x02, 4	; 2
    23ce:	0c 98       	cbi	0x01, 4	; 1
    23d0:	04 9b       	sbis	0x00, 4	; 0
    23d2:	fe cf       	rjmp	.-4      	; 0x23d0 <sw_TWI_read_value_registers+0x5de>
    23d4:	20 b1       	in	r18, 0x00	; 0
    23d6:	28 23       	and	r18, r24
    23d8:	2b 83       	std	Y+3, r18	; 0x03
    23da:	14 98       	cbi	0x02, 4	; 2
    23dc:	0c 9a       	sbi	0x01, 4	; 1
	...
    23f2:	00 00       	nop
    23f4:	14 9a       	sbi	0x02, 4	; 2
    23f6:	0c 98       	cbi	0x01, 4	; 1
    23f8:	04 9b       	sbis	0x00, 4	; 0
    23fa:	fe cf       	rjmp	.-4      	; 0x23f8 <sw_TWI_read_value_registers+0x606>
    23fc:	20 b1       	in	r18, 0x00	; 0
    23fe:	28 23       	and	r18, r24
    2400:	2a 83       	std	Y+2, r18	; 0x02
    2402:	14 98       	cbi	0x02, 4	; 2
    2404:	0c 9a       	sbi	0x01, 4	; 1
	...
    241a:	00 00       	nop
    241c:	14 9a       	sbi	0x02, 4	; 2
    241e:	0c 98       	cbi	0x01, 4	; 1
    2420:	04 9b       	sbis	0x00, 4	; 0
    2422:	fe cf       	rjmp	.-4      	; 0x2420 <sw_TWI_read_value_registers+0x62e>
    2424:	20 b1       	in	r18, 0x00	; 0
    2426:	28 23       	and	r18, r24
    2428:	29 83       	std	Y+1, r18	; 0x01
    242a:	14 98       	cbi	0x02, 4	; 2
    242c:	0c 9a       	sbi	0x01, 4	; 1
    242e:	00 00       	nop
    2430:	00 00       	nop
    2432:	00 00       	nop
    2434:	22 b1       	in	r18, 0x02	; 2
    2436:	29 23       	and	r18, r25
    2438:	22 b9       	out	0x02, r18	; 2
    243a:	21 b1       	in	r18, 0x01	; 1
    243c:	28 2b       	or	r18, r24
    243e:	21 b9       	out	0x01, r18	; 1
    2440:	00 00       	nop
    2442:	00 00       	nop
    2444:	14 9a       	sbi	0x02, 4	; 2
    2446:	0c 98       	cbi	0x01, 4	; 1
    2448:	04 9b       	sbis	0x00, 4	; 0
    244a:	fe cf       	rjmp	.-4      	; 0x2448 <sw_TWI_read_value_registers+0x656>
	...
    2454:	14 98       	cbi	0x02, 4	; 2
    2456:	0c 9a       	sbi	0x01, 4	; 1
    2458:	00 00       	nop
    245a:	00 00       	nop
    245c:	00 00       	nop
    245e:	22 b1       	in	r18, 0x02	; 2
    2460:	28 2b       	or	r18, r24
    2462:	22 b9       	out	0x02, r18	; 2
    2464:	21 b1       	in	r18, 0x01	; 1
    2466:	29 23       	and	r18, r25
    2468:	21 b9       	out	0x01, r18	; 1
    246a:	00 00       	nop
    246c:	00 00       	nop
    246e:	14 9a       	sbi	0x02, 4	; 2
    2470:	0c 98       	cbi	0x01, 4	; 1
    2472:	04 9b       	sbis	0x00, 4	; 0
    2474:	fe cf       	rjmp	.-4      	; 0x2472 <sw_TWI_read_value_registers+0x680>
    2476:	20 b1       	in	r18, 0x00	; 0
    2478:	28 23       	and	r18, r24
    247a:	28 8b       	std	Y+16, r18	; 0x10
    247c:	14 98       	cbi	0x02, 4	; 2
    247e:	0c 9a       	sbi	0x01, 4	; 1
	...
    2494:	00 00       	nop
    2496:	14 9a       	sbi	0x02, 4	; 2
    2498:	0c 98       	cbi	0x01, 4	; 1
    249a:	04 9b       	sbis	0x00, 4	; 0
    249c:	fe cf       	rjmp	.-4      	; 0x249a <sw_TWI_read_value_registers+0x6a8>
    249e:	20 b1       	in	r18, 0x00	; 0
    24a0:	28 23       	and	r18, r24
    24a2:	2f 87       	std	Y+15, r18	; 0x0f
    24a4:	14 98       	cbi	0x02, 4	; 2
    24a6:	0c 9a       	sbi	0x01, 4	; 1
	...
    24bc:	00 00       	nop
    24be:	14 9a       	sbi	0x02, 4	; 2
    24c0:	0c 98       	cbi	0x01, 4	; 1
    24c2:	04 9b       	sbis	0x00, 4	; 0
    24c4:	fe cf       	rjmp	.-4      	; 0x24c2 <sw_TWI_read_value_registers+0x6d0>
    24c6:	20 b1       	in	r18, 0x00	; 0
    24c8:	28 23       	and	r18, r24
    24ca:	2e 87       	std	Y+14, r18	; 0x0e
    24cc:	14 98       	cbi	0x02, 4	; 2
    24ce:	0c 9a       	sbi	0x01, 4	; 1
	...
    24e4:	00 00       	nop
    24e6:	14 9a       	sbi	0x02, 4	; 2
    24e8:	0c 98       	cbi	0x01, 4	; 1
    24ea:	04 9b       	sbis	0x00, 4	; 0
    24ec:	fe cf       	rjmp	.-4      	; 0x24ea <sw_TWI_read_value_registers+0x6f8>
    24ee:	20 b1       	in	r18, 0x00	; 0
    24f0:	28 23       	and	r18, r24
    24f2:	2d 87       	std	Y+13, r18	; 0x0d
    24f4:	14 98       	cbi	0x02, 4	; 2
    24f6:	0c 9a       	sbi	0x01, 4	; 1
	...
    250c:	00 00       	nop
    250e:	14 9a       	sbi	0x02, 4	; 2
    2510:	0c 98       	cbi	0x01, 4	; 1
    2512:	04 9b       	sbis	0x00, 4	; 0
    2514:	fe cf       	rjmp	.-4      	; 0x2512 <sw_TWI_read_value_registers+0x720>
    2516:	20 b1       	in	r18, 0x00	; 0
    2518:	28 23       	and	r18, r24
    251a:	2c 87       	std	Y+12, r18	; 0x0c
    251c:	14 98       	cbi	0x02, 4	; 2
    251e:	0c 9a       	sbi	0x01, 4	; 1
	...
    2534:	00 00       	nop
    2536:	14 9a       	sbi	0x02, 4	; 2
    2538:	0c 98       	cbi	0x01, 4	; 1
    253a:	04 9b       	sbis	0x00, 4	; 0
    253c:	fe cf       	rjmp	.-4      	; 0x253a <sw_TWI_read_value_registers+0x748>
    253e:	20 b1       	in	r18, 0x00	; 0
    2540:	28 23       	and	r18, r24
    2542:	2b 87       	std	Y+11, r18	; 0x0b
    2544:	14 98       	cbi	0x02, 4	; 2
    2546:	0c 9a       	sbi	0x01, 4	; 1
	...
    255c:	00 00       	nop
    255e:	14 9a       	sbi	0x02, 4	; 2
    2560:	0c 98       	cbi	0x01, 4	; 1
    2562:	04 9b       	sbis	0x00, 4	; 0
    2564:	fe cf       	rjmp	.-4      	; 0x2562 <sw_TWI_read_value_registers+0x770>
    2566:	20 b1       	in	r18, 0x00	; 0
    2568:	28 23       	and	r18, r24
    256a:	2a 87       	std	Y+10, r18	; 0x0a
    256c:	14 98       	cbi	0x02, 4	; 2
    256e:	0c 9a       	sbi	0x01, 4	; 1
	...
    2584:	00 00       	nop
    2586:	14 9a       	sbi	0x02, 4	; 2
    2588:	0c 98       	cbi	0x01, 4	; 1
    258a:	04 9b       	sbis	0x00, 4	; 0
    258c:	fe cf       	rjmp	.-4      	; 0x258a <sw_TWI_read_value_registers+0x798>
    258e:	20 b1       	in	r18, 0x00	; 0
    2590:	28 23       	and	r18, r24
    2592:	29 87       	std	Y+9, r18	; 0x09
    2594:	14 98       	cbi	0x02, 4	; 2
    2596:	0c 9a       	sbi	0x01, 4	; 1
    2598:	22 b1       	in	r18, 0x02	; 2
    259a:	28 2b       	or	r18, r24
    259c:	22 b9       	out	0x02, r18	; 2
    259e:	21 b1       	in	r18, 0x01	; 1
    25a0:	29 23       	and	r18, r25
    25a2:	21 b9       	out	0x01, r18	; 1
	...
    25ac:	00 00       	nop
    25ae:	14 9a       	sbi	0x02, 4	; 2
    25b0:	0c 98       	cbi	0x01, 4	; 1
    25b2:	04 9b       	sbis	0x00, 4	; 0
    25b4:	fe cf       	rjmp	.-4      	; 0x25b2 <sw_TWI_read_value_registers+0x7c0>
	...
    25be:	14 98       	cbi	0x02, 4	; 2
    25c0:	0c 9a       	sbi	0x01, 4	; 1
    25c2:	00 00       	nop
    25c4:	00 00       	nop
    25c6:	00 00       	nop
    25c8:	22 b1       	in	r18, 0x02	; 2
    25ca:	29 23       	and	r18, r25
    25cc:	22 b9       	out	0x02, r18	; 2
    25ce:	21 b1       	in	r18, 0x01	; 1
    25d0:	28 2b       	or	r18, r24
    25d2:	21 b9       	out	0x01, r18	; 1
    25d4:	00 00       	nop
    25d6:	00 00       	nop
    25d8:	14 9a       	sbi	0x02, 4	; 2
    25da:	0c 98       	cbi	0x01, 4	; 1
    25dc:	04 9b       	sbis	0x00, 4	; 0
    25de:	fe cf       	rjmp	.-4      	; 0x25dc <sw_TWI_read_value_registers+0x7ea>
	...
    25e8:	22 b1       	in	r18, 0x02	; 2
    25ea:	82 2b       	or	r24, r18
    25ec:	82 b9       	out	0x02, r24	; 2
    25ee:	81 b1       	in	r24, 0x01	; 1
    25f0:	98 23       	and	r25, r24
    25f2:	91 b9       	out	0x01, r25	; 1
    25f4:	00 00       	nop
    25f6:	00 00       	nop
    25f8:	df 01       	movw	r26, r30
    25fa:	1d 92       	st	X+, r1
    25fc:	1d 92       	st	X+, r1
    25fe:	5d 01       	movw	r10, r26
    2600:	13 82       	std	Z+3, r1	; 0x03
    2602:	12 82       	std	Z+2, r1	; 0x02
    2604:	9f 01       	movw	r18, r30
    2606:	2c 5f       	subi	r18, 0xFC	; 252
    2608:	3f 4f       	sbci	r19, 0xFF	; 255
    260a:	15 82       	std	Z+5, r1	; 0x05
    260c:	14 82       	std	Z+4, r1	; 0x04
    260e:	cf 01       	movw	r24, r30
    2610:	06 96       	adiw	r24, 0x06	; 6
    2612:	17 82       	std	Z+7, r1	; 0x07
    2614:	16 82       	std	Z+6, r1	; 0x06
    2616:	ae 01       	movw	r20, r28
    2618:	4f 5e       	subi	r20, 0xEF	; 239
    261a:	5f 4f       	sbci	r21, 0xFF	; 255
    261c:	6e 01       	movw	r12, r28
    261e:	08 94       	sec
    2620:	c1 1c       	adc	r12, r1
    2622:	d1 1c       	adc	r13, r1
    2624:	60 81       	ld	r22, Z
    2626:	71 81       	ldd	r23, Z+1	; 0x01
    2628:	66 0f       	add	r22, r22
    262a:	77 1f       	adc	r23, r23
    262c:	71 83       	std	Z+1, r23	; 0x01
    262e:	60 83       	st	Z, r22
    2630:	d5 01       	movw	r26, r10
    2632:	6d 91       	ld	r22, X+
    2634:	7c 91       	ld	r23, X
    2636:	11 97       	sbiw	r26, 0x01	; 1
    2638:	66 0f       	add	r22, r22
    263a:	77 1f       	adc	r23, r23
    263c:	6d 93       	st	X+, r22
    263e:	7c 93       	st	X, r23
    2640:	d9 01       	movw	r26, r18
    2642:	6d 91       	ld	r22, X+
    2644:	7c 91       	ld	r23, X
    2646:	11 97       	sbiw	r26, 0x01	; 1
    2648:	66 0f       	add	r22, r22
    264a:	77 1f       	adc	r23, r23
    264c:	6d 93       	st	X+, r22
    264e:	7c 93       	st	X, r23
    2650:	dc 01       	movw	r26, r24
    2652:	6d 91       	ld	r22, X+
    2654:	7c 91       	ld	r23, X
    2656:	11 97       	sbiw	r26, 0x01	; 1
    2658:	66 0f       	add	r22, r22
    265a:	77 1f       	adc	r23, r23
    265c:	6d 93       	st	X+, r22
    265e:	7c 93       	st	X, r23
    2660:	da 01       	movw	r26, r20
    2662:	6e 91       	ld	r22, -X
    2664:	ad 01       	movw	r20, r26
    2666:	06 2f       	mov	r16, r22
    2668:	01 70       	andi	r16, 0x01	; 1
    266a:	10 e0       	ldi	r17, 0x00	; 0
    266c:	e0 80       	ld	r14, Z
    266e:	f1 80       	ldd	r15, Z+1	; 0x01
    2670:	0e 29       	or	r16, r14
    2672:	1f 29       	or	r17, r15
    2674:	11 83       	std	Z+1, r17	; 0x01
    2676:	00 83       	st	Z, r16
    2678:	06 2f       	mov	r16, r22
    267a:	02 70       	andi	r16, 0x02	; 2
    267c:	06 95       	lsr	r16
    267e:	10 e0       	ldi	r17, 0x00	; 0
    2680:	d5 01       	movw	r26, r10
    2682:	ed 90       	ld	r14, X+
    2684:	fc 90       	ld	r15, X
    2686:	11 97       	sbiw	r26, 0x01	; 1
    2688:	0e 29       	or	r16, r14
    268a:	1f 29       	or	r17, r15
    268c:	0d 93       	st	X+, r16
    268e:	1c 93       	st	X, r17
    2690:	06 2f       	mov	r16, r22
    2692:	04 70       	andi	r16, 0x04	; 4
    2694:	06 95       	lsr	r16
    2696:	06 95       	lsr	r16
    2698:	10 e0       	ldi	r17, 0x00	; 0
    269a:	d9 01       	movw	r26, r18
    269c:	ed 90       	ld	r14, X+
    269e:	fc 90       	ld	r15, X
    26a0:	11 97       	sbiw	r26, 0x01	; 1
    26a2:	0e 29       	or	r16, r14
    26a4:	1f 29       	or	r17, r15
    26a6:	0d 93       	st	X+, r16
    26a8:	1c 93       	st	X, r17
    26aa:	68 70       	andi	r22, 0x08	; 8
    26ac:	66 95       	lsr	r22
    26ae:	66 95       	lsr	r22
    26b0:	66 95       	lsr	r22
    26b2:	70 e0       	ldi	r23, 0x00	; 0
    26b4:	dc 01       	movw	r26, r24
    26b6:	0d 91       	ld	r16, X+
    26b8:	1c 91       	ld	r17, X
    26ba:	11 97       	sbiw	r26, 0x01	; 1
    26bc:	60 2b       	or	r22, r16
    26be:	71 2b       	or	r23, r17
    26c0:	11 96       	adiw	r26, 0x01	; 1
    26c2:	7c 93       	st	X, r23
    26c4:	6e 93       	st	-X, r22
    26c6:	4c 15       	cp	r20, r12
    26c8:	5d 05       	cpc	r21, r13
    26ca:	09 f0       	breq	.+2      	; 0x26ce <sw_TWI_read_value_registers+0x8dc>
    26cc:	ab cf       	rjmp	.-170    	; 0x2624 <sw_TWI_read_value_registers+0x832>
    26ce:	80 81       	ld	r24, Z
    26d0:	91 81       	ldd	r25, Z+1	; 0x01
    26d2:	95 95       	asr	r25
    26d4:	87 95       	ror	r24
    26d6:	91 83       	std	Z+1, r25	; 0x01
    26d8:	80 83       	st	Z, r24
    26da:	82 81       	ldd	r24, Z+2	; 0x02
    26dc:	93 81       	ldd	r25, Z+3	; 0x03
    26de:	95 95       	asr	r25
    26e0:	87 95       	ror	r24
    26e2:	93 83       	std	Z+3, r25	; 0x03
    26e4:	82 83       	std	Z+2, r24	; 0x02
    26e6:	84 81       	ldd	r24, Z+4	; 0x04
    26e8:	95 81       	ldd	r25, Z+5	; 0x05
    26ea:	95 95       	asr	r25
    26ec:	87 95       	ror	r24
    26ee:	95 83       	std	Z+5, r25	; 0x05
    26f0:	84 83       	std	Z+4, r24	; 0x04
    26f2:	86 81       	ldd	r24, Z+6	; 0x06
    26f4:	97 81       	ldd	r25, Z+7	; 0x07
    26f6:	95 95       	asr	r25
    26f8:	87 95       	ror	r24
    26fa:	97 83       	std	Z+7, r25	; 0x07
    26fc:	86 83       	std	Z+6, r24	; 0x06
    26fe:	78 94       	sei
    2700:	60 96       	adiw	r28, 0x10	; 16
    2702:	0f b6       	in	r0, 0x3f	; 63
    2704:	f8 94       	cli
    2706:	de bf       	out	0x3e, r29	; 62
    2708:	0f be       	out	0x3f, r0	; 63
    270a:	cd bf       	out	0x3d, r28	; 61
    270c:	cf 91       	pop	r28
    270e:	df 91       	pop	r29
    2710:	1f 91       	pop	r17
    2712:	0f 91       	pop	r16
    2714:	ff 90       	pop	r15
    2716:	ef 90       	pop	r14
    2718:	df 90       	pop	r13
    271a:	cf 90       	pop	r12
    271c:	bf 90       	pop	r11
    271e:	af 90       	pop	r10
    2720:	08 95       	ret

00002722 <SX8723c_init>:
    2722:	ff 92       	push	r15
    2724:	0f 93       	push	r16
    2726:	1f 93       	push	r17
    2728:	cf 93       	push	r28
    272a:	df 93       	push	r29
    272c:	f8 2e       	mov	r15, r24
    272e:	82 30       	cpi	r24, 0x02	; 2
    2730:	09 f4       	brne	.+2      	; 0x2734 <SX8723c_init+0x12>
    2732:	75 c0       	rjmp	.+234    	; 0x281e <SX8723c_init+0xfc>
    2734:	83 30       	cpi	r24, 0x03	; 3
    2736:	08 f4       	brcc	.+2      	; 0x273a <SX8723c_init+0x18>
    2738:	67 c0       	rjmp	.+206    	; 0x2808 <SX8723c_init+0xe6>
    273a:	84 30       	cpi	r24, 0x04	; 4
    273c:	09 f4       	brne	.+2      	; 0x2740 <SX8723c_init+0x1e>
    273e:	6c c0       	rjmp	.+216    	; 0x2818 <SX8723c_init+0xf6>
    2740:	88 30       	cpi	r24, 0x08	; 8
    2742:	09 f0       	breq	.+2      	; 0x2746 <SX8723c_init+0x24>
    2744:	63 c0       	rjmp	.+198    	; 0x280c <SX8723c_init+0xea>
    2746:	03 e0       	ldi	r16, 0x03	; 3
    2748:	10 e0       	ldi	r17, 0x00	; 0
    274a:	e8 01       	movw	r28, r16
    274c:	cc 0f       	add	r28, r28
    274e:	dd 1f       	adc	r29, r29
    2750:	98 01       	movw	r18, r16
    2752:	22 0f       	add	r18, r18
    2754:	33 1f       	adc	r19, r19
    2756:	22 0f       	add	r18, r18
    2758:	33 1f       	adc	r19, r19
    275a:	22 0f       	add	r18, r18
    275c:	33 1f       	adc	r19, r19
    275e:	c2 0f       	add	r28, r18
    2760:	d3 1f       	adc	r29, r19
    2762:	c0 0f       	add	r28, r16
    2764:	d1 1f       	adc	r29, r17
    2766:	c9 5e       	subi	r28, 0xE9	; 233
    2768:	de 4f       	sbci	r29, 0xFE	; 254
    276a:	8f 2d       	mov	r24, r15
    276c:	60 e3       	ldi	r22, 0x30	; 48
    276e:	4a 81       	ldd	r20, Y+2	; 0x02
    2770:	0e 94 b1 07 	call	0xf62	; 0xf62 <sw_TWI_write_single_register>
    2774:	8f 2d       	mov	r24, r15
    2776:	60 e4       	ldi	r22, 0x40	; 64
    2778:	4b 81       	ldd	r20, Y+3	; 0x03
    277a:	0e 94 b1 07 	call	0xf62	; 0xf62 <sw_TWI_write_single_register>
    277e:	8f 2d       	mov	r24, r15
    2780:	62 e4       	ldi	r22, 0x42	; 66
    2782:	4c 81       	ldd	r20, Y+4	; 0x04
    2784:	0e 94 b1 07 	call	0xf62	; 0xf62 <sw_TWI_write_single_register>
    2788:	8f 2d       	mov	r24, r15
    278a:	63 e4       	ldi	r22, 0x43	; 67
    278c:	4d 81       	ldd	r20, Y+5	; 0x05
    278e:	0e 94 b1 07 	call	0xf62	; 0xf62 <sw_TWI_write_single_register>
    2792:	8f 2d       	mov	r24, r15
    2794:	62 e5       	ldi	r22, 0x52	; 82
    2796:	4e 81       	ldd	r20, Y+6	; 0x06
    2798:	0e 94 b1 07 	call	0xf62	; 0xf62 <sw_TWI_write_single_register>
    279c:	8f 2d       	mov	r24, r15
    279e:	63 e5       	ldi	r22, 0x53	; 83
    27a0:	4f 81       	ldd	r20, Y+7	; 0x07
    27a2:	0e 94 b1 07 	call	0xf62	; 0xf62 <sw_TWI_write_single_register>
    27a6:	8f 2d       	mov	r24, r15
    27a8:	64 e5       	ldi	r22, 0x54	; 84
    27aa:	48 85       	ldd	r20, Y+8	; 0x08
    27ac:	0e 94 b1 07 	call	0xf62	; 0xf62 <sw_TWI_write_single_register>
    27b0:	8f 2d       	mov	r24, r15
    27b2:	65 e5       	ldi	r22, 0x55	; 85
    27b4:	49 85       	ldd	r20, Y+9	; 0x09
    27b6:	0e 94 b1 07 	call	0xf62	; 0xf62 <sw_TWI_write_single_register>
    27ba:	8f 2d       	mov	r24, r15
    27bc:	66 e5       	ldi	r22, 0x56	; 86
    27be:	4a 85       	ldd	r20, Y+10	; 0x0a
    27c0:	0e 94 b1 07 	call	0xf62	; 0xf62 <sw_TWI_write_single_register>
    27c4:	0f 5f       	subi	r16, 0xFF	; 255
    27c6:	1f 4f       	sbci	r17, 0xFF	; 255
    27c8:	f8 01       	movw	r30, r16
    27ca:	ee 0f       	add	r30, r30
    27cc:	ff 1f       	adc	r31, r31
    27ce:	98 01       	movw	r18, r16
    27d0:	22 0f       	add	r18, r18
    27d2:	33 1f       	adc	r19, r19
    27d4:	22 0f       	add	r18, r18
    27d6:	33 1f       	adc	r19, r19
    27d8:	22 0f       	add	r18, r18
    27da:	33 1f       	adc	r19, r19
    27dc:	e2 0f       	add	r30, r18
    27de:	f3 1f       	adc	r31, r19
    27e0:	e0 0f       	add	r30, r16
    27e2:	f1 1f       	adc	r31, r17
    27e4:	e9 5e       	subi	r30, 0xE9	; 233
    27e6:	fe 4f       	sbci	r31, 0xFE	; 254
    27e8:	8f 2d       	mov	r24, r15
    27ea:	67 e5       	ldi	r22, 0x57	; 87
    27ec:	40 81       	ld	r20, Z
    27ee:	0e 94 b1 07 	call	0xf62	; 0xf62 <sw_TWI_write_single_register>
    27f2:	8f 2d       	mov	r24, r15
    27f4:	60 e7       	ldi	r22, 0x70	; 112
    27f6:	4c 85       	ldd	r20, Y+12	; 0x0c
    27f8:	0e 94 b1 07 	call	0xf62	; 0xf62 <sw_TWI_write_single_register>
    27fc:	df 91       	pop	r29
    27fe:	cf 91       	pop	r28
    2800:	1f 91       	pop	r17
    2802:	0f 91       	pop	r16
    2804:	ff 90       	pop	r15
    2806:	08 95       	ret
    2808:	81 30       	cpi	r24, 0x01	; 1
    280a:	61 f0       	breq	.+24     	; 0x2824 <SX8723c_init+0x102>
    280c:	df 91       	pop	r29
    280e:	cf 91       	pop	r28
    2810:	1f 91       	pop	r17
    2812:	0f 91       	pop	r16
    2814:	ff 90       	pop	r15
    2816:	08 95       	ret
    2818:	02 e0       	ldi	r16, 0x02	; 2
    281a:	10 e0       	ldi	r17, 0x00	; 0
    281c:	96 cf       	rjmp	.-212    	; 0x274a <SX8723c_init+0x28>
    281e:	01 e0       	ldi	r16, 0x01	; 1
    2820:	10 e0       	ldi	r17, 0x00	; 0
    2822:	93 cf       	rjmp	.-218    	; 0x274a <SX8723c_init+0x28>
    2824:	00 e0       	ldi	r16, 0x00	; 0
    2826:	10 e0       	ldi	r17, 0x00	; 0
    2828:	90 cf       	rjmp	.-224    	; 0x274a <SX8723c_init+0x28>

0000282a <SX8723c_get_value>:
    282a:	0e 94 f9 0e 	call	0x1df2	; 0x1df2 <sw_TWI_read_value_registers>
    282e:	08 95       	ret

00002830 <SX8723c_send_request>:
    2830:	40 91 1d 01 	lds	r20, 0x011D
    2834:	4e 7f       	andi	r20, 0xFE	; 254
    2836:	40 68       	ori	r20, 0x80	; 128
    2838:	62 e5       	ldi	r22, 0x52	; 82
    283a:	0e 94 b1 07 	call	0xf62	; 0xf62 <sw_TWI_write_single_register>
    283e:	08 95       	ret

00002840 <SX8723c_auto_offset>:
    2840:	2f 92       	push	r2
    2842:	3f 92       	push	r3
    2844:	4f 92       	push	r4
    2846:	5f 92       	push	r5
    2848:	6f 92       	push	r6
    284a:	7f 92       	push	r7
    284c:	8f 92       	push	r8
    284e:	9f 92       	push	r9
    2850:	af 92       	push	r10
    2852:	bf 92       	push	r11
    2854:	cf 92       	push	r12
    2856:	df 92       	push	r13
    2858:	ef 92       	push	r14
    285a:	ff 92       	push	r15
    285c:	0f 93       	push	r16
    285e:	1f 93       	push	r17
    2860:	df 93       	push	r29
    2862:	cf 93       	push	r28
    2864:	cd b7       	in	r28, 0x3d	; 61
    2866:	de b7       	in	r29, 0x3e	; 62
    2868:	2d 97       	sbiw	r28, 0x0d	; 13
    286a:	0f b6       	in	r0, 0x3f	; 63
    286c:	f8 94       	cli
    286e:	de bf       	out	0x3e, r29	; 62
    2870:	0f be       	out	0x3f, r0	; 63
    2872:	cd bf       	out	0x3d, r28	; 61
    2874:	b8 2e       	mov	r11, r24
    2876:	3e 01       	movw	r6, r28
    2878:	08 94       	sec
    287a:	61 1c       	adc	r6, r1
    287c:	71 1c       	adc	r7, r1
    287e:	88 e0       	ldi	r24, 0x08	; 8
    2880:	f3 01       	movw	r30, r6
    2882:	11 92       	st	Z+, r1
    2884:	8a 95       	dec	r24
    2886:	e9 f7       	brne	.-6      	; 0x2882 <SX8723c_auto_offset+0x42>
    2888:	fb 2d       	mov	r31, r11
    288a:	f2 30       	cpi	r31, 0x02	; 2
    288c:	09 f4       	brne	.+2      	; 0x2890 <SX8723c_auto_offset+0x50>
    288e:	f6 c0       	rjmp	.+492    	; 0x2a7c <SX8723c_auto_offset+0x23c>
    2890:	f3 30       	cpi	r31, 0x03	; 3
    2892:	08 f4       	brcc	.+2      	; 0x2896 <SX8723c_auto_offset+0x56>
    2894:	d6 c0       	rjmp	.+428    	; 0x2a42 <SX8723c_auto_offset+0x202>
    2896:	2b 2d       	mov	r18, r11
    2898:	24 30       	cpi	r18, 0x04	; 4
    289a:	09 f4       	brne	.+2      	; 0x289e <SX8723c_auto_offset+0x5e>
    289c:	ed c0       	rjmp	.+474    	; 0x2a78 <SX8723c_auto_offset+0x238>
    289e:	28 30       	cpi	r18, 0x08	; 8
    28a0:	09 f0       	breq	.+2      	; 0x28a4 <SX8723c_auto_offset+0x64>
    28a2:	d1 c0       	rjmp	.+418    	; 0x2a46 <SX8723c_auto_offset+0x206>
    28a4:	03 e0       	ldi	r16, 0x03	; 3
    28a6:	8b 2d       	mov	r24, r11
    28a8:	66 e5       	ldi	r22, 0x56	; 86
    28aa:	40 e0       	ldi	r20, 0x00	; 0
    28ac:	0e 94 b1 07 	call	0xf62	; 0xf62 <sw_TWI_write_single_register>
    28b0:	80 2f       	mov	r24, r16
    28b2:	90 e0       	ldi	r25, 0x00	; 0
    28b4:	9d 87       	std	Y+13, r25	; 0x0d
    28b6:	8c 87       	std	Y+12, r24	; 0x0c
    28b8:	88 0f       	add	r24, r24
    28ba:	99 1f       	adc	r25, r25
    28bc:	9b 87       	std	Y+11, r25	; 0x0b
    28be:	8a 87       	std	Y+10, r24	; 0x0a
    28c0:	ec 85       	ldd	r30, Y+12	; 0x0c
    28c2:	fd 85       	ldd	r31, Y+13	; 0x0d
    28c4:	ee 0f       	add	r30, r30
    28c6:	ff 1f       	adc	r31, r31
    28c8:	ee 0f       	add	r30, r30
    28ca:	ff 1f       	adc	r31, r31
    28cc:	ee 0f       	add	r30, r30
    28ce:	ff 1f       	adc	r31, r31
    28d0:	e8 0f       	add	r30, r24
    28d2:	f9 1f       	adc	r31, r25
    28d4:	2c 85       	ldd	r18, Y+12	; 0x0c
    28d6:	3d 85       	ldd	r19, Y+13	; 0x0d
    28d8:	e2 0f       	add	r30, r18
    28da:	f3 1f       	adc	r31, r19
    28dc:	e9 5e       	subi	r30, 0xE9	; 233
    28de:	fe 4f       	sbci	r31, 0xFE	; 254
    28e0:	12 86       	std	Z+10, r1	; 0x0a
    28e2:	8f e0       	ldi	r24, 0x0F	; 15
    28e4:	97 e2       	ldi	r25, 0x27	; 39
    28e6:	01 97       	sbiw	r24, 0x01	; 1
    28e8:	f1 f7       	brne	.-4      	; 0x28e6 <SX8723c_auto_offset+0xa6>
    28ea:	00 c0       	rjmp	.+0      	; 0x28ec <SX8723c_auto_offset+0xac>
    28ec:	00 00       	nop
    28ee:	04 e6       	ldi	r16, 0x64	; 100
    28f0:	10 e0       	ldi	r17, 0x00	; 0
    28f2:	cc 24       	eor	r12, r12
    28f4:	dd 24       	eor	r13, r13
    28f6:	76 01       	movw	r14, r12
    28f8:	8a 84       	ldd	r8, Y+10	; 0x0a
    28fa:	9b 84       	ldd	r9, Y+11	; 0x0b
    28fc:	86 0c       	add	r8, r6
    28fe:	97 1c       	adc	r9, r7
    2900:	8b 2d       	mov	r24, r11
    2902:	0e 94 18 14 	call	0x2830	; 0x2830 <SX8723c_send_request>
    2906:	eb ed       	ldi	r30, 0xDB	; 219
    2908:	f5 e0       	ldi	r31, 0x05	; 5
    290a:	31 97       	sbiw	r30, 0x01	; 1
    290c:	f1 f7       	brne	.-4      	; 0x290a <SX8723c_auto_offset+0xca>
    290e:	00 c0       	rjmp	.+0      	; 0x2910 <SX8723c_auto_offset+0xd0>
    2910:	00 00       	nop
    2912:	8b 2d       	mov	r24, r11
    2914:	b3 01       	movw	r22, r6
    2916:	0e 94 f9 0e 	call	0x1df2	; 0x1df2 <sw_TWI_read_value_registers>
    291a:	f4 01       	movw	r30, r8
    291c:	80 81       	ld	r24, Z
    291e:	91 81       	ldd	r25, Z+1	; 0x01
    2920:	aa 27       	eor	r26, r26
    2922:	97 fd       	sbrc	r25, 7
    2924:	a0 95       	com	r26
    2926:	ba 2f       	mov	r27, r26
    2928:	c8 0e       	add	r12, r24
    292a:	d9 1e       	adc	r13, r25
    292c:	ea 1e       	adc	r14, r26
    292e:	fb 1e       	adc	r15, r27
    2930:	11 82       	std	Z+1, r1	; 0x01
    2932:	10 82       	st	Z, r1
    2934:	01 50       	subi	r16, 0x01	; 1
    2936:	10 40       	sbci	r17, 0x00	; 0
    2938:	19 f7       	brne	.-58     	; 0x2900 <SX8723c_auto_offset+0xc0>
    293a:	c7 01       	movw	r24, r14
    293c:	b6 01       	movw	r22, r12
    293e:	24 e6       	ldi	r18, 0x64	; 100
    2940:	30 e0       	ldi	r19, 0x00	; 0
    2942:	40 e0       	ldi	r20, 0x00	; 0
    2944:	50 e0       	ldi	r21, 0x00	; 0
    2946:	0e 94 18 1a 	call	0x3430	; 0x3430 <__divmodsi4>
    294a:	c9 01       	movw	r24, r18
    294c:	f4 01       	movw	r30, r8
    294e:	31 83       	std	Z+1, r19	; 0x01
    2950:	20 83       	st	Z, r18
    2952:	20 51       	subi	r18, 0x10	; 16
    2954:	35 4f       	sbci	r19, 0xF5	; 245
    2956:	f5 e1       	ldi	r31, 0x15	; 21
    2958:	21 3e       	cpi	r18, 0xE1	; 225
    295a:	3f 07       	cpc	r19, r31
    295c:	08 f4       	brcc	.+2      	; 0x2960 <SX8723c_auto_offset+0x120>
    295e:	63 c0       	rjmp	.+198    	; 0x2a26 <SX8723c_auto_offset+0x1e6>
    2960:	18 16       	cp	r1, r24
    2962:	19 06       	cpc	r1, r25
    2964:	0c f0       	brlt	.+2      	; 0x2968 <SX8723c_auto_offset+0x128>
    2966:	8e c0       	rjmp	.+284    	; 0x2a84 <SX8723c_auto_offset+0x244>
    2968:	aa 24       	eor	r10, r10
    296a:	8a 84       	ldd	r8, Y+10	; 0x0a
    296c:	9b 84       	ldd	r9, Y+11	; 0x0b
    296e:	86 0c       	add	r8, r6
    2970:	97 1c       	adc	r9, r7
    2972:	74 e6       	ldi	r23, 0x64	; 100
    2974:	27 2e       	mov	r2, r23
    2976:	31 2c       	mov	r3, r1
    2978:	41 2c       	mov	r4, r1
    297a:	51 2c       	mov	r5, r1
    297c:	a3 94       	inc	r10
    297e:	2a 2d       	mov	r18, r10
    2980:	20 64       	ori	r18, 0x40	; 64
    2982:	29 87       	std	Y+9, r18	; 0x09
    2984:	8b 2d       	mov	r24, r11
    2986:	66 e5       	ldi	r22, 0x56	; 86
    2988:	42 2f       	mov	r20, r18
    298a:	0e 94 b1 07 	call	0xf62	; 0xf62 <sw_TWI_write_single_register>
    298e:	8f e0       	ldi	r24, 0x0F	; 15
    2990:	97 e2       	ldi	r25, 0x27	; 39
    2992:	01 97       	sbiw	r24, 0x01	; 1
    2994:	f1 f7       	brne	.-4      	; 0x2992 <SX8723c_auto_offset+0x152>
    2996:	00 c0       	rjmp	.+0      	; 0x2998 <SX8723c_auto_offset+0x158>
    2998:	00 00       	nop
    299a:	f4 01       	movw	r30, r8
    299c:	11 82       	std	Z+1, r1	; 0x01
    299e:	10 82       	st	Z, r1
    29a0:	04 e6       	ldi	r16, 0x64	; 100
    29a2:	10 e0       	ldi	r17, 0x00	; 0
    29a4:	cc 24       	eor	r12, r12
    29a6:	dd 24       	eor	r13, r13
    29a8:	76 01       	movw	r14, r12
    29aa:	8b 2d       	mov	r24, r11
    29ac:	0e 94 18 14 	call	0x2830	; 0x2830 <SX8723c_send_request>
    29b0:	8b ed       	ldi	r24, 0xDB	; 219
    29b2:	95 e0       	ldi	r25, 0x05	; 5
    29b4:	01 97       	sbiw	r24, 0x01	; 1
    29b6:	f1 f7       	brne	.-4      	; 0x29b4 <SX8723c_auto_offset+0x174>
    29b8:	00 c0       	rjmp	.+0      	; 0x29ba <SX8723c_auto_offset+0x17a>
    29ba:	00 00       	nop
    29bc:	8b 2d       	mov	r24, r11
    29be:	b3 01       	movw	r22, r6
    29c0:	0e 94 f9 0e 	call	0x1df2	; 0x1df2 <sw_TWI_read_value_registers>
    29c4:	f4 01       	movw	r30, r8
    29c6:	80 81       	ld	r24, Z
    29c8:	91 81       	ldd	r25, Z+1	; 0x01
    29ca:	aa 27       	eor	r26, r26
    29cc:	97 fd       	sbrc	r25, 7
    29ce:	a0 95       	com	r26
    29d0:	ba 2f       	mov	r27, r26
    29d2:	c8 0e       	add	r12, r24
    29d4:	d9 1e       	adc	r13, r25
    29d6:	ea 1e       	adc	r14, r26
    29d8:	fb 1e       	adc	r15, r27
    29da:	11 82       	std	Z+1, r1	; 0x01
    29dc:	10 82       	st	Z, r1
    29de:	01 50       	subi	r16, 0x01	; 1
    29e0:	10 40       	sbci	r17, 0x00	; 0
    29e2:	19 f7       	brne	.-58     	; 0x29aa <SX8723c_auto_offset+0x16a>
    29e4:	c7 01       	movw	r24, r14
    29e6:	b6 01       	movw	r22, r12
    29e8:	a2 01       	movw	r20, r4
    29ea:	91 01       	movw	r18, r2
    29ec:	0e 94 18 1a 	call	0x3430	; 0x3430 <__divmodsi4>
    29f0:	c9 01       	movw	r24, r18
    29f2:	f4 01       	movw	r30, r8
    29f4:	31 83       	std	Z+1, r19	; 0x01
    29f6:	20 83       	st	Z, r18
    29f8:	fa 2d       	mov	r31, r10
    29fa:	ff 33       	cpi	r31, 0x3F	; 63
    29fc:	21 f1       	breq	.+72     	; 0x2a46 <SX8723c_auto_offset+0x206>
    29fe:	2a e0       	ldi	r18, 0x0A	; 10
    2a00:	81 3f       	cpi	r24, 0xF1	; 241
    2a02:	92 07       	cpc	r25, r18
    2a04:	0c f0       	brlt	.+2      	; 0x2a08 <SX8723c_auto_offset+0x1c8>
    2a06:	ba cf       	rjmp	.-140    	; 0x297c <SX8723c_auto_offset+0x13c>
    2a08:	8b e0       	ldi	r24, 0x0B	; 11
    2a0a:	90 e0       	ldi	r25, 0x00	; 0
    2a0c:	2c 85       	ldd	r18, Y+12	; 0x0c
    2a0e:	3d 85       	ldd	r19, Y+13	; 0x0d
    2a10:	28 9f       	mul	r18, r24
    2a12:	f0 01       	movw	r30, r0
    2a14:	29 9f       	mul	r18, r25
    2a16:	f0 0d       	add	r31, r0
    2a18:	38 9f       	mul	r19, r24
    2a1a:	f0 0d       	add	r31, r0
    2a1c:	11 24       	eor	r1, r1
    2a1e:	e9 5e       	subi	r30, 0xE9	; 233
    2a20:	fe 4f       	sbci	r31, 0xFE	; 254
    2a22:	39 85       	ldd	r19, Y+9	; 0x09
    2a24:	32 87       	std	Z+10, r19	; 0x0a
    2a26:	aa 85       	ldd	r26, Y+10	; 0x0a
    2a28:	bb 85       	ldd	r27, Y+11	; 0x0b
    2a2a:	aa 5a       	subi	r26, 0xAA	; 170
    2a2c:	be 4f       	sbci	r27, 0xFE	; 254
    2a2e:	ea 85       	ldd	r30, Y+10	; 0x0a
    2a30:	fb 85       	ldd	r31, Y+11	; 0x0b
    2a32:	e6 0d       	add	r30, r6
    2a34:	f7 1d       	adc	r31, r7
    2a36:	80 81       	ld	r24, Z
    2a38:	91 81       	ldd	r25, Z+1	; 0x01
    2a3a:	11 96       	adiw	r26, 0x01	; 1
    2a3c:	9c 93       	st	X, r25
    2a3e:	8e 93       	st	-X, r24
    2a40:	02 c0       	rjmp	.+4      	; 0x2a46 <SX8723c_auto_offset+0x206>
    2a42:	f1 30       	cpi	r31, 0x01	; 1
    2a44:	e9 f0       	breq	.+58     	; 0x2a80 <SX8723c_auto_offset+0x240>
    2a46:	2d 96       	adiw	r28, 0x0d	; 13
    2a48:	0f b6       	in	r0, 0x3f	; 63
    2a4a:	f8 94       	cli
    2a4c:	de bf       	out	0x3e, r29	; 62
    2a4e:	0f be       	out	0x3f, r0	; 63
    2a50:	cd bf       	out	0x3d, r28	; 61
    2a52:	cf 91       	pop	r28
    2a54:	df 91       	pop	r29
    2a56:	1f 91       	pop	r17
    2a58:	0f 91       	pop	r16
    2a5a:	ff 90       	pop	r15
    2a5c:	ef 90       	pop	r14
    2a5e:	df 90       	pop	r13
    2a60:	cf 90       	pop	r12
    2a62:	bf 90       	pop	r11
    2a64:	af 90       	pop	r10
    2a66:	9f 90       	pop	r9
    2a68:	8f 90       	pop	r8
    2a6a:	7f 90       	pop	r7
    2a6c:	6f 90       	pop	r6
    2a6e:	5f 90       	pop	r5
    2a70:	4f 90       	pop	r4
    2a72:	3f 90       	pop	r3
    2a74:	2f 90       	pop	r2
    2a76:	08 95       	ret
    2a78:	02 e0       	ldi	r16, 0x02	; 2
    2a7a:	15 cf       	rjmp	.-470    	; 0x28a6 <SX8723c_auto_offset+0x66>
    2a7c:	01 e0       	ldi	r16, 0x01	; 1
    2a7e:	13 cf       	rjmp	.-474    	; 0x28a6 <SX8723c_auto_offset+0x66>
    2a80:	00 e0       	ldi	r16, 0x00	; 0
    2a82:	11 cf       	rjmp	.-478    	; 0x28a6 <SX8723c_auto_offset+0x66>
    2a84:	aa 24       	eor	r10, r10
    2a86:	8a 84       	ldd	r8, Y+10	; 0x0a
    2a88:	9b 84       	ldd	r9, Y+11	; 0x0b
    2a8a:	86 0c       	add	r8, r6
    2a8c:	97 1c       	adc	r9, r7
    2a8e:	64 e6       	ldi	r22, 0x64	; 100
    2a90:	26 2e       	mov	r2, r22
    2a92:	31 2c       	mov	r3, r1
    2a94:	41 2c       	mov	r4, r1
    2a96:	51 2c       	mov	r5, r1
    2a98:	a3 94       	inc	r10
    2a9a:	8b 2d       	mov	r24, r11
    2a9c:	66 e5       	ldi	r22, 0x56	; 86
    2a9e:	4a 2d       	mov	r20, r10
    2aa0:	0e 94 b1 07 	call	0xf62	; 0xf62 <sw_TWI_write_single_register>
    2aa4:	8f e0       	ldi	r24, 0x0F	; 15
    2aa6:	97 e2       	ldi	r25, 0x27	; 39
    2aa8:	01 97       	sbiw	r24, 0x01	; 1
    2aaa:	f1 f7       	brne	.-4      	; 0x2aa8 <SX8723c_auto_offset+0x268>
    2aac:	00 c0       	rjmp	.+0      	; 0x2aae <SX8723c_auto_offset+0x26e>
    2aae:	00 00       	nop
    2ab0:	f4 01       	movw	r30, r8
    2ab2:	11 82       	std	Z+1, r1	; 0x01
    2ab4:	10 82       	st	Z, r1
    2ab6:	04 e6       	ldi	r16, 0x64	; 100
    2ab8:	10 e0       	ldi	r17, 0x00	; 0
    2aba:	cc 24       	eor	r12, r12
    2abc:	dd 24       	eor	r13, r13
    2abe:	76 01       	movw	r14, r12
    2ac0:	8b 2d       	mov	r24, r11
    2ac2:	0e 94 18 14 	call	0x2830	; 0x2830 <SX8723c_send_request>
    2ac6:	8b ed       	ldi	r24, 0xDB	; 219
    2ac8:	95 e0       	ldi	r25, 0x05	; 5
    2aca:	01 97       	sbiw	r24, 0x01	; 1
    2acc:	f1 f7       	brne	.-4      	; 0x2aca <SX8723c_auto_offset+0x28a>
    2ace:	00 c0       	rjmp	.+0      	; 0x2ad0 <SX8723c_auto_offset+0x290>
    2ad0:	00 00       	nop
    2ad2:	8b 2d       	mov	r24, r11
    2ad4:	b3 01       	movw	r22, r6
    2ad6:	0e 94 f9 0e 	call	0x1df2	; 0x1df2 <sw_TWI_read_value_registers>
    2ada:	f4 01       	movw	r30, r8
    2adc:	80 81       	ld	r24, Z
    2ade:	91 81       	ldd	r25, Z+1	; 0x01
    2ae0:	aa 27       	eor	r26, r26
    2ae2:	97 fd       	sbrc	r25, 7
    2ae4:	a0 95       	com	r26
    2ae6:	ba 2f       	mov	r27, r26
    2ae8:	c8 0e       	add	r12, r24
    2aea:	d9 1e       	adc	r13, r25
    2aec:	ea 1e       	adc	r14, r26
    2aee:	fb 1e       	adc	r15, r27
    2af0:	11 82       	std	Z+1, r1	; 0x01
    2af2:	10 82       	st	Z, r1
    2af4:	01 50       	subi	r16, 0x01	; 1
    2af6:	10 40       	sbci	r17, 0x00	; 0
    2af8:	19 f7       	brne	.-58     	; 0x2ac0 <SX8723c_auto_offset+0x280>
    2afa:	c7 01       	movw	r24, r14
    2afc:	b6 01       	movw	r22, r12
    2afe:	a2 01       	movw	r20, r4
    2b00:	91 01       	movw	r18, r2
    2b02:	0e 94 18 1a 	call	0x3430	; 0x3430 <__divmodsi4>
    2b06:	c9 01       	movw	r24, r18
    2b08:	f4 01       	movw	r30, r8
    2b0a:	31 83       	std	Z+1, r19	; 0x01
    2b0c:	20 83       	st	Z, r18
    2b0e:	fa 2d       	mov	r31, r10
    2b10:	ff 33       	cpi	r31, 0x3F	; 63
    2b12:	09 f4       	brne	.+2      	; 0x2b16 <SX8723c_auto_offset+0x2d6>
    2b14:	98 cf       	rjmp	.-208    	; 0x2a46 <SX8723c_auto_offset+0x206>
    2b16:	25 ef       	ldi	r18, 0xF5	; 245
    2b18:	80 31       	cpi	r24, 0x10	; 16
    2b1a:	92 07       	cpc	r25, r18
    2b1c:	0c f4       	brge	.+2      	; 0x2b20 <SX8723c_auto_offset+0x2e0>
    2b1e:	bc cf       	rjmp	.-136    	; 0x2a98 <SX8723c_auto_offset+0x258>
    2b20:	8b e0       	ldi	r24, 0x0B	; 11
    2b22:	90 e0       	ldi	r25, 0x00	; 0
    2b24:	2c 85       	ldd	r18, Y+12	; 0x0c
    2b26:	3d 85       	ldd	r19, Y+13	; 0x0d
    2b28:	28 9f       	mul	r18, r24
    2b2a:	f0 01       	movw	r30, r0
    2b2c:	29 9f       	mul	r18, r25
    2b2e:	f0 0d       	add	r31, r0
    2b30:	38 9f       	mul	r19, r24
    2b32:	f0 0d       	add	r31, r0
    2b34:	11 24       	eor	r1, r1
    2b36:	e9 5e       	subi	r30, 0xE9	; 233
    2b38:	fe 4f       	sbci	r31, 0xFE	; 254
    2b3a:	a2 86       	std	Z+10, r10	; 0x0a
    2b3c:	74 cf       	rjmp	.-280    	; 0x2a26 <SX8723c_auto_offset+0x1e6>

00002b3e <SX8723c_sleep>:
    2b3e:	1f 93       	push	r17
    2b40:	18 2f       	mov	r17, r24
    2b42:	5f 9a       	sbi	0x0b, 7	; 11
    2b44:	60 e3       	ldi	r22, 0x30	; 48
    2b46:	40 e0       	ldi	r20, 0x00	; 0
    2b48:	0e 94 b1 07 	call	0xf62	; 0xf62 <sw_TWI_write_single_register>
    2b4c:	81 2f       	mov	r24, r17
    2b4e:	63 e5       	ldi	r22, 0x53	; 83
    2b50:	40 e0       	ldi	r20, 0x00	; 0
    2b52:	0e 94 b1 07 	call	0xf62	; 0xf62 <sw_TWI_write_single_register>
    2b56:	1f 91       	pop	r17
    2b58:	08 95       	ret

00002b5a <SX8723c_start>:
    2b5a:	1f 93       	push	r17
    2b5c:	cf 93       	push	r28
    2b5e:	df 93       	push	r29
    2b60:	18 2f       	mov	r17, r24
    2b62:	84 30       	cpi	r24, 0x04	; 4
    2b64:	91 f1       	breq	.+100    	; 0x2bca <SX8723c_start+0x70>
    2b66:	85 30       	cpi	r24, 0x05	; 5
    2b68:	40 f0       	brcs	.+16     	; 0x2b7a <SX8723c_start+0x20>
    2b6a:	88 30       	cpi	r24, 0x08	; 8
    2b6c:	89 f1       	breq	.+98     	; 0x2bd0 <SX8723c_start+0x76>
    2b6e:	8f 30       	cpi	r24, 0x0F	; 15
    2b70:	49 f1       	breq	.+82     	; 0x2bc4 <SX8723c_start+0x6a>
    2b72:	df 91       	pop	r29
    2b74:	cf 91       	pop	r28
    2b76:	1f 91       	pop	r17
    2b78:	08 95       	ret
    2b7a:	81 30       	cpi	r24, 0x01	; 1
    2b7c:	19 f1       	breq	.+70     	; 0x2bc4 <SX8723c_start+0x6a>
    2b7e:	82 30       	cpi	r24, 0x02	; 2
    2b80:	c1 f7       	brne	.-16     	; 0x2b72 <SX8723c_start+0x18>
    2b82:	21 e0       	ldi	r18, 0x01	; 1
    2b84:	30 e0       	ldi	r19, 0x00	; 0
    2b86:	e9 01       	movw	r28, r18
    2b88:	cc 0f       	add	r28, r28
    2b8a:	dd 1f       	adc	r29, r29
    2b8c:	a9 01       	movw	r20, r18
    2b8e:	44 0f       	add	r20, r20
    2b90:	55 1f       	adc	r21, r21
    2b92:	44 0f       	add	r20, r20
    2b94:	55 1f       	adc	r21, r21
    2b96:	44 0f       	add	r20, r20
    2b98:	55 1f       	adc	r21, r21
    2b9a:	c4 0f       	add	r28, r20
    2b9c:	d5 1f       	adc	r29, r21
    2b9e:	c2 0f       	add	r28, r18
    2ba0:	d3 1f       	adc	r29, r19
    2ba2:	c9 5e       	subi	r28, 0xE9	; 233
    2ba4:	de 4f       	sbci	r29, 0xFE	; 254
    2ba6:	81 2f       	mov	r24, r17
    2ba8:	60 e3       	ldi	r22, 0x30	; 48
    2baa:	4a 81       	ldd	r20, Y+2	; 0x02
    2bac:	0e 94 b1 07 	call	0xf62	; 0xf62 <sw_TWI_write_single_register>
    2bb0:	81 2f       	mov	r24, r17
    2bb2:	63 e5       	ldi	r22, 0x53	; 83
    2bb4:	4f 81       	ldd	r20, Y+7	; 0x07
    2bb6:	0e 94 b1 07 	call	0xf62	; 0xf62 <sw_TWI_write_single_register>
    2bba:	5f 98       	cbi	0x0b, 7	; 11
    2bbc:	df 91       	pop	r29
    2bbe:	cf 91       	pop	r28
    2bc0:	1f 91       	pop	r17
    2bc2:	08 95       	ret
    2bc4:	20 e0       	ldi	r18, 0x00	; 0
    2bc6:	30 e0       	ldi	r19, 0x00	; 0
    2bc8:	de cf       	rjmp	.-68     	; 0x2b86 <SX8723c_start+0x2c>
    2bca:	22 e0       	ldi	r18, 0x02	; 2
    2bcc:	30 e0       	ldi	r19, 0x00	; 0
    2bce:	db cf       	rjmp	.-74     	; 0x2b86 <SX8723c_start+0x2c>
    2bd0:	23 e0       	ldi	r18, 0x03	; 3
    2bd2:	30 e0       	ldi	r19, 0x00	; 0
    2bd4:	d8 cf       	rjmp	.-80     	; 0x2b86 <SX8723c_start+0x2c>

00002bd6 <SX8723c_set_PGA3_offset>:
    2bd6:	ff 92       	push	r15
    2bd8:	0f 93       	push	r16
    2bda:	1f 93       	push	r17
    2bdc:	df 93       	push	r29
    2bde:	cf 93       	push	r28
    2be0:	0f 92       	push	r0
    2be2:	cd b7       	in	r28, 0x3d	; 61
    2be4:	de b7       	in	r29, 0x3e	; 62
    2be6:	18 2f       	mov	r17, r24
    2be8:	f6 2e       	mov	r15, r22
    2bea:	04 2f       	mov	r16, r20
    2bec:	19 82       	std	Y+1, r1	; 0x01
    2bee:	66 e5       	ldi	r22, 0x56	; 86
    2bf0:	ae 01       	movw	r20, r28
    2bf2:	4f 5f       	subi	r20, 0xFF	; 255
    2bf4:	5f 4f       	sbci	r21, 0xFF	; 255
    2bf6:	0e 94 f6 0a 	call	0x15ec	; 0x15ec <sw_TWI_read_single_register>
    2bfa:	4f 2d       	mov	r20, r15
    2bfc:	42 95       	swap	r20
    2bfe:	44 0f       	add	r20, r20
    2c00:	44 0f       	add	r20, r20
    2c02:	40 7c       	andi	r20, 0xC0	; 192
    2c04:	89 81       	ldd	r24, Y+1	; 0x01
    2c06:	80 78       	andi	r24, 0x80	; 128
    2c08:	48 2b       	or	r20, r24
    2c0a:	40 2b       	or	r20, r16
    2c0c:	49 83       	std	Y+1, r20	; 0x01
    2c0e:	81 2f       	mov	r24, r17
    2c10:	66 e5       	ldi	r22, 0x56	; 86
    2c12:	0e 94 b1 07 	call	0xf62	; 0xf62 <sw_TWI_write_single_register>
    2c16:	0f 90       	pop	r0
    2c18:	cf 91       	pop	r28
    2c1a:	df 91       	pop	r29
    2c1c:	1f 91       	pop	r17
    2c1e:	0f 91       	pop	r16
    2c20:	ff 90       	pop	r15
    2c22:	08 95       	ret

00002c24 <send_all_data_rf231>:
    2c24:	8a e4       	ldi	r24, 0x4A	; 74
    2c26:	80 93 80 01 	sts	0x0180, r24
    2c2a:	81 e0       	ldi	r24, 0x01	; 1
    2c2c:	98 e8       	ldi	r25, 0x88	; 136
    2c2e:	90 93 82 01 	sts	0x0182, r25
    2c32:	80 93 81 01 	sts	0x0181, r24
    2c36:	80 91 7e 01 	lds	r24, 0x017E
    2c3a:	90 91 7f 01 	lds	r25, 0x017F
    2c3e:	80 93 83 01 	sts	0x0183, r24
    2c42:	e0 91 04 01 	lds	r30, 0x0104
    2c46:	f0 91 05 01 	lds	r31, 0x0105
    2c4a:	86 a9       	ldd	r24, Z+54	; 0x36
    2c4c:	97 a9       	ldd	r25, Z+55	; 0x37
    2c4e:	90 93 85 01 	sts	0x0185, r25
    2c52:	80 93 84 01 	sts	0x0184, r24
    2c56:	24 a9       	ldd	r18, Z+52	; 0x34
    2c58:	35 a9       	ldd	r19, Z+53	; 0x35
    2c5a:	30 93 87 01 	sts	0x0187, r19
    2c5e:	20 93 86 01 	sts	0x0186, r18
    2c62:	90 93 89 01 	sts	0x0189, r25
    2c66:	80 93 88 01 	sts	0x0188, r24
    2c6a:	82 a9       	ldd	r24, Z+50	; 0x32
    2c6c:	93 a9       	ldd	r25, Z+51	; 0x33
    2c6e:	90 93 8b 01 	sts	0x018B, r25
    2c72:	80 93 8a 01 	sts	0x018A, r24
    2c76:	e0 91 02 01 	lds	r30, 0x0102
    2c7a:	f0 91 03 01 	lds	r31, 0x0103
    2c7e:	80 91 7e 01 	lds	r24, 0x017E
    2c82:	90 91 7f 01 	lds	r25, 0x017F
    2c86:	91 af       	std	Z+57, r25	; 0x39
    2c88:	80 af       	std	Z+56, r24	; 0x38
    2c8a:	01 96       	adiw	r24, 0x01	; 1
    2c8c:	90 93 7f 01 	sts	0x017F, r25
    2c90:	80 93 7e 01 	sts	0x017E, r24
    2c94:	80 91 11 01 	lds	r24, 0x0111
    2c98:	90 91 12 01 	lds	r25, 0x0112
    2c9c:	93 af       	std	Z+59, r25	; 0x3b
    2c9e:	82 af       	std	Z+58, r24	; 0x3a
    2ca0:	80 91 79 00 	lds	r24, 0x0079
    2ca4:	84 af       	std	Z+60, r24	; 0x3c
    2ca6:	0e 94 8c 00 	call	0x118	; 0x118 <at86rf231_tx>
    2caa:	08 95       	ret

00002cac <timer_init>:
    2cac:	10 92 80 00 	sts	0x0080, r1
    2cb0:	89 e0       	ldi	r24, 0x09	; 9
    2cb2:	80 93 81 00 	sts	0x0081, r24
    2cb6:	60 91 54 01 	lds	r22, 0x0154
    2cba:	70 91 55 01 	lds	r23, 0x0155
    2cbe:	80 e0       	ldi	r24, 0x00	; 0
    2cc0:	90 e0       	ldi	r25, 0x00	; 0
    2cc2:	0e 94 67 19 	call	0x32ce	; 0x32ce <__floatunsisf>
    2cc6:	9b 01       	movw	r18, r22
    2cc8:	ac 01       	movw	r20, r24
    2cca:	60 e8       	ldi	r22, 0x80	; 128
    2ccc:	76 e9       	ldi	r23, 0x96	; 150
    2cce:	88 e1       	ldi	r24, 0x18	; 24
    2cd0:	9b e4       	ldi	r25, 0x4B	; 75
    2cd2:	0e 94 d3 18 	call	0x31a6	; 0x31a6 <__divsf3>
    2cd6:	0e 94 3b 19 	call	0x3276	; 0x3276 <__fixunssfsi>
    2cda:	70 93 89 00 	sts	0x0089, r23
    2cde:	60 93 88 00 	sts	0x0088, r22
    2ce2:	10 92 85 00 	sts	0x0085, r1
    2ce6:	10 92 84 00 	sts	0x0084, r1
    2cea:	10 92 8b 00 	sts	0x008B, r1
    2cee:	10 92 8a 00 	sts	0x008A, r1
    2cf2:	10 92 87 00 	sts	0x0087, r1
    2cf6:	10 92 86 00 	sts	0x0086, r1
    2cfa:	82 e0       	ldi	r24, 0x02	; 2
    2cfc:	80 93 6f 00 	sts	0x006F, r24
    2d00:	86 bb       	out	0x16, r24	; 22
    2d02:	08 95       	ret

00002d04 <init_adc>:
    2d04:	87 ea       	ldi	r24, 0xA7	; 167
    2d06:	80 93 7c 00 	sts	0x007C, r24
    2d0a:	85 ee       	ldi	r24, 0xE5	; 229
    2d0c:	80 93 7a 00 	sts	0x007A, r24
    2d10:	10 92 7b 00 	sts	0x007B, r1
    2d14:	08 95       	ret

00002d16 <avr_init>:
    2d16:	85 b7       	in	r24, 0x35	; 53
    2d18:	8f 7e       	andi	r24, 0xEF	; 239
    2d1a:	85 bf       	out	0x35, r24	; 53
    2d1c:	10 92 64 00 	sts	0x0064, r1
    2d20:	80 e8       	ldi	r24, 0x80	; 128
    2d22:	80 93 61 00 	sts	0x0061, r24
    2d26:	10 92 61 00 	sts	0x0061, r1
    2d2a:	11 b8       	out	0x01, r1	; 1
    2d2c:	9f e1       	ldi	r25, 0x1F	; 31
    2d2e:	92 b9       	out	0x02, r25	; 2
    2d30:	91 eb       	ldi	r25, 0xB1	; 177
    2d32:	94 b9       	out	0x04, r25	; 4
    2d34:	90 e5       	ldi	r25, 0x50	; 80
    2d36:	95 b9       	out	0x05, r25	; 5
    2d38:	90 ec       	ldi	r25, 0xC0	; 192
    2d3a:	97 b9       	out	0x07, r25	; 7
    2d3c:	88 b9       	out	0x08, r24	; 8
    2d3e:	80 e9       	ldi	r24, 0x90	; 144
    2d40:	8a b9       	out	0x0a, r24	; 10
    2d42:	8b b9       	out	0x0b, r24	; 11
    2d44:	54 9a       	sbi	0x0a, 4	; 10
    2d46:	5c 9a       	sbi	0x0b, 4	; 11
    2d48:	80 91 04 01 	lds	r24, 0x0104
    2d4c:	90 91 05 01 	lds	r25, 0x0105
    2d50:	0e 94 87 03 	call	0x70e	; 0x70e <eeprom_read_config>
    2d54:	80 91 52 01 	lds	r24, 0x0152
    2d58:	90 91 53 01 	lds	r25, 0x0153
    2d5c:	00 97       	sbiw	r24, 0x00	; 0
    2d5e:	01 f1       	breq	.+64     	; 0x2da0 <avr_init+0x8a>
    2d60:	81 e0       	ldi	r24, 0x01	; 1
    2d62:	80 93 01 01 	sts	0x0101, r24
    2d66:	0e 94 41 03 	call	0x682	; 0x682 <ds620_init>
    2d6a:	82 e8       	ldi	r24, 0x82	; 130
    2d6c:	80 bf       	out	0x30, r24	; 48
    2d6e:	0e 94 56 16 	call	0x2cac	; 0x2cac <timer_init>
    2d72:	0e 94 82 16 	call	0x2d04	; 0x2d04 <init_adc>
    2d76:	0e 94 c7 01 	call	0x38e	; 0x38e <at86rf231_init>
    2d7a:	87 ea       	ldi	r24, 0xA7	; 167
    2d7c:	91 e6       	ldi	r25, 0x61	; 97
    2d7e:	01 97       	sbiw	r24, 0x01	; 1
    2d80:	f1 f7       	brne	.-4      	; 0x2d7e <avr_init+0x68>
    2d82:	00 c0       	rjmp	.+0      	; 0x2d84 <avr_init+0x6e>
    2d84:	00 00       	nop
    2d86:	81 e0       	ldi	r24, 0x01	; 1
    2d88:	0e 94 91 13 	call	0x2722	; 0x2722 <SX8723c_init>
    2d8c:	82 e0       	ldi	r24, 0x02	; 2
    2d8e:	0e 94 91 13 	call	0x2722	; 0x2722 <SX8723c_init>
    2d92:	84 e0       	ldi	r24, 0x04	; 4
    2d94:	0e 94 91 13 	call	0x2722	; 0x2722 <SX8723c_init>
    2d98:	88 e0       	ldi	r24, 0x08	; 8
    2d9a:	0e 94 91 13 	call	0x2722	; 0x2722 <SX8723c_init>
    2d9e:	08 95       	ret
    2da0:	10 92 01 01 	sts	0x0101, r1
    2da4:	e0 cf       	rjmp	.-64     	; 0x2d66 <avr_init+0x50>

00002da6 <set_sleep>:
    2da6:	f8 94       	cli
    2da8:	e1 e6       	ldi	r30, 0x61	; 97
    2daa:	f0 e0       	ldi	r31, 0x00	; 0
    2dac:	80 e8       	ldi	r24, 0x80	; 128
    2dae:	80 83       	st	Z, r24
    2db0:	83 e0       	ldi	r24, 0x03	; 3
    2db2:	80 83       	st	Z, r24
    2db4:	8e ef       	ldi	r24, 0xFE	; 254
    2db6:	80 93 64 00 	sts	0x0064, r24
    2dba:	8a e1       	ldi	r24, 0x1A	; 26
    2dbc:	80 bf       	out	0x30, r24	; 48
    2dbe:	83 b7       	in	r24, 0x33	; 51
    2dc0:	81 7f       	andi	r24, 0xF1	; 241
    2dc2:	83 bf       	out	0x33, r24	; 51
    2dc4:	83 b7       	in	r24, 0x33	; 51
    2dc6:	81 60       	ori	r24, 0x01	; 1
    2dc8:	83 bf       	out	0x33, r24	; 51
    2dca:	78 94       	sei
    2dcc:	88 95       	sleep
    2dce:	83 b7       	in	r24, 0x33	; 51
    2dd0:	8e 7f       	andi	r24, 0xFE	; 254
    2dd2:	83 bf       	out	0x33, r24	; 51
    2dd4:	08 95       	ret

00002dd6 <main>:
    2dd6:	2f 92       	push	r2
    2dd8:	3f 92       	push	r3
    2dda:	4f 92       	push	r4
    2ddc:	5f 92       	push	r5
    2dde:	6f 92       	push	r6
    2de0:	7f 92       	push	r7
    2de2:	8f 92       	push	r8
    2de4:	9f 92       	push	r9
    2de6:	af 92       	push	r10
    2de8:	bf 92       	push	r11
    2dea:	cf 92       	push	r12
    2dec:	df 92       	push	r13
    2dee:	ef 92       	push	r14
    2df0:	ff 92       	push	r15
    2df2:	0f 93       	push	r16
    2df4:	1f 93       	push	r17
    2df6:	df 93       	push	r29
    2df8:	cf 93       	push	r28
    2dfa:	cd b7       	in	r28, 0x3d	; 61
    2dfc:	de b7       	in	r29, 0x3e	; 62
    2dfe:	28 97       	sbiw	r28, 0x08	; 8
    2e00:	0f b6       	in	r0, 0x3f	; 63
    2e02:	f8 94       	cli
    2e04:	de bf       	out	0x3e, r29	; 62
    2e06:	0f be       	out	0x3f, r0	; 63
    2e08:	cd bf       	out	0x3d, r28	; 61
    2e0a:	f8 94       	cli
    2e0c:	0e 94 8b 16 	call	0x2d16	; 0x2d16 <avr_init>
    2e10:	6e 01       	movw	r12, r28
    2e12:	08 94       	sec
    2e14:	c1 1c       	adc	r12, r1
    2e16:	d1 1c       	adc	r13, r1
    2e18:	88 e0       	ldi	r24, 0x08	; 8
    2e1a:	d6 01       	movw	r26, r12
    2e1c:	1d 92       	st	X+, r1
    2e1e:	8a 95       	dec	r24
    2e20:	e9 f7       	brne	.-6      	; 0x2e1c <main+0x46>
    2e22:	10 92 16 01 	sts	0x0116, r1
    2e26:	12 e0       	ldi	r17, 0x02	; 2
    2e28:	ff 24       	eor	r15, r15
    2e2a:	f3 94       	inc	r15
    2e2c:	04 e0       	ldi	r16, 0x04	; 4
    2e2e:	ab e0       	ldi	r26, 0x0B	; 11
    2e30:	aa 2e       	mov	r10, r26
    2e32:	b1 2c       	mov	r11, r1
    2e34:	f6 e1       	ldi	r31, 0x16	; 22
    2e36:	8f 2e       	mov	r8, r31
    2e38:	91 2c       	mov	r9, r1
    2e3a:	e1 e2       	ldi	r30, 0x21	; 33
    2e3c:	6e 2e       	mov	r6, r30
    2e3e:	71 2c       	mov	r7, r1
    2e40:	7c e2       	ldi	r23, 0x2C	; 44
    2e42:	47 2e       	mov	r4, r23
    2e44:	51 2c       	mov	r5, r1
    2e46:	65 e0       	ldi	r22, 0x05	; 5
    2e48:	26 2e       	mov	r2, r22
    2e4a:	57 e0       	ldi	r21, 0x07	; 7
    2e4c:	35 2e       	mov	r3, r21
    2e4e:	49 e0       	ldi	r20, 0x09	; 9
    2e50:	e4 2e       	mov	r14, r20
    2e52:	80 91 16 01 	lds	r24, 0x0116
    2e56:	83 30       	cpi	r24, 0x03	; 3
    2e58:	79 f0       	breq	.+30     	; 0x2e78 <main+0xa2>
    2e5a:	84 30       	cpi	r24, 0x04	; 4
    2e5c:	20 f5       	brcc	.+72     	; 0x2ea6 <main+0xd0>
    2e5e:	81 30       	cpi	r24, 0x01	; 1
    2e60:	09 f4       	brne	.+2      	; 0x2e64 <main+0x8e>
    2e62:	59 c0       	rjmp	.+178    	; 0x2f16 <main+0x140>
    2e64:	82 30       	cpi	r24, 0x02	; 2
    2e66:	80 f1       	brcs	.+96     	; 0x2ec8 <main+0xf2>
    2e68:	4d 9b       	sbis	0x09, 5	; 9
    2e6a:	92 c0       	rjmp	.+292    	; 0x2f90 <main+0x1ba>
    2e6c:	f0 92 16 01 	sts	0x0116, r15
    2e70:	80 91 16 01 	lds	r24, 0x0116
    2e74:	83 30       	cpi	r24, 0x03	; 3
    2e76:	89 f7       	brne	.-30     	; 0x2e5a <main+0x84>
    2e78:	f8 94       	cli
    2e7a:	0e 94 5e 03 	call	0x6bc	; 0x6bc <ds620_start_convert>
    2e7e:	8f e0       	ldi	r24, 0x0F	; 15
    2e80:	0e 94 ad 15 	call	0x2b5a	; 0x2b5a <SX8723c_start>
    2e84:	10 92 0f 01 	sts	0x010F, r1
    2e88:	10 92 0b 01 	sts	0x010B, r1
    2e8c:	10 92 0c 01 	sts	0x010C, r1
    2e90:	10 92 0d 01 	sts	0x010D, r1
    2e94:	10 92 0e 01 	sts	0x010E, r1
    2e98:	e0 92 81 00 	sts	0x0081, r14
    2e9c:	16 bb       	out	0x16, r17	; 22
    2e9e:	78 94       	sei
    2ea0:	00 93 16 01 	sts	0x0116, r16
    2ea4:	d6 cf       	rjmp	.-84     	; 0x2e52 <main+0x7c>
    2ea6:	85 30       	cpi	r24, 0x05	; 5
    2ea8:	79 f0       	breq	.+30     	; 0x2ec8 <main+0xf2>
    2eaa:	85 30       	cpi	r24, 0x05	; 5
    2eac:	d0 f4       	brcc	.+52     	; 0x2ee2 <main+0x10c>
    2eae:	80 91 10 01 	lds	r24, 0x0110
    2eb2:	88 23       	and	r24, r24
    2eb4:	09 f0       	breq	.+2      	; 0x2eb8 <main+0xe2>
    2eb6:	84 c0       	rjmp	.+264    	; 0x2fc0 <main+0x1ea>
    2eb8:	80 91 01 01 	lds	r24, 0x0101
    2ebc:	81 30       	cpi	r24, 0x01	; 1
    2ebe:	09 f4       	brne	.+2      	; 0x2ec2 <main+0xec>
    2ec0:	cd c0       	rjmp	.+410    	; 0x305c <main+0x286>
    2ec2:	00 93 16 01 	sts	0x0116, r16
    2ec6:	c5 cf       	rjmp	.-118    	; 0x2e52 <main+0x7c>
    2ec8:	10 92 81 00 	sts	0x0081, r1
    2ecc:	16 bb       	out	0x16, r17	; 22
    2ece:	8f e0       	ldi	r24, 0x0F	; 15
    2ed0:	0e 94 9f 15 	call	0x2b3e	; 0x2b3e <SX8723c_sleep>
    2ed4:	0e 94 55 03 	call	0x6aa	; 0x6aa <ds620_stop_convert>
    2ed8:	10 92 7a 00 	sts	0x007A, r1
    2edc:	0e 94 74 00 	call	0xe8	; 0xe8 <at86rf231_sleep>
    2ee0:	c5 cf       	rjmp	.-118    	; 0x2e6c <main+0x96>
    2ee2:	86 30       	cpi	r24, 0x06	; 6
    2ee4:	79 f0       	breq	.+30     	; 0x2f04 <main+0x12e>
    2ee6:	87 30       	cpi	r24, 0x07	; 7
    2ee8:	09 f0       	breq	.+2      	; 0x2eec <main+0x116>
    2eea:	b3 cf       	rjmp	.-154    	; 0x2e52 <main+0x7c>
    2eec:	8f e7       	ldi	r24, 0x7F	; 127
    2eee:	98 e3       	ldi	r25, 0x38	; 56
    2ef0:	a1 e0       	ldi	r26, 0x01	; 1
    2ef2:	81 50       	subi	r24, 0x01	; 1
    2ef4:	90 40       	sbci	r25, 0x00	; 0
    2ef6:	a0 40       	sbci	r26, 0x00	; 0
    2ef8:	e1 f7       	brne	.-8      	; 0x2ef2 <main+0x11c>
    2efa:	00 c0       	rjmp	.+0      	; 0x2efc <main+0x126>
    2efc:	00 00       	nop
    2efe:	0e 94 51 05 	call	0xaa2	; 0xaa2 <pm_config_protocol>
    2f02:	df cf       	rjmp	.-66     	; 0x2ec2 <main+0xec>
    2f04:	0e 94 12 16 	call	0x2c24	; 0x2c24 <send_all_data_rf231>
    2f08:	80 91 0b 02 	lds	r24, 0x020B
    2f0c:	88 23       	and	r24, r24
    2f0e:	41 f0       	breq	.+16     	; 0x2f20 <main+0x14a>
    2f10:	30 92 16 01 	sts	0x0116, r3
    2f14:	9e cf       	rjmp	.-196    	; 0x2e52 <main+0x7c>
    2f16:	0e 94 d3 16 	call	0x2da6	; 0x2da6 <set_sleep>
    2f1a:	10 93 16 01 	sts	0x0116, r17
    2f1e:	99 cf       	rjmp	.-206    	; 0x2e52 <main+0x7c>
    2f20:	4d 99       	sbic	0x09, 5	; 9
    2f22:	33 c0       	rjmp	.+102    	; 0x2f8a <main+0x1b4>
    2f24:	20 91 54 01 	lds	r18, 0x0154
    2f28:	30 91 55 01 	lds	r19, 0x0155
    2f2c:	40 91 52 01 	lds	r20, 0x0152
    2f30:	50 91 53 01 	lds	r21, 0x0153
    2f34:	0e 94 f5 19 	call	0x33ea	; 0x33ea <__umulhisi3>
    2f38:	9b 01       	movw	r18, r22
    2f3a:	ac 01       	movw	r20, r24
    2f3c:	80 91 0b 01 	lds	r24, 0x010B
    2f40:	90 91 0c 01 	lds	r25, 0x010C
    2f44:	a0 91 0d 01 	lds	r26, 0x010D
    2f48:	b0 91 0e 01 	lds	r27, 0x010E
    2f4c:	28 17       	cp	r18, r24
    2f4e:	39 07       	cpc	r19, r25
    2f50:	4a 07       	cpc	r20, r26
    2f52:	5b 07       	cpc	r21, r27
    2f54:	78 f4       	brcc	.+30     	; 0x2f74 <main+0x19e>
    2f56:	80 91 01 01 	lds	r24, 0x0101
    2f5a:	88 23       	and	r24, r24
    2f5c:	59 f0       	breq	.+22     	; 0x2f74 <main+0x19e>
    2f5e:	10 92 0b 01 	sts	0x010B, r1
    2f62:	10 92 0c 01 	sts	0x010C, r1
    2f66:	10 92 0d 01 	sts	0x010D, r1
    2f6a:	10 92 0e 01 	sts	0x010E, r1
    2f6e:	20 92 16 01 	sts	0x0116, r2
    2f72:	6f cf       	rjmp	.-290    	; 0x2e52 <main+0x7c>
    2f74:	80 91 79 00 	lds	r24, 0x0079
    2f78:	8c 3a       	cpi	r24, 0xAC	; 172
    2f7a:	38 f0       	brcs	.+14     	; 0x2f8a <main+0x1b4>
    2f7c:	80 91 13 01 	lds	r24, 0x0113
    2f80:	88 23       	and	r24, r24
    2f82:	09 f4       	brne	.+2      	; 0x2f86 <main+0x1b0>
    2f84:	9e cf       	rjmp	.-196    	; 0x2ec2 <main+0xec>
    2f86:	10 92 13 01 	sts	0x0113, r1
    2f8a:	20 92 16 01 	sts	0x0116, r2
    2f8e:	61 cf       	rjmp	.-318    	; 0x2e52 <main+0x7c>
    2f90:	10 92 64 00 	sts	0x0064, r1
    2f94:	0e 94 82 16 	call	0x2d04	; 0x2d04 <init_adc>
    2f98:	e3 ec       	ldi	r30, 0xC3	; 195
    2f9a:	f9 e0       	ldi	r31, 0x09	; 9
    2f9c:	31 97       	sbiw	r30, 0x01	; 1
    2f9e:	f1 f7       	brne	.-4      	; 0x2f9c <main+0x1c6>
    2fa0:	00 c0       	rjmp	.+0      	; 0x2fa2 <main+0x1cc>
    2fa2:	00 00       	nop
    2fa4:	80 91 79 00 	lds	r24, 0x0079
    2fa8:	8e 3a       	cpi	r24, 0xAE	; 174
    2faa:	08 f4       	brcc	.+2      	; 0x2fae <main+0x1d8>
    2fac:	5f cf       	rjmp	.-322    	; 0x2e6c <main+0x96>
    2fae:	f0 e8       	ldi	r31, 0x80	; 128
    2fb0:	f0 93 61 00 	sts	0x0061, r31
    2fb4:	10 92 61 00 	sts	0x0061, r1
    2fb8:	83 e0       	ldi	r24, 0x03	; 3
    2fba:	80 93 16 01 	sts	0x0116, r24
    2fbe:	49 cf       	rjmp	.-366    	; 0x2e52 <main+0x7c>
    2fc0:	10 92 10 01 	sts	0x0110, r1
    2fc4:	80 91 0b 01 	lds	r24, 0x010B
    2fc8:	90 91 0c 01 	lds	r25, 0x010C
    2fcc:	a0 91 0d 01 	lds	r26, 0x010D
    2fd0:	b0 91 0e 01 	lds	r27, 0x010E
    2fd4:	01 96       	adiw	r24, 0x01	; 1
    2fd6:	a1 1d       	adc	r26, r1
    2fd8:	b1 1d       	adc	r27, r1
    2fda:	80 93 0b 01 	sts	0x010B, r24
    2fde:	90 93 0c 01 	sts	0x010C, r25
    2fe2:	a0 93 0d 01 	sts	0x010D, r26
    2fe6:	b0 93 0e 01 	sts	0x010E, r27
    2fea:	80 91 14 01 	lds	r24, 0x0114
    2fee:	90 91 15 01 	lds	r25, 0x0115
    2ff2:	01 96       	adiw	r24, 0x01	; 1
    2ff4:	90 93 15 01 	sts	0x0115, r25
    2ff8:	80 93 14 01 	sts	0x0114, r24
    2ffc:	5c 98       	cbi	0x0b, 4	; 11
    2ffe:	8f e0       	ldi	r24, 0x0F	; 15
    3000:	0e 94 18 14 	call	0x2830	; 0x2830 <SX8723c_send_request>
    3004:	8f e0       	ldi	r24, 0x0F	; 15
    3006:	b6 01       	movw	r22, r12
    3008:	0e 94 15 14 	call	0x282a	; 0x282a <SX8723c_get_value>
    300c:	5c 9a       	sbi	0x0b, 4	; 11
    300e:	e0 91 02 01 	lds	r30, 0x0102
    3012:	f0 91 03 01 	lds	r31, 0x0103
    3016:	20 91 0f 01 	lds	r18, 0x010F
    301a:	82 2f       	mov	r24, r18
    301c:	90 e0       	ldi	r25, 0x00	; 0
    301e:	88 0f       	add	r24, r24
    3020:	99 1f       	adc	r25, r25
    3022:	88 0f       	add	r24, r24
    3024:	99 1f       	adc	r25, r25
    3026:	88 0f       	add	r24, r24
    3028:	99 1f       	adc	r25, r25
    302a:	e8 0f       	add	r30, r24
    302c:	f9 1f       	adc	r31, r25
    302e:	b1 82       	std	Z+1, r11	; 0x01
    3030:	a0 82       	st	Z, r10
    3032:	93 82       	std	Z+3, r9	; 0x03
    3034:	82 82       	std	Z+2, r8	; 0x02
    3036:	75 82       	std	Z+5, r7	; 0x05
    3038:	64 82       	std	Z+4, r6	; 0x04
    303a:	57 82       	std	Z+7, r5	; 0x07
    303c:	46 82       	std	Z+6, r4	; 0x06
    303e:	82 2f       	mov	r24, r18
    3040:	8f 5f       	subi	r24, 0xFF	; 255
    3042:	80 93 0f 01 	sts	0x010F, r24
    3046:	83 30       	cpi	r24, 0x03	; 3
    3048:	a9 f0       	breq	.+42     	; 0x3074 <main+0x29e>
    304a:	87 30       	cpi	r24, 0x07	; 7
    304c:	08 f4       	brcc	.+2      	; 0x3050 <main+0x27a>
    304e:	34 cf       	rjmp	.-408    	; 0x2eb8 <main+0xe2>
    3050:	10 92 0f 01 	sts	0x010F, r1
    3054:	96 e0       	ldi	r25, 0x06	; 6
    3056:	90 93 16 01 	sts	0x0116, r25
    305a:	fb ce       	rjmp	.-522    	; 0x2e52 <main+0x7c>
    305c:	00 b6       	in	r0, 0x30	; 48
    305e:	05 fc       	sbrc	r0, 5
    3060:	30 cf       	rjmp	.-416    	; 0x2ec2 <main+0xec>
    3062:	10 92 0b 01 	sts	0x010B, r1
    3066:	10 92 0c 01 	sts	0x010C, r1
    306a:	10 92 0d 01 	sts	0x010D, r1
    306e:	10 92 0e 01 	sts	0x010E, r1
    3072:	27 cf       	rjmp	.-434    	; 0x2ec2 <main+0xec>
    3074:	80 91 54 01 	lds	r24, 0x0154
    3078:	90 91 55 01 	lds	r25, 0x0155
    307c:	65 e0       	ldi	r22, 0x05	; 5
    307e:	70 e0       	ldi	r23, 0x00	; 0
    3080:	0e 94 04 1a 	call	0x3408	; 0x3408 <__udivmodhi4>
    3084:	80 91 14 01 	lds	r24, 0x0114
    3088:	90 91 15 01 	lds	r25, 0x0115
    308c:	86 17       	cp	r24, r22
    308e:	97 07       	cpc	r25, r23
    3090:	08 f4       	brcc	.+2      	; 0x3094 <main+0x2be>
    3092:	12 cf       	rjmp	.-476    	; 0x2eb8 <main+0xe2>
    3094:	0e 94 67 03 	call	0x6ce	; 0x6ce <ds620_get_temperature>
    3098:	90 93 12 01 	sts	0x0112, r25
    309c:	80 93 11 01 	sts	0x0111, r24
    30a0:	10 92 15 01 	sts	0x0115, r1
    30a4:	10 92 14 01 	sts	0x0114, r1
    30a8:	80 91 0f 01 	lds	r24, 0x010F
    30ac:	ce cf       	rjmp	.-100    	; 0x304a <main+0x274>

000030ae <LED_blink>:
    30ae:	23 e0       	ldi	r18, 0x03	; 3
    30b0:	5c 98       	cbi	0x0b, 4	; 11
    30b2:	31 e0       	ldi	r19, 0x01	; 1
    30b4:	84 3f       	cpi	r24, 0xF4	; 244
    30b6:	93 07       	cpc	r25, r19
    30b8:	89 f1       	breq	.+98     	; 0x311c <LED_blink+0x6e>
    30ba:	43 e0       	ldi	r20, 0x03	; 3
    30bc:	88 3e       	cpi	r24, 0xE8	; 232
    30be:	94 07       	cpc	r25, r20
    30c0:	99 f0       	breq	.+38     	; 0x30e8 <LED_blink+0x3a>
    30c2:	8a 3f       	cpi	r24, 0xFA	; 250
    30c4:	91 05       	cpc	r25, r1
    30c6:	09 f4       	brne	.+2      	; 0x30ca <LED_blink+0x1c>
    30c8:	3d c0       	rjmp	.+122    	; 0x3144 <LED_blink+0x96>
    30ca:	5c 9a       	sbi	0x0b, 4	; 11
    30cc:	51 e0       	ldi	r21, 0x01	; 1
    30ce:	84 3f       	cpi	r24, 0xF4	; 244
    30d0:	95 07       	cpc	r25, r21
    30d2:	71 f1       	breq	.+92     	; 0x3130 <LED_blink+0x82>
    30d4:	63 e0       	ldi	r22, 0x03	; 3
    30d6:	88 3e       	cpi	r24, 0xE8	; 232
    30d8:	96 07       	cpc	r25, r22
    30da:	81 f0       	breq	.+32     	; 0x30fc <LED_blink+0x4e>
    30dc:	8a 3f       	cpi	r24, 0xFA	; 250
    30de:	91 05       	cpc	r25, r1
    30e0:	d9 f1       	breq	.+118    	; 0x3158 <LED_blink+0xaa>
    30e2:	21 50       	subi	r18, 0x01	; 1
    30e4:	29 f7       	brne	.-54     	; 0x30b0 <LED_blink+0x2>
    30e6:	08 95       	ret
    30e8:	4f e7       	ldi	r20, 0x7F	; 127
    30ea:	54 e8       	ldi	r21, 0x84	; 132
    30ec:	6e e1       	ldi	r22, 0x1E	; 30
    30ee:	41 50       	subi	r20, 0x01	; 1
    30f0:	50 40       	sbci	r21, 0x00	; 0
    30f2:	60 40       	sbci	r22, 0x00	; 0
    30f4:	e1 f7       	brne	.-8      	; 0x30ee <LED_blink+0x40>
    30f6:	00 c0       	rjmp	.+0      	; 0x30f8 <LED_blink+0x4a>
    30f8:	00 00       	nop
    30fa:	5c 9a       	sbi	0x0b, 4	; 11
    30fc:	4f e7       	ldi	r20, 0x7F	; 127
    30fe:	54 e8       	ldi	r21, 0x84	; 132
    3100:	6e e1       	ldi	r22, 0x1E	; 30
    3102:	41 50       	subi	r20, 0x01	; 1
    3104:	50 40       	sbci	r21, 0x00	; 0
    3106:	60 40       	sbci	r22, 0x00	; 0
    3108:	e1 f7       	brne	.-8      	; 0x3102 <LED_blink+0x54>
    310a:	00 c0       	rjmp	.+0      	; 0x310c <LED_blink+0x5e>
    310c:	00 00       	nop
    310e:	21 50       	subi	r18, 0x01	; 1
    3110:	51 f3       	breq	.-44     	; 0x30e6 <LED_blink+0x38>
    3112:	5c 98       	cbi	0x0b, 4	; 11
    3114:	31 e0       	ldi	r19, 0x01	; 1
    3116:	84 3f       	cpi	r24, 0xF4	; 244
    3118:	93 07       	cpc	r25, r19
    311a:	79 f6       	brne	.-98     	; 0x30ba <LED_blink+0xc>
    311c:	4f e3       	ldi	r20, 0x3F	; 63
    311e:	52 e4       	ldi	r21, 0x42	; 66
    3120:	6f e0       	ldi	r22, 0x0F	; 15
    3122:	41 50       	subi	r20, 0x01	; 1
    3124:	50 40       	sbci	r21, 0x00	; 0
    3126:	60 40       	sbci	r22, 0x00	; 0
    3128:	e1 f7       	brne	.-8      	; 0x3122 <LED_blink+0x74>
    312a:	00 c0       	rjmp	.+0      	; 0x312c <LED_blink+0x7e>
    312c:	00 00       	nop
    312e:	5c 9a       	sbi	0x0b, 4	; 11
    3130:	4f e3       	ldi	r20, 0x3F	; 63
    3132:	52 e4       	ldi	r21, 0x42	; 66
    3134:	6f e0       	ldi	r22, 0x0F	; 15
    3136:	41 50       	subi	r20, 0x01	; 1
    3138:	50 40       	sbci	r21, 0x00	; 0
    313a:	60 40       	sbci	r22, 0x00	; 0
    313c:	e1 f7       	brne	.-8      	; 0x3136 <LED_blink+0x88>
    313e:	00 c0       	rjmp	.+0      	; 0x3140 <LED_blink+0x92>
    3140:	00 00       	nop
    3142:	e5 cf       	rjmp	.-54     	; 0x310e <LED_blink+0x60>
    3144:	4f e1       	ldi	r20, 0x1F	; 31
    3146:	51 ea       	ldi	r21, 0xA1	; 161
    3148:	67 e0       	ldi	r22, 0x07	; 7
    314a:	41 50       	subi	r20, 0x01	; 1
    314c:	50 40       	sbci	r21, 0x00	; 0
    314e:	60 40       	sbci	r22, 0x00	; 0
    3150:	e1 f7       	brne	.-8      	; 0x314a <LED_blink+0x9c>
    3152:	00 c0       	rjmp	.+0      	; 0x3154 <LED_blink+0xa6>
    3154:	00 00       	nop
    3156:	5c 9a       	sbi	0x0b, 4	; 11
    3158:	4f e1       	ldi	r20, 0x1F	; 31
    315a:	51 ea       	ldi	r21, 0xA1	; 161
    315c:	67 e0       	ldi	r22, 0x07	; 7
    315e:	41 50       	subi	r20, 0x01	; 1
    3160:	50 40       	sbci	r21, 0x00	; 0
    3162:	60 40       	sbci	r22, 0x00	; 0
    3164:	e1 f7       	brne	.-8      	; 0x315e <LED_blink+0xb0>
    3166:	00 c0       	rjmp	.+0      	; 0x3168 <LED_blink+0xba>
    3168:	00 00       	nop
    316a:	d1 cf       	rjmp	.-94     	; 0x310e <LED_blink+0x60>

0000316c <__vector_13>:
    316c:	1f 92       	push	r1
    316e:	0f 92       	push	r0
    3170:	0f b6       	in	r0, 0x3f	; 63
    3172:	0f 92       	push	r0
    3174:	11 24       	eor	r1, r1
    3176:	8f 93       	push	r24
    3178:	81 e0       	ldi	r24, 0x01	; 1
    317a:	80 93 10 01 	sts	0x0110, r24
    317e:	8f 91       	pop	r24
    3180:	0f 90       	pop	r0
    3182:	0f be       	out	0x3f, r0	; 63
    3184:	0f 90       	pop	r0
    3186:	1f 90       	pop	r1
    3188:	18 95       	reti

0000318a <__vector_23>:
    318a:	1f 92       	push	r1
    318c:	0f 92       	push	r0
    318e:	0f b6       	in	r0, 0x3f	; 63
    3190:	0f 92       	push	r0
    3192:	11 24       	eor	r1, r1
    3194:	8f 93       	push	r24
    3196:	82 e1       	ldi	r24, 0x12	; 18
    3198:	80 bf       	out	0x30, r24	; 48
    319a:	8f 91       	pop	r24
    319c:	0f 90       	pop	r0
    319e:	0f be       	out	0x3f, r0	; 63
    31a0:	0f 90       	pop	r0
    31a2:	1f 90       	pop	r1
    31a4:	18 95       	reti

000031a6 <__divsf3>:
    31a6:	0c d0       	rcall	.+24     	; 0x31c0 <__divsf3x>
    31a8:	e6 c0       	rjmp	.+460    	; 0x3376 <__fp_round>
    31aa:	de d0       	rcall	.+444    	; 0x3368 <__fp_pscB>
    31ac:	40 f0       	brcs	.+16     	; 0x31be <__divsf3+0x18>
    31ae:	d5 d0       	rcall	.+426    	; 0x335a <__fp_pscA>
    31b0:	30 f0       	brcs	.+12     	; 0x31be <__divsf3+0x18>
    31b2:	21 f4       	brne	.+8      	; 0x31bc <__divsf3+0x16>
    31b4:	5f 3f       	cpi	r21, 0xFF	; 255
    31b6:	19 f0       	breq	.+6      	; 0x31be <__divsf3+0x18>
    31b8:	c7 c0       	rjmp	.+398    	; 0x3348 <__fp_inf>
    31ba:	51 11       	cpse	r21, r1
    31bc:	10 c1       	rjmp	.+544    	; 0x33de <__fp_szero>
    31be:	ca c0       	rjmp	.+404    	; 0x3354 <__fp_nan>

000031c0 <__divsf3x>:
    31c0:	eb d0       	rcall	.+470    	; 0x3398 <__fp_split3>
    31c2:	98 f3       	brcs	.-26     	; 0x31aa <__divsf3+0x4>

000031c4 <__divsf3_pse>:
    31c4:	99 23       	and	r25, r25
    31c6:	c9 f3       	breq	.-14     	; 0x31ba <__divsf3+0x14>
    31c8:	55 23       	and	r21, r21
    31ca:	b1 f3       	breq	.-20     	; 0x31b8 <__divsf3+0x12>
    31cc:	95 1b       	sub	r25, r21
    31ce:	55 0b       	sbc	r21, r21
    31d0:	bb 27       	eor	r27, r27
    31d2:	aa 27       	eor	r26, r26
    31d4:	62 17       	cp	r22, r18
    31d6:	73 07       	cpc	r23, r19
    31d8:	84 07       	cpc	r24, r20
    31da:	38 f0       	brcs	.+14     	; 0x31ea <__divsf3_pse+0x26>
    31dc:	9f 5f       	subi	r25, 0xFF	; 255
    31de:	5f 4f       	sbci	r21, 0xFF	; 255
    31e0:	22 0f       	add	r18, r18
    31e2:	33 1f       	adc	r19, r19
    31e4:	44 1f       	adc	r20, r20
    31e6:	aa 1f       	adc	r26, r26
    31e8:	a9 f3       	breq	.-22     	; 0x31d4 <__divsf3_pse+0x10>
    31ea:	33 d0       	rcall	.+102    	; 0x3252 <__divsf3_pse+0x8e>
    31ec:	0e 2e       	mov	r0, r30
    31ee:	3a f0       	brmi	.+14     	; 0x31fe <__divsf3_pse+0x3a>
    31f0:	e0 e8       	ldi	r30, 0x80	; 128
    31f2:	30 d0       	rcall	.+96     	; 0x3254 <__divsf3_pse+0x90>
    31f4:	91 50       	subi	r25, 0x01	; 1
    31f6:	50 40       	sbci	r21, 0x00	; 0
    31f8:	e6 95       	lsr	r30
    31fa:	00 1c       	adc	r0, r0
    31fc:	ca f7       	brpl	.-14     	; 0x31f0 <__divsf3_pse+0x2c>
    31fe:	29 d0       	rcall	.+82     	; 0x3252 <__divsf3_pse+0x8e>
    3200:	fe 2f       	mov	r31, r30
    3202:	27 d0       	rcall	.+78     	; 0x3252 <__divsf3_pse+0x8e>
    3204:	66 0f       	add	r22, r22
    3206:	77 1f       	adc	r23, r23
    3208:	88 1f       	adc	r24, r24
    320a:	bb 1f       	adc	r27, r27
    320c:	26 17       	cp	r18, r22
    320e:	37 07       	cpc	r19, r23
    3210:	48 07       	cpc	r20, r24
    3212:	ab 07       	cpc	r26, r27
    3214:	b0 e8       	ldi	r27, 0x80	; 128
    3216:	09 f0       	breq	.+2      	; 0x321a <__divsf3_pse+0x56>
    3218:	bb 0b       	sbc	r27, r27
    321a:	80 2d       	mov	r24, r0
    321c:	bf 01       	movw	r22, r30
    321e:	ff 27       	eor	r31, r31
    3220:	93 58       	subi	r25, 0x83	; 131
    3222:	5f 4f       	sbci	r21, 0xFF	; 255
    3224:	2a f0       	brmi	.+10     	; 0x3230 <__divsf3_pse+0x6c>
    3226:	9e 3f       	cpi	r25, 0xFE	; 254
    3228:	51 05       	cpc	r21, r1
    322a:	68 f0       	brcs	.+26     	; 0x3246 <__divsf3_pse+0x82>
    322c:	8d c0       	rjmp	.+282    	; 0x3348 <__fp_inf>
    322e:	d7 c0       	rjmp	.+430    	; 0x33de <__fp_szero>
    3230:	5f 3f       	cpi	r21, 0xFF	; 255
    3232:	ec f3       	brlt	.-6      	; 0x322e <__divsf3_pse+0x6a>
    3234:	98 3e       	cpi	r25, 0xE8	; 232
    3236:	dc f3       	brlt	.-10     	; 0x322e <__divsf3_pse+0x6a>
    3238:	86 95       	lsr	r24
    323a:	77 95       	ror	r23
    323c:	67 95       	ror	r22
    323e:	b7 95       	ror	r27
    3240:	f7 95       	ror	r31
    3242:	9f 5f       	subi	r25, 0xFF	; 255
    3244:	c9 f7       	brne	.-14     	; 0x3238 <__divsf3_pse+0x74>
    3246:	88 0f       	add	r24, r24
    3248:	91 1d       	adc	r25, r1
    324a:	96 95       	lsr	r25
    324c:	87 95       	ror	r24
    324e:	97 f9       	bld	r25, 7
    3250:	08 95       	ret
    3252:	e1 e0       	ldi	r30, 0x01	; 1
    3254:	66 0f       	add	r22, r22
    3256:	77 1f       	adc	r23, r23
    3258:	88 1f       	adc	r24, r24
    325a:	bb 1f       	adc	r27, r27
    325c:	62 17       	cp	r22, r18
    325e:	73 07       	cpc	r23, r19
    3260:	84 07       	cpc	r24, r20
    3262:	ba 07       	cpc	r27, r26
    3264:	20 f0       	brcs	.+8      	; 0x326e <__divsf3_pse+0xaa>
    3266:	62 1b       	sub	r22, r18
    3268:	73 0b       	sbc	r23, r19
    326a:	84 0b       	sbc	r24, r20
    326c:	ba 0b       	sbc	r27, r26
    326e:	ee 1f       	adc	r30, r30
    3270:	88 f7       	brcc	.-30     	; 0x3254 <__divsf3_pse+0x90>
    3272:	e0 95       	com	r30
    3274:	08 95       	ret

00003276 <__fixunssfsi>:
    3276:	98 d0       	rcall	.+304    	; 0x33a8 <__fp_splitA>
    3278:	88 f0       	brcs	.+34     	; 0x329c <__fixunssfsi+0x26>
    327a:	9f 57       	subi	r25, 0x7F	; 127
    327c:	90 f0       	brcs	.+36     	; 0x32a2 <__fixunssfsi+0x2c>
    327e:	b9 2f       	mov	r27, r25
    3280:	99 27       	eor	r25, r25
    3282:	b7 51       	subi	r27, 0x17	; 23
    3284:	a0 f0       	brcs	.+40     	; 0x32ae <__fixunssfsi+0x38>
    3286:	d1 f0       	breq	.+52     	; 0x32bc <__fixunssfsi+0x46>
    3288:	66 0f       	add	r22, r22
    328a:	77 1f       	adc	r23, r23
    328c:	88 1f       	adc	r24, r24
    328e:	99 1f       	adc	r25, r25
    3290:	1a f0       	brmi	.+6      	; 0x3298 <__fixunssfsi+0x22>
    3292:	ba 95       	dec	r27
    3294:	c9 f7       	brne	.-14     	; 0x3288 <__fixunssfsi+0x12>
    3296:	12 c0       	rjmp	.+36     	; 0x32bc <__fixunssfsi+0x46>
    3298:	b1 30       	cpi	r27, 0x01	; 1
    329a:	81 f0       	breq	.+32     	; 0x32bc <__fixunssfsi+0x46>
    329c:	9f d0       	rcall	.+318    	; 0x33dc <__fp_zero>
    329e:	b1 e0       	ldi	r27, 0x01	; 1
    32a0:	08 95       	ret
    32a2:	9c c0       	rjmp	.+312    	; 0x33dc <__fp_zero>
    32a4:	67 2f       	mov	r22, r23
    32a6:	78 2f       	mov	r23, r24
    32a8:	88 27       	eor	r24, r24
    32aa:	b8 5f       	subi	r27, 0xF8	; 248
    32ac:	39 f0       	breq	.+14     	; 0x32bc <__fixunssfsi+0x46>
    32ae:	b9 3f       	cpi	r27, 0xF9	; 249
    32b0:	cc f3       	brlt	.-14     	; 0x32a4 <__fixunssfsi+0x2e>
    32b2:	86 95       	lsr	r24
    32b4:	77 95       	ror	r23
    32b6:	67 95       	ror	r22
    32b8:	b3 95       	inc	r27
    32ba:	d9 f7       	brne	.-10     	; 0x32b2 <__fixunssfsi+0x3c>
    32bc:	3e f4       	brtc	.+14     	; 0x32cc <__fixunssfsi+0x56>
    32be:	90 95       	com	r25
    32c0:	80 95       	com	r24
    32c2:	70 95       	com	r23
    32c4:	61 95       	neg	r22
    32c6:	7f 4f       	sbci	r23, 0xFF	; 255
    32c8:	8f 4f       	sbci	r24, 0xFF	; 255
    32ca:	9f 4f       	sbci	r25, 0xFF	; 255
    32cc:	08 95       	ret

000032ce <__floatunsisf>:
    32ce:	e8 94       	clt
    32d0:	09 c0       	rjmp	.+18     	; 0x32e4 <__floatsisf+0x12>

000032d2 <__floatsisf>:
    32d2:	97 fb       	bst	r25, 7
    32d4:	3e f4       	brtc	.+14     	; 0x32e4 <__floatsisf+0x12>
    32d6:	90 95       	com	r25
    32d8:	80 95       	com	r24
    32da:	70 95       	com	r23
    32dc:	61 95       	neg	r22
    32de:	7f 4f       	sbci	r23, 0xFF	; 255
    32e0:	8f 4f       	sbci	r24, 0xFF	; 255
    32e2:	9f 4f       	sbci	r25, 0xFF	; 255
    32e4:	99 23       	and	r25, r25
    32e6:	a9 f0       	breq	.+42     	; 0x3312 <__floatsisf+0x40>
    32e8:	f9 2f       	mov	r31, r25
    32ea:	96 e9       	ldi	r25, 0x96	; 150
    32ec:	bb 27       	eor	r27, r27
    32ee:	93 95       	inc	r25
    32f0:	f6 95       	lsr	r31
    32f2:	87 95       	ror	r24
    32f4:	77 95       	ror	r23
    32f6:	67 95       	ror	r22
    32f8:	b7 95       	ror	r27
    32fa:	f1 11       	cpse	r31, r1
    32fc:	f8 cf       	rjmp	.-16     	; 0x32ee <__floatsisf+0x1c>
    32fe:	fa f4       	brpl	.+62     	; 0x333e <__floatsisf+0x6c>
    3300:	bb 0f       	add	r27, r27
    3302:	11 f4       	brne	.+4      	; 0x3308 <__floatsisf+0x36>
    3304:	60 ff       	sbrs	r22, 0
    3306:	1b c0       	rjmp	.+54     	; 0x333e <__floatsisf+0x6c>
    3308:	6f 5f       	subi	r22, 0xFF	; 255
    330a:	7f 4f       	sbci	r23, 0xFF	; 255
    330c:	8f 4f       	sbci	r24, 0xFF	; 255
    330e:	9f 4f       	sbci	r25, 0xFF	; 255
    3310:	16 c0       	rjmp	.+44     	; 0x333e <__floatsisf+0x6c>
    3312:	88 23       	and	r24, r24
    3314:	11 f0       	breq	.+4      	; 0x331a <__floatsisf+0x48>
    3316:	96 e9       	ldi	r25, 0x96	; 150
    3318:	11 c0       	rjmp	.+34     	; 0x333c <__floatsisf+0x6a>
    331a:	77 23       	and	r23, r23
    331c:	21 f0       	breq	.+8      	; 0x3326 <__floatsisf+0x54>
    331e:	9e e8       	ldi	r25, 0x8E	; 142
    3320:	87 2f       	mov	r24, r23
    3322:	76 2f       	mov	r23, r22
    3324:	05 c0       	rjmp	.+10     	; 0x3330 <__floatsisf+0x5e>
    3326:	66 23       	and	r22, r22
    3328:	71 f0       	breq	.+28     	; 0x3346 <__floatsisf+0x74>
    332a:	96 e8       	ldi	r25, 0x86	; 134
    332c:	86 2f       	mov	r24, r22
    332e:	70 e0       	ldi	r23, 0x00	; 0
    3330:	60 e0       	ldi	r22, 0x00	; 0
    3332:	2a f0       	brmi	.+10     	; 0x333e <__floatsisf+0x6c>
    3334:	9a 95       	dec	r25
    3336:	66 0f       	add	r22, r22
    3338:	77 1f       	adc	r23, r23
    333a:	88 1f       	adc	r24, r24
    333c:	da f7       	brpl	.-10     	; 0x3334 <__floatsisf+0x62>
    333e:	88 0f       	add	r24, r24
    3340:	96 95       	lsr	r25
    3342:	87 95       	ror	r24
    3344:	97 f9       	bld	r25, 7
    3346:	08 95       	ret

00003348 <__fp_inf>:
    3348:	97 f9       	bld	r25, 7
    334a:	9f 67       	ori	r25, 0x7F	; 127
    334c:	80 e8       	ldi	r24, 0x80	; 128
    334e:	70 e0       	ldi	r23, 0x00	; 0
    3350:	60 e0       	ldi	r22, 0x00	; 0
    3352:	08 95       	ret

00003354 <__fp_nan>:
    3354:	9f ef       	ldi	r25, 0xFF	; 255
    3356:	80 ec       	ldi	r24, 0xC0	; 192
    3358:	08 95       	ret

0000335a <__fp_pscA>:
    335a:	00 24       	eor	r0, r0
    335c:	0a 94       	dec	r0
    335e:	16 16       	cp	r1, r22
    3360:	17 06       	cpc	r1, r23
    3362:	18 06       	cpc	r1, r24
    3364:	09 06       	cpc	r0, r25
    3366:	08 95       	ret

00003368 <__fp_pscB>:
    3368:	00 24       	eor	r0, r0
    336a:	0a 94       	dec	r0
    336c:	12 16       	cp	r1, r18
    336e:	13 06       	cpc	r1, r19
    3370:	14 06       	cpc	r1, r20
    3372:	05 06       	cpc	r0, r21
    3374:	08 95       	ret

00003376 <__fp_round>:
    3376:	09 2e       	mov	r0, r25
    3378:	03 94       	inc	r0
    337a:	00 0c       	add	r0, r0
    337c:	11 f4       	brne	.+4      	; 0x3382 <__fp_round+0xc>
    337e:	88 23       	and	r24, r24
    3380:	52 f0       	brmi	.+20     	; 0x3396 <__fp_round+0x20>
    3382:	bb 0f       	add	r27, r27
    3384:	40 f4       	brcc	.+16     	; 0x3396 <__fp_round+0x20>
    3386:	bf 2b       	or	r27, r31
    3388:	11 f4       	brne	.+4      	; 0x338e <__fp_round+0x18>
    338a:	60 ff       	sbrs	r22, 0
    338c:	04 c0       	rjmp	.+8      	; 0x3396 <__fp_round+0x20>
    338e:	6f 5f       	subi	r22, 0xFF	; 255
    3390:	7f 4f       	sbci	r23, 0xFF	; 255
    3392:	8f 4f       	sbci	r24, 0xFF	; 255
    3394:	9f 4f       	sbci	r25, 0xFF	; 255
    3396:	08 95       	ret

00003398 <__fp_split3>:
    3398:	57 fd       	sbrc	r21, 7
    339a:	90 58       	subi	r25, 0x80	; 128
    339c:	44 0f       	add	r20, r20
    339e:	55 1f       	adc	r21, r21
    33a0:	59 f0       	breq	.+22     	; 0x33b8 <__fp_splitA+0x10>
    33a2:	5f 3f       	cpi	r21, 0xFF	; 255
    33a4:	71 f0       	breq	.+28     	; 0x33c2 <__fp_splitA+0x1a>
    33a6:	47 95       	ror	r20

000033a8 <__fp_splitA>:
    33a8:	88 0f       	add	r24, r24
    33aa:	97 fb       	bst	r25, 7
    33ac:	99 1f       	adc	r25, r25
    33ae:	61 f0       	breq	.+24     	; 0x33c8 <__fp_splitA+0x20>
    33b0:	9f 3f       	cpi	r25, 0xFF	; 255
    33b2:	79 f0       	breq	.+30     	; 0x33d2 <__fp_splitA+0x2a>
    33b4:	87 95       	ror	r24
    33b6:	08 95       	ret
    33b8:	12 16       	cp	r1, r18
    33ba:	13 06       	cpc	r1, r19
    33bc:	14 06       	cpc	r1, r20
    33be:	55 1f       	adc	r21, r21
    33c0:	f2 cf       	rjmp	.-28     	; 0x33a6 <__fp_split3+0xe>
    33c2:	46 95       	lsr	r20
    33c4:	f1 df       	rcall	.-30     	; 0x33a8 <__fp_splitA>
    33c6:	08 c0       	rjmp	.+16     	; 0x33d8 <__fp_splitA+0x30>
    33c8:	16 16       	cp	r1, r22
    33ca:	17 06       	cpc	r1, r23
    33cc:	18 06       	cpc	r1, r24
    33ce:	99 1f       	adc	r25, r25
    33d0:	f1 cf       	rjmp	.-30     	; 0x33b4 <__fp_splitA+0xc>
    33d2:	86 95       	lsr	r24
    33d4:	71 05       	cpc	r23, r1
    33d6:	61 05       	cpc	r22, r1
    33d8:	08 94       	sec
    33da:	08 95       	ret

000033dc <__fp_zero>:
    33dc:	e8 94       	clt

000033de <__fp_szero>:
    33de:	bb 27       	eor	r27, r27
    33e0:	66 27       	eor	r22, r22
    33e2:	77 27       	eor	r23, r23
    33e4:	cb 01       	movw	r24, r22
    33e6:	97 f9       	bld	r25, 7
    33e8:	08 95       	ret

000033ea <__umulhisi3>:
    33ea:	53 9f       	mul	r21, r19
    33ec:	c0 01       	movw	r24, r0
    33ee:	42 9f       	mul	r20, r18
    33f0:	b0 01       	movw	r22, r0
    33f2:	52 9f       	mul	r21, r18
    33f4:	70 0d       	add	r23, r0
    33f6:	81 1d       	adc	r24, r1
    33f8:	11 24       	eor	r1, r1
    33fa:	91 1d       	adc	r25, r1
    33fc:	34 9f       	mul	r19, r20
    33fe:	70 0d       	add	r23, r0
    3400:	81 1d       	adc	r24, r1
    3402:	11 24       	eor	r1, r1
    3404:	91 1d       	adc	r25, r1
    3406:	08 95       	ret

00003408 <__udivmodhi4>:
    3408:	aa 1b       	sub	r26, r26
    340a:	bb 1b       	sub	r27, r27
    340c:	51 e1       	ldi	r21, 0x11	; 17
    340e:	07 c0       	rjmp	.+14     	; 0x341e <__udivmodhi4_ep>

00003410 <__udivmodhi4_loop>:
    3410:	aa 1f       	adc	r26, r26
    3412:	bb 1f       	adc	r27, r27
    3414:	a6 17       	cp	r26, r22
    3416:	b7 07       	cpc	r27, r23
    3418:	10 f0       	brcs	.+4      	; 0x341e <__udivmodhi4_ep>
    341a:	a6 1b       	sub	r26, r22
    341c:	b7 0b       	sbc	r27, r23

0000341e <__udivmodhi4_ep>:
    341e:	88 1f       	adc	r24, r24
    3420:	99 1f       	adc	r25, r25
    3422:	5a 95       	dec	r21
    3424:	a9 f7       	brne	.-22     	; 0x3410 <__udivmodhi4_loop>
    3426:	80 95       	com	r24
    3428:	90 95       	com	r25
    342a:	bc 01       	movw	r22, r24
    342c:	cd 01       	movw	r24, r26
    342e:	08 95       	ret

00003430 <__divmodsi4>:
    3430:	97 fb       	bst	r25, 7
    3432:	09 2e       	mov	r0, r25
    3434:	05 26       	eor	r0, r21
    3436:	0e d0       	rcall	.+28     	; 0x3454 <__divmodsi4_neg1>
    3438:	57 fd       	sbrc	r21, 7
    343a:	04 d0       	rcall	.+8      	; 0x3444 <__divmodsi4_neg2>
    343c:	14 d0       	rcall	.+40     	; 0x3466 <__udivmodsi4>
    343e:	0a d0       	rcall	.+20     	; 0x3454 <__divmodsi4_neg1>
    3440:	00 1c       	adc	r0, r0
    3442:	38 f4       	brcc	.+14     	; 0x3452 <__divmodsi4_exit>

00003444 <__divmodsi4_neg2>:
    3444:	50 95       	com	r21
    3446:	40 95       	com	r20
    3448:	30 95       	com	r19
    344a:	21 95       	neg	r18
    344c:	3f 4f       	sbci	r19, 0xFF	; 255
    344e:	4f 4f       	sbci	r20, 0xFF	; 255
    3450:	5f 4f       	sbci	r21, 0xFF	; 255

00003452 <__divmodsi4_exit>:
    3452:	08 95       	ret

00003454 <__divmodsi4_neg1>:
    3454:	f6 f7       	brtc	.-4      	; 0x3452 <__divmodsi4_exit>
    3456:	90 95       	com	r25
    3458:	80 95       	com	r24
    345a:	70 95       	com	r23
    345c:	61 95       	neg	r22
    345e:	7f 4f       	sbci	r23, 0xFF	; 255
    3460:	8f 4f       	sbci	r24, 0xFF	; 255
    3462:	9f 4f       	sbci	r25, 0xFF	; 255
    3464:	08 95       	ret

00003466 <__udivmodsi4>:
    3466:	a1 e2       	ldi	r26, 0x21	; 33
    3468:	1a 2e       	mov	r1, r26
    346a:	aa 1b       	sub	r26, r26
    346c:	bb 1b       	sub	r27, r27
    346e:	fd 01       	movw	r30, r26
    3470:	0d c0       	rjmp	.+26     	; 0x348c <__udivmodsi4_ep>

00003472 <__udivmodsi4_loop>:
    3472:	aa 1f       	adc	r26, r26
    3474:	bb 1f       	adc	r27, r27
    3476:	ee 1f       	adc	r30, r30
    3478:	ff 1f       	adc	r31, r31
    347a:	a2 17       	cp	r26, r18
    347c:	b3 07       	cpc	r27, r19
    347e:	e4 07       	cpc	r30, r20
    3480:	f5 07       	cpc	r31, r21
    3482:	20 f0       	brcs	.+8      	; 0x348c <__udivmodsi4_ep>
    3484:	a2 1b       	sub	r26, r18
    3486:	b3 0b       	sbc	r27, r19
    3488:	e4 0b       	sbc	r30, r20
    348a:	f5 0b       	sbc	r31, r21

0000348c <__udivmodsi4_ep>:
    348c:	66 1f       	adc	r22, r22
    348e:	77 1f       	adc	r23, r23
    3490:	88 1f       	adc	r24, r24
    3492:	99 1f       	adc	r25, r25
    3494:	1a 94       	dec	r1
    3496:	69 f7       	brne	.-38     	; 0x3472 <__udivmodsi4_loop>
    3498:	60 95       	com	r22
    349a:	70 95       	com	r23
    349c:	80 95       	com	r24
    349e:	90 95       	com	r25
    34a0:	9b 01       	movw	r18, r22
    34a2:	ac 01       	movw	r20, r24
    34a4:	bd 01       	movw	r22, r26
    34a6:	cf 01       	movw	r24, r30
    34a8:	08 95       	ret

000034aa <__eerd_byte_m324p>:
    34aa:	f9 99       	sbic	0x1f, 1	; 31
    34ac:	fe cf       	rjmp	.-4      	; 0x34aa <__eerd_byte_m324p>
    34ae:	92 bd       	out	0x22, r25	; 34
    34b0:	81 bd       	out	0x21, r24	; 33
    34b2:	f8 9a       	sbi	0x1f, 0	; 31
    34b4:	99 27       	eor	r25, r25
    34b6:	80 b5       	in	r24, 0x20	; 32
    34b8:	08 95       	ret

000034ba <__eewr_byte_m324p>:
    34ba:	26 2f       	mov	r18, r22

000034bc <__eewr_r18_m324p>:
    34bc:	f9 99       	sbic	0x1f, 1	; 31
    34be:	fe cf       	rjmp	.-4      	; 0x34bc <__eewr_r18_m324p>
    34c0:	1f ba       	out	0x1f, r1	; 31
    34c2:	92 bd       	out	0x22, r25	; 34
    34c4:	81 bd       	out	0x21, r24	; 33
    34c6:	20 bd       	out	0x20, r18	; 32
    34c8:	0f b6       	in	r0, 0x3f	; 63
    34ca:	f8 94       	cli
    34cc:	fa 9a       	sbi	0x1f, 2	; 31
    34ce:	f9 9a       	sbi	0x1f, 1	; 31
    34d0:	0f be       	out	0x3f, r0	; 63
    34d2:	01 96       	adiw	r24, 0x01	; 1
    34d4:	08 95       	ret

000034d6 <_exit>:
    34d6:	f8 94       	cli

000034d8 <__stop_program>:
    34d8:	ff cf       	rjmp	.-2      	; 0x34d8 <__stop_program>

Disassembly of section .bootloader:

00007000 <wait_for_rx_frame>:
    7000:	df 93       	push	r29
    7002:	cf 93       	push	r28
    7004:	0f 92       	push	r0
    7006:	cd b7       	in	r28, 0x3d	; 61
    7008:	de b7       	in	r29, 0x3e	; 62
    700a:	19 82       	std	Y+1, r1	; 0x01
    700c:	82 e0       	ldi	r24, 0x02	; 2
    700e:	6f e1       	ldi	r22, 0x1F	; 31
    7010:	40 e0       	ldi	r20, 0x00	; 0
    7012:	26 e0       	ldi	r18, 0x06	; 6
    7014:	0e 94 38 04 	call	0x870	; 0x870 <pal_trx_bit_write>
    7018:	00 00       	nop
    701a:	81 e0       	ldi	r24, 0x01	; 1
    701c:	6f e1       	ldi	r22, 0x1F	; 31
    701e:	40 e0       	ldi	r20, 0x00	; 0
    7020:	0e 94 26 04 	call	0x84c	; 0x84c <pal_trx_bit_read>
    7024:	86 30       	cpi	r24, 0x06	; 6
    7026:	c9 f7       	brne	.-14     	; 0x701a <wait_for_rx_frame+0x1a>
    7028:	00 00       	nop
    702a:	8f e0       	ldi	r24, 0x0F	; 15
    702c:	68 e0       	ldi	r22, 0x08	; 8
    702e:	43 e0       	ldi	r20, 0x03	; 3
    7030:	0e 94 26 04 	call	0x84c	; 0x84c <pal_trx_bit_read>
    7034:	88 23       	and	r24, r24
    7036:	c9 f3       	breq	.-14     	; 0x702a <wait_for_rx_frame+0x2a>
    7038:	ce 01       	movw	r24, r28
    703a:	01 96       	adiw	r24, 0x01	; 1
    703c:	61 e0       	ldi	r22, 0x01	; 1
    703e:	0e 94 eb 03 	call	0x7d6	; 0x7d6 <pal_trx_frame_read>
    7042:	29 81       	ldd	r18, Y+1	; 0x01
    7044:	8f ef       	ldi	r24, 0xFF	; 255
    7046:	91 e0       	ldi	r25, 0x01	; 1
    7048:	62 2f       	mov	r22, r18
    704a:	0e 94 eb 03 	call	0x7d6	; 0x7d6 <pal_trx_frame_read>
    704e:	0f 90       	pop	r0
    7050:	cf 91       	pop	r28
    7052:	df 91       	pop	r29
    7054:	08 95       	ret

00007056 <send_response>:
    7056:	df 93       	push	r29
    7058:	cf 93       	push	r28
    705a:	0f 92       	push	r0
    705c:	cd b7       	in	r28, 0x3d	; 61
    705e:	de b7       	in	r29, 0x3e	; 62
    7060:	89 83       	std	Y+1, r24	; 0x01
    7062:	85 e0       	ldi	r24, 0x05	; 5
    7064:	80 93 80 01 	sts	0x0180, r24
    7068:	82 e0       	ldi	r24, 0x02	; 2
    706a:	98 e8       	ldi	r25, 0x88	; 136
    706c:	90 93 82 01 	sts	0x0182, r25
    7070:	80 93 81 01 	sts	0x0181, r24
    7074:	8f ef       	ldi	r24, 0xFF	; 255
    7076:	80 93 83 01 	sts	0x0183, r24
    707a:	89 81       	ldd	r24, Y+1	; 0x01
    707c:	88 2f       	mov	r24, r24
    707e:	90 e0       	ldi	r25, 0x00	; 0
    7080:	81 30       	cpi	r24, 0x01	; 1
    7082:	91 05       	cpc	r25, r1
    7084:	21 f0       	breq	.+8      	; 0x708e <send_response+0x38>
    7086:	82 30       	cpi	r24, 0x02	; 2
    7088:	91 05       	cpc	r25, r1
    708a:	59 f0       	breq	.+22     	; 0x70a2 <send_response+0x4c>
    708c:	14 c0       	rjmp	.+40     	; 0x70b6 <send_response+0x60>
    708e:	80 91 81 01 	lds	r24, 0x0181
    7092:	90 91 82 01 	lds	r25, 0x0182
    7096:	80 62       	ori	r24, 0x20	; 32
    7098:	90 93 82 01 	sts	0x0182, r25
    709c:	80 93 81 01 	sts	0x0181, r24
    70a0:	0a c0       	rjmp	.+20     	; 0x70b6 <send_response+0x60>
    70a2:	80 91 81 01 	lds	r24, 0x0181
    70a6:	90 91 82 01 	lds	r25, 0x0182
    70aa:	80 61       	ori	r24, 0x10	; 16
    70ac:	90 93 82 01 	sts	0x0182, r25
    70b0:	80 93 81 01 	sts	0x0181, r24
    70b4:	00 00       	nop
    70b6:	20 91 80 01 	lds	r18, 0x0180
    70ba:	80 e8       	ldi	r24, 0x80	; 128
    70bc:	91 e0       	ldi	r25, 0x01	; 1
    70be:	62 2f       	mov	r22, r18
    70c0:	0e 94 10 04 	call	0x820	; 0x820 <pal_trx_frame_write>
    70c4:	82 e0       	ldi	r24, 0x02	; 2
    70c6:	6f e1       	ldi	r22, 0x1F	; 31
    70c8:	40 e0       	ldi	r20, 0x00	; 0
    70ca:	29 e0       	ldi	r18, 0x09	; 9
    70cc:	0e 94 38 04 	call	0x870	; 0x870 <pal_trx_bit_write>
    70d0:	00 00       	nop
    70d2:	81 e0       	ldi	r24, 0x01	; 1
    70d4:	6f e1       	ldi	r22, 0x1F	; 31
    70d6:	40 e0       	ldi	r20, 0x00	; 0
    70d8:	0e 94 26 04 	call	0x84c	; 0x84c <pal_trx_bit_read>
    70dc:	89 30       	cpi	r24, 0x09	; 9
    70de:	c9 f7       	brne	.-14     	; 0x70d2 <send_response+0x7c>
    70e0:	85 e2       	ldi	r24, 0x25	; 37
    70e2:	90 e0       	ldi	r25, 0x00	; 0
    70e4:	25 e2       	ldi	r18, 0x25	; 37
    70e6:	30 e0       	ldi	r19, 0x00	; 0
    70e8:	f9 01       	movw	r30, r18
    70ea:	20 81       	ld	r18, Z
    70ec:	21 60       	ori	r18, 0x01	; 1
    70ee:	fc 01       	movw	r30, r24
    70f0:	20 83       	st	Z, r18
	...
    70fa:	00 00       	nop
    70fc:	85 e2       	ldi	r24, 0x25	; 37
    70fe:	90 e0       	ldi	r25, 0x00	; 0
    7100:	25 e2       	ldi	r18, 0x25	; 37
    7102:	30 e0       	ldi	r19, 0x00	; 0
    7104:	f9 01       	movw	r30, r18
    7106:	20 81       	ld	r18, Z
    7108:	2e 7f       	andi	r18, 0xFE	; 254
    710a:	fc 01       	movw	r30, r24
    710c:	20 83       	st	Z, r18
    710e:	00 00       	nop
    7110:	8f e0       	ldi	r24, 0x0F	; 15
    7112:	68 e0       	ldi	r22, 0x08	; 8
    7114:	43 e0       	ldi	r20, 0x03	; 3
    7116:	0e 94 26 04 	call	0x84c	; 0x84c <pal_trx_bit_read>
    711a:	88 23       	and	r24, r24
    711c:	c9 f3       	breq	.-14     	; 0x7110 <send_response+0xba>
    711e:	0f 90       	pop	r0
    7120:	cf 91       	pop	r28
    7122:	df 91       	pop	r29
    7124:	08 95       	ret

00007126 <bootloader>:
    7126:	df 93       	push	r29
    7128:	cf 93       	push	r28
    712a:	cd b7       	in	r28, 0x3d	; 61
    712c:	de b7       	in	r29, 0x3e	; 62
    712e:	c7 50       	subi	r28, 0x07	; 7
    7130:	d1 40       	sbci	r29, 0x01	; 1
    7132:	0f b6       	in	r0, 0x3f	; 63
    7134:	f8 94       	cli
    7136:	de bf       	out	0x3e, r29	; 62
    7138:	0f be       	out	0x3f, r0	; 63
    713a:	cd bf       	out	0x3d, r28	; 61
    713c:	20 e8       	ldi	r18, 0x80	; 128
    713e:	ce 01       	movw	r24, r28
    7140:	08 96       	adiw	r24, 0x08	; 8
    7142:	fc 01       	movw	r30, r24
    7144:	32 2f       	mov	r19, r18
    7146:	11 92       	st	Z+, r1
    7148:	3a 95       	dec	r19
    714a:	e9 f7       	brne	.-6      	; 0x7146 <bootloader+0x20>
    714c:	ce 01       	movw	r24, r28
    714e:	88 57       	subi	r24, 0x78	; 120
    7150:	9f 4f       	sbci	r25, 0xFF	; 255
    7152:	20 e8       	ldi	r18, 0x80	; 128
    7154:	fc 01       	movw	r30, r24
    7156:	32 2f       	mov	r19, r18
    7158:	11 92       	st	Z+, r1
    715a:	3a 95       	dec	r19
    715c:	e9 f7       	brne	.-6      	; 0x7158 <bootloader+0x32>
    715e:	1a 82       	std	Y+2, r1	; 0x02
    7160:	19 82       	std	Y+1, r1	; 0x01
    7162:	80 ea       	ldi	r24, 0xA0	; 160
    7164:	8b 83       	std	Y+3, r24	; 0x03
    7166:	1c 82       	std	Y+4, r1	; 0x04
    7168:	1d 82       	std	Y+5, r1	; 0x05
    716a:	1e 82       	std	Y+6, r1	; 0x06
    716c:	1f 82       	std	Y+7, r1	; 0x07
    716e:	f8 94       	cli
    7170:	8d e3       	ldi	r24, 0x3D	; 61
    7172:	90 e0       	ldi	r25, 0x00	; 0
    7174:	fc 01       	movw	r30, r24
    7176:	10 82       	st	Z, r1
    7178:	88 e6       	ldi	r24, 0x68	; 104
    717a:	90 e0       	ldi	r25, 0x00	; 0
    717c:	fc 01       	movw	r30, r24
    717e:	10 82       	st	Z, r1
    7180:	84 e6       	ldi	r24, 0x64	; 100
    7182:	90 e0       	ldi	r25, 0x00	; 0
    7184:	2b ef       	ldi	r18, 0xFB	; 251
    7186:	fc 01       	movw	r30, r24
    7188:	20 83       	st	Z, r18
    718a:	8b e2       	ldi	r24, 0x2B	; 43
    718c:	90 e0       	ldi	r25, 0x00	; 0
    718e:	2b e2       	ldi	r18, 0x2B	; 43
    7190:	30 e0       	ldi	r19, 0x00	; 0
    7192:	f9 01       	movw	r30, r18
    7194:	20 81       	ld	r18, Z
    7196:	20 61       	ori	r18, 0x10	; 16
    7198:	fc 01       	movw	r30, r24
    719a:	20 83       	st	Z, r18
    719c:	80 e0       	ldi	r24, 0x00	; 0
    719e:	0e 94 2b 38 	call	0x7056	; 0x7056 <send_response>
    71a2:	0e 94 00 38 	call	0x7000	; 0x7000 <wait_for_rx_frame>
    71a6:	86 e0       	ldi	r24, 0x06	; 6
    71a8:	60 e8       	ldi	r22, 0x80	; 128
    71aa:	47 e0       	ldi	r20, 0x07	; 7
    71ac:	0e 94 26 04 	call	0x84c	; 0x84c <pal_trx_bit_read>
    71b0:	81 30       	cpi	r24, 0x01	; 1
    71b2:	09 f0       	breq	.+2      	; 0x71b6 <bootloader+0x90>
    71b4:	62 c0       	rjmp	.+196    	; 0x727a <bootloader+0x154>
    71b6:	80 91 00 02 	lds	r24, 0x0200
    71ba:	90 91 01 02 	lds	r25, 0x0201
    71be:	87 70       	andi	r24, 0x07	; 7
    71c0:	90 70       	andi	r25, 0x00	; 0
    71c2:	81 30       	cpi	r24, 0x01	; 1
    71c4:	91 05       	cpc	r25, r1
    71c6:	09 f0       	breq	.+2      	; 0x71ca <bootloader+0xa4>
    71c8:	46 c0       	rjmp	.+140    	; 0x7256 <bootloader+0x130>
    71ca:	89 81       	ldd	r24, Y+1	; 0x01
    71cc:	9a 81       	ldd	r25, Y+2	; 0x02
    71ce:	81 70       	andi	r24, 0x01	; 1
    71d0:	90 70       	andi	r25, 0x00	; 0
    71d2:	00 97       	sbiw	r24, 0x00	; 0
    71d4:	d1 f4       	brne	.+52     	; 0x720a <bootloader+0xe4>
    71d6:	1c 82       	std	Y+4, r1	; 0x04
    71d8:	14 c0       	rjmp	.+40     	; 0x7202 <bootloader+0xdc>
    71da:	8c 81       	ldd	r24, Y+4	; 0x04
    71dc:	88 2f       	mov	r24, r24
    71de:	90 e0       	ldi	r25, 0x00	; 0
    71e0:	2c 81       	ldd	r18, Y+4	; 0x04
    71e2:	22 2f       	mov	r18, r18
    71e4:	30 e0       	ldi	r19, 0x00	; 0
    71e6:	25 5f       	subi	r18, 0xF5	; 245
    71e8:	3d 4f       	sbci	r19, 0xFD	; 253
    71ea:	f9 01       	movw	r30, r18
    71ec:	40 81       	ld	r20, Z
    71ee:	9e 01       	movw	r18, r28
    71f0:	28 5f       	subi	r18, 0xF8	; 248
    71f2:	3f 4f       	sbci	r19, 0xFF	; 255
    71f4:	82 0f       	add	r24, r18
    71f6:	93 1f       	adc	r25, r19
    71f8:	fc 01       	movw	r30, r24
    71fa:	40 83       	st	Z, r20
    71fc:	8c 81       	ldd	r24, Y+4	; 0x04
    71fe:	8f 5f       	subi	r24, 0xFF	; 255
    7200:	8c 83       	std	Y+4, r24	; 0x04
    7202:	8c 81       	ldd	r24, Y+4	; 0x04
    7204:	88 23       	and	r24, r24
    7206:	4c f7       	brge	.-46     	; 0x71da <bootloader+0xb4>
    7208:	1e c0       	rjmp	.+60     	; 0x7246 <bootloader+0x120>
    720a:	1c 82       	std	Y+4, r1	; 0x04
    720c:	16 c0       	rjmp	.+44     	; 0x723a <bootloader+0x114>
    720e:	8c 81       	ldd	r24, Y+4	; 0x04
    7210:	88 2f       	mov	r24, r24
    7212:	90 e0       	ldi	r25, 0x00	; 0
    7214:	80 5c       	subi	r24, 0xC0	; 192
    7216:	9f 4f       	sbci	r25, 0xFF	; 255
    7218:	2c 81       	ldd	r18, Y+4	; 0x04
    721a:	22 2f       	mov	r18, r18
    721c:	30 e0       	ldi	r19, 0x00	; 0
    721e:	25 5f       	subi	r18, 0xF5	; 245
    7220:	3d 4f       	sbci	r19, 0xFD	; 253
    7222:	f9 01       	movw	r30, r18
    7224:	40 81       	ld	r20, Z
    7226:	9e 01       	movw	r18, r28
    7228:	28 5f       	subi	r18, 0xF8	; 248
    722a:	3f 4f       	sbci	r19, 0xFF	; 255
    722c:	82 0f       	add	r24, r18
    722e:	93 1f       	adc	r25, r19
    7230:	fc 01       	movw	r30, r24
    7232:	40 83       	st	Z, r20
    7234:	8c 81       	ldd	r24, Y+4	; 0x04
    7236:	8f 5f       	subi	r24, 0xFF	; 255
    7238:	8c 83       	std	Y+4, r24	; 0x04
    723a:	8c 81       	ldd	r24, Y+4	; 0x04
    723c:	88 23       	and	r24, r24
    723e:	3c f7       	brge	.-50     	; 0x720e <bootloader+0xe8>
    7240:	8b 81       	ldd	r24, Y+3	; 0x03
    7242:	8f 5f       	subi	r24, 0xFF	; 255
    7244:	8b 83       	std	Y+3, r24	; 0x03
    7246:	89 81       	ldd	r24, Y+1	; 0x01
    7248:	9a 81       	ldd	r25, Y+2	; 0x02
    724a:	01 96       	adiw	r24, 0x01	; 1
    724c:	9a 83       	std	Y+2, r25	; 0x02
    724e:	89 83       	std	Y+1, r24	; 0x01
    7250:	80 e0       	ldi	r24, 0x00	; 0
    7252:	0e 94 2b 38 	call	0x7056	; 0x7056 <send_response>
    7256:	80 91 00 02 	lds	r24, 0x0200
    725a:	90 91 01 02 	lds	r25, 0x0201
    725e:	f8 e8       	ldi	r31, 0x88	; 136
    7260:	83 30       	cpi	r24, 0x03	; 3
    7262:	9f 07       	cpc	r25, r31
    7264:	69 f4       	brne	.+26     	; 0x7280 <bootloader+0x15a>
    7266:	80 91 0b 02 	lds	r24, 0x020B
    726a:	80 34       	cpi	r24, 0x40	; 64
    726c:	49 f4       	brne	.+18     	; 0x7280 <bootloader+0x15a>
    726e:	80 e0       	ldi	r24, 0x00	; 0
    7270:	0e 94 2b 38 	call	0x7056	; 0x7056 <send_response>
    7274:	81 e0       	ldi	r24, 0x01	; 1
    7276:	8d 83       	std	Y+5, r24	; 0x05
    7278:	03 c0       	rjmp	.+6      	; 0x7280 <bootloader+0x15a>
    727a:	81 e0       	ldi	r24, 0x01	; 1
    727c:	0e 94 2b 38 	call	0x7056	; 0x7056 <send_response>
    7280:	8d 81       	ldd	r24, Y+5	; 0x05
    7282:	88 23       	and	r24, r24
    7284:	09 f4       	brne	.+2      	; 0x7288 <bootloader+0x162>
    7286:	8d cf       	rjmp	.-230    	; 0x71a2 <bootloader+0x7c>
    7288:	81 e1       	ldi	r24, 0x11	; 17
    728a:	80 93 57 00 	sts	0x0057, r24
    728e:	e8 95       	spm
    7290:	0c 94 00 00 	jmp	0	; 0x0 <__vectors>
    7294:	c9 5f       	subi	r28, 0xF9	; 249
    7296:	de 4f       	sbci	r29, 0xFE	; 254
    7298:	0f b6       	in	r0, 0x3f	; 63
    729a:	f8 94       	cli
    729c:	de bf       	out	0x3e, r29	; 62
    729e:	0f be       	out	0x3f, r0	; 63
    72a0:	cd bf       	out	0x3d, r28	; 61
    72a2:	cf 91       	pop	r28
    72a4:	df 91       	pop	r29
    72a6:	08 95       	ret

000072a8 <write_flash_page>:
    72a8:	df 93       	push	r29
    72aa:	cf 93       	push	r28
    72ac:	cd b7       	in	r28, 0x3d	; 61
    72ae:	de b7       	in	r29, 0x3e	; 62
    72b0:	28 97       	sbiw	r28, 0x08	; 8
    72b2:	0f b6       	in	r0, 0x3f	; 63
    72b4:	f8 94       	cli
    72b6:	de bf       	out	0x3e, r29	; 62
    72b8:	0f be       	out	0x3f, r0	; 63
    72ba:	cd bf       	out	0x3d, r28	; 61
    72bc:	9e 83       	std	Y+6, r25	; 0x06
    72be:	8d 83       	std	Y+5, r24	; 0x05
    72c0:	78 87       	std	Y+8, r23	; 0x08
    72c2:	6f 83       	std	Y+7, r22	; 0x07
    72c4:	8f e3       	ldi	r24, 0x3F	; 63
    72c6:	90 e0       	ldi	r25, 0x00	; 0
    72c8:	fc 01       	movw	r30, r24
    72ca:	80 81       	ld	r24, Z
    72cc:	88 2f       	mov	r24, r24
    72ce:	90 e0       	ldi	r25, 0x00	; 0
    72d0:	82 70       	andi	r24, 0x02	; 2
    72d2:	90 70       	andi	r25, 0x00	; 0
    72d4:	00 97       	sbiw	r24, 0x00	; 0
    72d6:	b1 f7       	brne	.-20     	; 0x72c4 <write_flash_page+0x1c>
    72d8:	8d 81       	ldd	r24, Y+5	; 0x05
    72da:	9e 81       	ldd	r25, Y+6	; 0x06
    72dc:	96 95       	lsr	r25
    72de:	98 2f       	mov	r25, r24
    72e0:	88 27       	eor	r24, r24
    72e2:	97 95       	ror	r25
    72e4:	87 95       	ror	r24
    72e6:	23 e0       	ldi	r18, 0x03	; 3
    72e8:	fc 01       	movw	r30, r24
    72ea:	20 93 57 00 	sts	0x0057, r18
    72ee:	e8 95       	spm
    72f0:	87 e5       	ldi	r24, 0x57	; 87
    72f2:	90 e0       	ldi	r25, 0x00	; 0
    72f4:	fc 01       	movw	r30, r24
    72f6:	80 81       	ld	r24, Z
    72f8:	88 2f       	mov	r24, r24
    72fa:	90 e0       	ldi	r25, 0x00	; 0
    72fc:	81 70       	andi	r24, 0x01	; 1
    72fe:	90 70       	andi	r25, 0x00	; 0
    7300:	88 23       	and	r24, r24
    7302:	b1 f7       	brne	.-20     	; 0x72f0 <write_flash_page+0x48>
    7304:	1a 82       	std	Y+2, r1	; 0x02
    7306:	19 82       	std	Y+1, r1	; 0x01
    7308:	3a c0       	rjmp	.+116    	; 0x737e <write_flash_page+0xd6>
    730a:	8f 81       	ldd	r24, Y+7	; 0x07
    730c:	98 85       	ldd	r25, Y+8	; 0x08
    730e:	fc 01       	movw	r30, r24
    7310:	80 81       	ld	r24, Z
    7312:	88 2f       	mov	r24, r24
    7314:	90 e0       	ldi	r25, 0x00	; 0
    7316:	9c 83       	std	Y+4, r25	; 0x04
    7318:	8b 83       	std	Y+3, r24	; 0x03
    731a:	8f 81       	ldd	r24, Y+7	; 0x07
    731c:	98 85       	ldd	r25, Y+8	; 0x08
    731e:	01 96       	adiw	r24, 0x01	; 1
    7320:	98 87       	std	Y+8, r25	; 0x08
    7322:	8f 83       	std	Y+7, r24	; 0x07
    7324:	8f 81       	ldd	r24, Y+7	; 0x07
    7326:	98 85       	ldd	r25, Y+8	; 0x08
    7328:	fc 01       	movw	r30, r24
    732a:	80 81       	ld	r24, Z
    732c:	88 2f       	mov	r24, r24
    732e:	90 e0       	ldi	r25, 0x00	; 0
    7330:	98 2f       	mov	r25, r24
    7332:	88 27       	eor	r24, r24
    7334:	2b 81       	ldd	r18, Y+3	; 0x03
    7336:	3c 81       	ldd	r19, Y+4	; 0x04
    7338:	82 0f       	add	r24, r18
    733a:	93 1f       	adc	r25, r19
    733c:	9c 83       	std	Y+4, r25	; 0x04
    733e:	8b 83       	std	Y+3, r24	; 0x03
    7340:	8f 81       	ldd	r24, Y+7	; 0x07
    7342:	98 85       	ldd	r25, Y+8	; 0x08
    7344:	01 96       	adiw	r24, 0x01	; 1
    7346:	98 87       	std	Y+8, r25	; 0x08
    7348:	8f 83       	std	Y+7, r24	; 0x07
    734a:	8d 81       	ldd	r24, Y+5	; 0x05
    734c:	9e 81       	ldd	r25, Y+6	; 0x06
    734e:	9c 01       	movw	r18, r24
    7350:	36 95       	lsr	r19
    7352:	32 2f       	mov	r19, r18
    7354:	22 27       	eor	r18, r18
    7356:	37 95       	ror	r19
    7358:	27 95       	ror	r18
    735a:	89 81       	ldd	r24, Y+1	; 0x01
    735c:	9a 81       	ldd	r25, Y+2	; 0x02
    735e:	82 0f       	add	r24, r18
    7360:	93 1f       	adc	r25, r19
    7362:	41 e0       	ldi	r20, 0x01	; 1
    7364:	2b 81       	ldd	r18, Y+3	; 0x03
    7366:	3c 81       	ldd	r19, Y+4	; 0x04
    7368:	fc 01       	movw	r30, r24
    736a:	09 01       	movw	r0, r18
    736c:	40 93 57 00 	sts	0x0057, r20
    7370:	e8 95       	spm
    7372:	11 24       	eor	r1, r1
    7374:	89 81       	ldd	r24, Y+1	; 0x01
    7376:	9a 81       	ldd	r25, Y+2	; 0x02
    7378:	02 96       	adiw	r24, 0x02	; 2
    737a:	9a 83       	std	Y+2, r25	; 0x02
    737c:	89 83       	std	Y+1, r24	; 0x01
    737e:	89 81       	ldd	r24, Y+1	; 0x01
    7380:	9a 81       	ldd	r25, Y+2	; 0x02
    7382:	80 38       	cpi	r24, 0x80	; 128
    7384:	91 05       	cpc	r25, r1
    7386:	08 f4       	brcc	.+2      	; 0x738a <write_flash_page+0xe2>
    7388:	c0 cf       	rjmp	.-128    	; 0x730a <write_flash_page+0x62>
    738a:	8d 81       	ldd	r24, Y+5	; 0x05
    738c:	9e 81       	ldd	r25, Y+6	; 0x06
    738e:	96 95       	lsr	r25
    7390:	98 2f       	mov	r25, r24
    7392:	88 27       	eor	r24, r24
    7394:	97 95       	ror	r25
    7396:	87 95       	ror	r24
    7398:	25 e0       	ldi	r18, 0x05	; 5
    739a:	fc 01       	movw	r30, r24
    739c:	20 93 57 00 	sts	0x0057, r18
    73a0:	e8 95       	spm
    73a2:	87 e5       	ldi	r24, 0x57	; 87
    73a4:	90 e0       	ldi	r25, 0x00	; 0
    73a6:	fc 01       	movw	r30, r24
    73a8:	80 81       	ld	r24, Z
    73aa:	88 2f       	mov	r24, r24
    73ac:	90 e0       	ldi	r25, 0x00	; 0
    73ae:	81 70       	andi	r24, 0x01	; 1
    73b0:	90 70       	andi	r25, 0x00	; 0
    73b2:	88 23       	and	r24, r24
    73b4:	b1 f7       	brne	.-20     	; 0x73a2 <write_flash_page+0xfa>
    73b6:	28 96       	adiw	r28, 0x08	; 8
    73b8:	0f b6       	in	r0, 0x3f	; 63
    73ba:	f8 94       	cli
    73bc:	de bf       	out	0x3e, r29	; 62
    73be:	0f be       	out	0x3f, r0	; 63
    73c0:	cd bf       	out	0x3d, r28	; 61
    73c2:	cf 91       	pop	r28
    73c4:	df 91       	pop	r29
    73c6:	08 95       	ret

000073c8 <load_flash_page>:
    73c8:	df 93       	push	r29
    73ca:	cf 93       	push	r28
    73cc:	cd b7       	in	r28, 0x3d	; 61
    73ce:	de b7       	in	r29, 0x3e	; 62
    73d0:	29 97       	sbiw	r28, 0x09	; 9
    73d2:	0f b6       	in	r0, 0x3f	; 63
    73d4:	f8 94       	cli
    73d6:	de bf       	out	0x3e, r29	; 62
    73d8:	0f be       	out	0x3f, r0	; 63
    73da:	cd bf       	out	0x3d, r28	; 61
    73dc:	9f 83       	std	Y+7, r25	; 0x07
    73de:	8e 83       	std	Y+6, r24	; 0x06
    73e0:	79 87       	std	Y+9, r23	; 0x09
    73e2:	68 87       	std	Y+8, r22	; 0x08
    73e4:	8e e1       	ldi	r24, 0x1E	; 30
    73e6:	90 e0       	ldi	r25, 0x00	; 0
    73e8:	9b 83       	std	Y+3, r25	; 0x03
    73ea:	8a 83       	std	Y+2, r24	; 0x02
    73ec:	1d 82       	std	Y+5, r1	; 0x05
    73ee:	1c 82       	std	Y+4, r1	; 0x04
    73f0:	19 82       	std	Y+1, r1	; 0x01
    73f2:	19 82       	std	Y+1, r1	; 0x01
    73f4:	25 c0       	rjmp	.+74     	; 0x7440 <load_flash_page+0x78>
    73f6:	8e 81       	ldd	r24, Y+6	; 0x06
    73f8:	9f 81       	ldd	r25, Y+7	; 0x07
    73fa:	9c 01       	movw	r18, r24
    73fc:	36 95       	lsr	r19
    73fe:	32 2f       	mov	r19, r18
    7400:	22 27       	eor	r18, r18
    7402:	37 95       	ror	r19
    7404:	27 95       	ror	r18
    7406:	89 81       	ldd	r24, Y+1	; 0x01
    7408:	88 2f       	mov	r24, r24
    740a:	90 e0       	ldi	r25, 0x00	; 0
    740c:	28 2b       	or	r18, r24
    740e:	39 2b       	or	r19, r25
    7410:	8a 81       	ldd	r24, Y+2	; 0x02
    7412:	9b 81       	ldd	r25, Y+3	; 0x03
    7414:	fc 01       	movw	r30, r24
    7416:	31 83       	std	Z+1, r19	; 0x01
    7418:	20 83       	st	Z, r18
    741a:	c8 95       	lpm
    741c:	8c 81       	ldd	r24, Y+4	; 0x04
    741e:	9d 81       	ldd	r25, Y+5	; 0x05
    7420:	fc 01       	movw	r30, r24
    7422:	80 81       	ld	r24, Z
    7424:	91 81       	ldd	r25, Z+1	; 0x01
    7426:	28 2f       	mov	r18, r24
    7428:	88 85       	ldd	r24, Y+8	; 0x08
    742a:	99 85       	ldd	r25, Y+9	; 0x09
    742c:	fc 01       	movw	r30, r24
    742e:	20 83       	st	Z, r18
    7430:	88 85       	ldd	r24, Y+8	; 0x08
    7432:	99 85       	ldd	r25, Y+9	; 0x09
    7434:	01 96       	adiw	r24, 0x01	; 1
    7436:	99 87       	std	Y+9, r25	; 0x09
    7438:	88 87       	std	Y+8, r24	; 0x08
    743a:	89 81       	ldd	r24, Y+1	; 0x01
    743c:	8f 5f       	subi	r24, 0xFF	; 255
    743e:	89 83       	std	Y+1, r24	; 0x01
    7440:	89 81       	ldd	r24, Y+1	; 0x01
    7442:	81 38       	cpi	r24, 0x81	; 129
    7444:	c0 f2       	brcs	.-80     	; 0x73f6 <load_flash_page+0x2e>
    7446:	29 96       	adiw	r28, 0x09	; 9
    7448:	0f b6       	in	r0, 0x3f	; 63
    744a:	f8 94       	cli
    744c:	de bf       	out	0x3e, r29	; 62
    744e:	0f be       	out	0x3f, r0	; 63
    7450:	cd bf       	out	0x3d, r28	; 61
    7452:	cf 91       	pop	r28
    7454:	df 91       	pop	r29
    7456:	08 95       	ret
